   1              		.syntax unified
   2              		.cpu cortex-m3
   3              		.eabi_attribute 27, 3
   4              		.fpu fpv4-sp-d16
   5              		.eabi_attribute 20, 1
   6              		.eabi_attribute 21, 1
   7              		.eabi_attribute 23, 3
   8              		.eabi_attribute 24, 1
   9              		.eabi_attribute 25, 1
  10              		.eabi_attribute 26, 1
  11              		.eabi_attribute 30, 6
  12              		.eabi_attribute 34, 1
  13              		.eabi_attribute 18, 4
  14              		.thumb
  15              		.file	"stm32f30x_exti.c"
  16              		.text
  17              	.Ltext0:
  18              		.cfi_sections	.debug_frame
  19              		.section	.text.EXTI_DeInit,"ax",%progbits
  20              		.align	2
  21              		.global	EXTI_DeInit
  22              		.thumb
  23              		.thumb_func
  25              	EXTI_DeInit:
  26              	.LFB110:
  27              		.file 1 "libs/STM32F30x_StdPeriph_Driver/src/stm32f30x_exti.c"
   1:libs/STM32F30x_StdPeriph_Driver/src/stm32f30x_exti.c **** /**
   2:libs/STM32F30x_StdPeriph_Driver/src/stm32f30x_exti.c ****   ******************************************************************************
   3:libs/STM32F30x_StdPeriph_Driver/src/stm32f30x_exti.c ****   * @file    stm32f30x_exti.c
   4:libs/STM32F30x_StdPeriph_Driver/src/stm32f30x_exti.c ****   * @author  MCD Application Team
   5:libs/STM32F30x_StdPeriph_Driver/src/stm32f30x_exti.c ****   * @version V1.0.1
   6:libs/STM32F30x_StdPeriph_Driver/src/stm32f30x_exti.c ****   * @date    23-October-2012
   7:libs/STM32F30x_StdPeriph_Driver/src/stm32f30x_exti.c ****   * @brief   This file provides firmware functions to manage the following 
   8:libs/STM32F30x_StdPeriph_Driver/src/stm32f30x_exti.c ****   *          functionalities of the EXTI peripheral:
   9:libs/STM32F30x_StdPeriph_Driver/src/stm32f30x_exti.c ****   *           + Initialization and Configuration 
  10:libs/STM32F30x_StdPeriph_Driver/src/stm32f30x_exti.c ****   *           + Interrupts and flags management 
  11:libs/STM32F30x_StdPeriph_Driver/src/stm32f30x_exti.c ****   *
  12:libs/STM32F30x_StdPeriph_Driver/src/stm32f30x_exti.c ****   @verbatim
  13:libs/STM32F30x_StdPeriph_Driver/src/stm32f30x_exti.c ****  ===============================================================================
  14:libs/STM32F30x_StdPeriph_Driver/src/stm32f30x_exti.c ****                           ##### EXTI features #####
  15:libs/STM32F30x_StdPeriph_Driver/src/stm32f30x_exti.c ****  ===============================================================================
  16:libs/STM32F30x_StdPeriph_Driver/src/stm32f30x_exti.c ****     [..] External interrupt/event lines are mapped as following:
  17:libs/STM32F30x_StdPeriph_Driver/src/stm32f30x_exti.c ****          (#) All available GPIO pins are connected to the 16 external 
  18:libs/STM32F30x_StdPeriph_Driver/src/stm32f30x_exti.c ****              interrupt/event lines from EXTI0 to EXTI15.
  19:libs/STM32F30x_StdPeriph_Driver/src/stm32f30x_exti.c ****          (#) EXTI line 16 is connected to the PVD output
  20:libs/STM32F30x_StdPeriph_Driver/src/stm32f30x_exti.c ****          (#) EXTI line 17 is connected to the RTC Alarm event
  21:libs/STM32F30x_StdPeriph_Driver/src/stm32f30x_exti.c ****          (#) EXTI line 18 is connected to USB Device wakeup event  
  22:libs/STM32F30x_StdPeriph_Driver/src/stm32f30x_exti.c ****          (#) EXTI line 19 is connected to the RTC Tamper and TimeStamp events
  23:libs/STM32F30x_StdPeriph_Driver/src/stm32f30x_exti.c ****          (#) EXTI line 20 is connected to the RTC wakeup event  
  24:libs/STM32F30x_StdPeriph_Driver/src/stm32f30x_exti.c ****          (#) EXTI line 21 is connected to the Comparator 1 wakeup event 
  25:libs/STM32F30x_StdPeriph_Driver/src/stm32f30x_exti.c ****          (#) EXTI line 22 is connected to the Comparator 2 wakeup event
  26:libs/STM32F30x_StdPeriph_Driver/src/stm32f30x_exti.c ****          (#) EXTI line 23 is connected to the I2C1 wakeup event
  27:libs/STM32F30x_StdPeriph_Driver/src/stm32f30x_exti.c ****          (#) EXTI line 24 is connected to the I2C2 wakeup event  
  28:libs/STM32F30x_StdPeriph_Driver/src/stm32f30x_exti.c ****          (#) EXTI line 25 is connected to the USART1 wakeup event
  29:libs/STM32F30x_StdPeriph_Driver/src/stm32f30x_exti.c ****          (#) EXTI line 26 is connected to the USART2 wakeup event  
  30:libs/STM32F30x_StdPeriph_Driver/src/stm32f30x_exti.c ****          (#) EXTI line 27 is reserved
  31:libs/STM32F30x_StdPeriph_Driver/src/stm32f30x_exti.c ****          (#) EXTI line 28 is connected to the USART3 wakeup event
  32:libs/STM32F30x_StdPeriph_Driver/src/stm32f30x_exti.c ****          (#) EXTI line 29 is connected to the Comparator 3 event
  33:libs/STM32F30x_StdPeriph_Driver/src/stm32f30x_exti.c ****          (#) EXTI line 30 is connected to the Comparator 4 event
  34:libs/STM32F30x_StdPeriph_Driver/src/stm32f30x_exti.c ****          (#) EXTI line 31 is connected to the Comparator 5 event
  35:libs/STM32F30x_StdPeriph_Driver/src/stm32f30x_exti.c ****          (#) EXTI line 32 is connected to the Comparator 6 event
  36:libs/STM32F30x_StdPeriph_Driver/src/stm32f30x_exti.c ****          (#) EXTI line 33 is connected to the Comparator 7 event
  37:libs/STM32F30x_StdPeriph_Driver/src/stm32f30x_exti.c ****          (#) EXTI line 34 is connected for thr UART4 wakeup event
  38:libs/STM32F30x_StdPeriph_Driver/src/stm32f30x_exti.c ****          (#) EXTI line 35 is connected for the UART5 wakeup event               
  39:libs/STM32F30x_StdPeriph_Driver/src/stm32f30x_exti.c **** 
  40:libs/STM32F30x_StdPeriph_Driver/src/stm32f30x_exti.c ****                        ##### How to use this driver #####
  41:libs/STM32F30x_StdPeriph_Driver/src/stm32f30x_exti.c ****  ===============================================================================
  42:libs/STM32F30x_StdPeriph_Driver/src/stm32f30x_exti.c ****     [..] In order to use an I/O pin as an external interrupt source, 
  43:libs/STM32F30x_StdPeriph_Driver/src/stm32f30x_exti.c ****          follow steps below:
  44:libs/STM32F30x_StdPeriph_Driver/src/stm32f30x_exti.c ****          (#) Configure the I/O in input mode using GPIO_Init().
  45:libs/STM32F30x_StdPeriph_Driver/src/stm32f30x_exti.c ****          (#) Select the input source pin for the EXTI line using
  46:libs/STM32F30x_StdPeriph_Driver/src/stm32f30x_exti.c ****              SYSCFG_EXTILineConfig().
  47:libs/STM32F30x_StdPeriph_Driver/src/stm32f30x_exti.c ****          (#) Select the mode(interrupt, event) and configure the trigger 
  48:libs/STM32F30x_StdPeriph_Driver/src/stm32f30x_exti.c ****              selection (Rising, falling or both) using EXTI_Init(). For the 
  49:libs/STM32F30x_StdPeriph_Driver/src/stm32f30x_exti.c ****              internal interrupt, the trigger selection is not needed 
  50:libs/STM32F30x_StdPeriph_Driver/src/stm32f30x_exti.c ****              (the active edge is always the rising one).
  51:libs/STM32F30x_StdPeriph_Driver/src/stm32f30x_exti.c ****          (#) Configure NVIC IRQ channel mapped to the EXTI line using NVIC_Init().
  52:libs/STM32F30x_StdPeriph_Driver/src/stm32f30x_exti.c ****          (#) Optionally, you can generate a software interrupt using the function 
  53:libs/STM32F30x_StdPeriph_Driver/src/stm32f30x_exti.c ****              EXTI_GenerateSWInterrupt().
  54:libs/STM32F30x_StdPeriph_Driver/src/stm32f30x_exti.c ****     [..]
  55:libs/STM32F30x_StdPeriph_Driver/src/stm32f30x_exti.c ****     (@) SYSCFG APB clock must be enabled to get write access to SYSCFG_EXTICRx
  56:libs/STM32F30x_StdPeriph_Driver/src/stm32f30x_exti.c ****       registers using RCC_APB2PeriphClockCmd(RCC_APB2Periph_SYSCFG, ENABLE);
  57:libs/STM32F30x_StdPeriph_Driver/src/stm32f30x_exti.c ****                 
  58:libs/STM32F30x_StdPeriph_Driver/src/stm32f30x_exti.c ****   @endverbatim
  59:libs/STM32F30x_StdPeriph_Driver/src/stm32f30x_exti.c **** 
  60:libs/STM32F30x_StdPeriph_Driver/src/stm32f30x_exti.c ****   ******************************************************************************
  61:libs/STM32F30x_StdPeriph_Driver/src/stm32f30x_exti.c ****   * @attention
  62:libs/STM32F30x_StdPeriph_Driver/src/stm32f30x_exti.c ****   *
  63:libs/STM32F30x_StdPeriph_Driver/src/stm32f30x_exti.c ****   * <h2><center>&copy; COPYRIGHT 2012 STMicroelectronics</center></h2>
  64:libs/STM32F30x_StdPeriph_Driver/src/stm32f30x_exti.c ****   *
  65:libs/STM32F30x_StdPeriph_Driver/src/stm32f30x_exti.c ****   * Licensed under MCD-ST Liberty SW License Agreement V2, (the "License");
  66:libs/STM32F30x_StdPeriph_Driver/src/stm32f30x_exti.c ****   * You may not use this file except in compliance with the License.
  67:libs/STM32F30x_StdPeriph_Driver/src/stm32f30x_exti.c ****   * You may obtain a copy of the License at:
  68:libs/STM32F30x_StdPeriph_Driver/src/stm32f30x_exti.c ****   *
  69:libs/STM32F30x_StdPeriph_Driver/src/stm32f30x_exti.c ****   *        http://www.st.com/software_license_agreement_liberty_v2
  70:libs/STM32F30x_StdPeriph_Driver/src/stm32f30x_exti.c ****   *
  71:libs/STM32F30x_StdPeriph_Driver/src/stm32f30x_exti.c ****   * Unless required by applicable law or agreed to in writing, software 
  72:libs/STM32F30x_StdPeriph_Driver/src/stm32f30x_exti.c ****   * distributed under the License is distributed on an "AS IS" BASIS, 
  73:libs/STM32F30x_StdPeriph_Driver/src/stm32f30x_exti.c ****   * WITHOUT WARRANTIES OR CONDITIONS OF ANY KIND, either express or implied.
  74:libs/STM32F30x_StdPeriph_Driver/src/stm32f30x_exti.c ****   * See the License for the specific language governing permissions and
  75:libs/STM32F30x_StdPeriph_Driver/src/stm32f30x_exti.c ****   * limitations under the License.
  76:libs/STM32F30x_StdPeriph_Driver/src/stm32f30x_exti.c ****   *
  77:libs/STM32F30x_StdPeriph_Driver/src/stm32f30x_exti.c ****   ******************************************************************************
  78:libs/STM32F30x_StdPeriph_Driver/src/stm32f30x_exti.c ****   */
  79:libs/STM32F30x_StdPeriph_Driver/src/stm32f30x_exti.c **** 
  80:libs/STM32F30x_StdPeriph_Driver/src/stm32f30x_exti.c **** /* Includes ------------------------------------------------------------------*/
  81:libs/STM32F30x_StdPeriph_Driver/src/stm32f30x_exti.c **** #include "stm32f30x_exti.h"
  82:libs/STM32F30x_StdPeriph_Driver/src/stm32f30x_exti.c **** 
  83:libs/STM32F30x_StdPeriph_Driver/src/stm32f30x_exti.c **** /** @addtogroup STM32F30x_StdPeriph_Driver
  84:libs/STM32F30x_StdPeriph_Driver/src/stm32f30x_exti.c ****   * @{
  85:libs/STM32F30x_StdPeriph_Driver/src/stm32f30x_exti.c ****   */
  86:libs/STM32F30x_StdPeriph_Driver/src/stm32f30x_exti.c **** 
  87:libs/STM32F30x_StdPeriph_Driver/src/stm32f30x_exti.c **** /** @defgroup EXTI 
  88:libs/STM32F30x_StdPeriph_Driver/src/stm32f30x_exti.c ****   * @brief EXTI driver modules
  89:libs/STM32F30x_StdPeriph_Driver/src/stm32f30x_exti.c ****   * @{
  90:libs/STM32F30x_StdPeriph_Driver/src/stm32f30x_exti.c ****   */
  91:libs/STM32F30x_StdPeriph_Driver/src/stm32f30x_exti.c **** 
  92:libs/STM32F30x_StdPeriph_Driver/src/stm32f30x_exti.c **** 
  93:libs/STM32F30x_StdPeriph_Driver/src/stm32f30x_exti.c **** /* Private typedef -----------------------------------------------------------*/
  94:libs/STM32F30x_StdPeriph_Driver/src/stm32f30x_exti.c **** /* Private define ------------------------------------------------------------*/
  95:libs/STM32F30x_StdPeriph_Driver/src/stm32f30x_exti.c **** #define EXTI_LINENONE     ((uint32_t)0x00000)        /* No interrupt selected */
  96:libs/STM32F30x_StdPeriph_Driver/src/stm32f30x_exti.c **** 
  97:libs/STM32F30x_StdPeriph_Driver/src/stm32f30x_exti.c **** /* Private macro -------------------------------------------------------------*/
  98:libs/STM32F30x_StdPeriph_Driver/src/stm32f30x_exti.c **** /* Private variables ---------------------------------------------------------*/
  99:libs/STM32F30x_StdPeriph_Driver/src/stm32f30x_exti.c **** /* Private function prototypes -----------------------------------------------*/
 100:libs/STM32F30x_StdPeriph_Driver/src/stm32f30x_exti.c **** /* Private functions ---------------------------------------------------------*/
 101:libs/STM32F30x_StdPeriph_Driver/src/stm32f30x_exti.c **** 
 102:libs/STM32F30x_StdPeriph_Driver/src/stm32f30x_exti.c **** /** @defgroup EXTI_Private_Functions 
 103:libs/STM32F30x_StdPeriph_Driver/src/stm32f30x_exti.c ****   * @{
 104:libs/STM32F30x_StdPeriph_Driver/src/stm32f30x_exti.c ****   */
 105:libs/STM32F30x_StdPeriph_Driver/src/stm32f30x_exti.c **** 
 106:libs/STM32F30x_StdPeriph_Driver/src/stm32f30x_exti.c **** /** @defgroup EXTI_Group1 Initialization and Configuration functions
 107:libs/STM32F30x_StdPeriph_Driver/src/stm32f30x_exti.c ****  *  @brief   Initialization and Configuration functions
 108:libs/STM32F30x_StdPeriph_Driver/src/stm32f30x_exti.c ****  *
 109:libs/STM32F30x_StdPeriph_Driver/src/stm32f30x_exti.c **** @verbatim
 110:libs/STM32F30x_StdPeriph_Driver/src/stm32f30x_exti.c ****  ===============================================================================
 111:libs/STM32F30x_StdPeriph_Driver/src/stm32f30x_exti.c ****               ##### Initialization and Configuration functions #####
 112:libs/STM32F30x_StdPeriph_Driver/src/stm32f30x_exti.c ****  ===============================================================================
 113:libs/STM32F30x_StdPeriph_Driver/src/stm32f30x_exti.c **** 
 114:libs/STM32F30x_StdPeriph_Driver/src/stm32f30x_exti.c **** @endverbatim
 115:libs/STM32F30x_StdPeriph_Driver/src/stm32f30x_exti.c ****   * @{
 116:libs/STM32F30x_StdPeriph_Driver/src/stm32f30x_exti.c ****   */
 117:libs/STM32F30x_StdPeriph_Driver/src/stm32f30x_exti.c ****     
 118:libs/STM32F30x_StdPeriph_Driver/src/stm32f30x_exti.c **** /**
 119:libs/STM32F30x_StdPeriph_Driver/src/stm32f30x_exti.c ****   * @brief  Deinitializes the EXTI peripheral registers to their default reset 
 120:libs/STM32F30x_StdPeriph_Driver/src/stm32f30x_exti.c ****   *         values.
 121:libs/STM32F30x_StdPeriph_Driver/src/stm32f30x_exti.c ****   * @param  None
 122:libs/STM32F30x_StdPeriph_Driver/src/stm32f30x_exti.c ****   * @retval None
 123:libs/STM32F30x_StdPeriph_Driver/src/stm32f30x_exti.c ****   */
 124:libs/STM32F30x_StdPeriph_Driver/src/stm32f30x_exti.c **** void EXTI_DeInit(void)
 125:libs/STM32F30x_StdPeriph_Driver/src/stm32f30x_exti.c **** {
  28              		.loc 1 125 0
  29              		.cfi_startproc
  30              		@ args = 0, pretend = 0, frame = 0
  31              		@ frame_needed = 1, uses_anonymous_args = 0
  32              		@ link register save eliminated.
  33 0000 80B4     		push	{r7}
  34              	.LCFI0:
  35              		.cfi_def_cfa_offset 4
  36              		.cfi_offset 7, -4
  37 0002 00AF     		add	r7, sp, #0
  38              	.LCFI1:
  39              		.cfi_def_cfa_register 7
 126:libs/STM32F30x_StdPeriph_Driver/src/stm32f30x_exti.c ****   EXTI->IMR    = 0x1F800000;
  40              		.loc 1 126 0
  41 0004 194B     		ldr	r3, .L2
  42 0006 4FF0FC52 		mov	r2, #528482304
  43 000a 1A60     		str	r2, [r3, #0]
 127:libs/STM32F30x_StdPeriph_Driver/src/stm32f30x_exti.c ****   EXTI->EMR    = 0x00000000;
  44              		.loc 1 127 0
  45 000c 174B     		ldr	r3, .L2
  46 000e 4FF00002 		mov	r2, #0
  47 0012 5A60     		str	r2, [r3, #4]
 128:libs/STM32F30x_StdPeriph_Driver/src/stm32f30x_exti.c ****   EXTI->RTSR   = 0x00000000;
  48              		.loc 1 128 0
  49 0014 154B     		ldr	r3, .L2
  50 0016 4FF00002 		mov	r2, #0
  51 001a 9A60     		str	r2, [r3, #8]
 129:libs/STM32F30x_StdPeriph_Driver/src/stm32f30x_exti.c ****   EXTI->FTSR   = 0x00000000;
  52              		.loc 1 129 0
  53 001c 134B     		ldr	r3, .L2
  54 001e 4FF00002 		mov	r2, #0
  55 0022 DA60     		str	r2, [r3, #12]
 130:libs/STM32F30x_StdPeriph_Driver/src/stm32f30x_exti.c ****   EXTI->SWIER  = 0x00000000;
  56              		.loc 1 130 0
  57 0024 114B     		ldr	r3, .L2
  58 0026 4FF00002 		mov	r2, #0
  59 002a 1A61     		str	r2, [r3, #16]
 131:libs/STM32F30x_StdPeriph_Driver/src/stm32f30x_exti.c ****   EXTI->PR     = 0xE07FFFFF;
  60              		.loc 1 131 0
  61 002c 0F4B     		ldr	r3, .L2
  62 002e 6FF0FC52 		mvn	r2, #528482304
  63 0032 5A61     		str	r2, [r3, #20]
 132:libs/STM32F30x_StdPeriph_Driver/src/stm32f30x_exti.c ****   EXTI->IMR2   = 0x0000000C;
  64              		.loc 1 132 0
  65 0034 0D4B     		ldr	r3, .L2
  66 0036 4FF00C02 		mov	r2, #12
  67 003a 1A62     		str	r2, [r3, #32]
 133:libs/STM32F30x_StdPeriph_Driver/src/stm32f30x_exti.c ****   EXTI->EMR2   = 0x00000000;
  68              		.loc 1 133 0
  69 003c 0B4B     		ldr	r3, .L2
  70 003e 4FF00002 		mov	r2, #0
  71 0042 5A62     		str	r2, [r3, #36]
 134:libs/STM32F30x_StdPeriph_Driver/src/stm32f30x_exti.c ****   EXTI->RTSR2  = 0x00000000;
  72              		.loc 1 134 0
  73 0044 094B     		ldr	r3, .L2
  74 0046 4FF00002 		mov	r2, #0
  75 004a 9A62     		str	r2, [r3, #40]
 135:libs/STM32F30x_StdPeriph_Driver/src/stm32f30x_exti.c ****   EXTI->FTSR2  = 0x00000000;
  76              		.loc 1 135 0
  77 004c 074B     		ldr	r3, .L2
  78 004e 4FF00002 		mov	r2, #0
  79 0052 DA62     		str	r2, [r3, #44]
 136:libs/STM32F30x_StdPeriph_Driver/src/stm32f30x_exti.c ****   EXTI->SWIER2 = 0x00000000;
  80              		.loc 1 136 0
  81 0054 054B     		ldr	r3, .L2
  82 0056 4FF00002 		mov	r2, #0
  83 005a 1A63     		str	r2, [r3, #48]
 137:libs/STM32F30x_StdPeriph_Driver/src/stm32f30x_exti.c ****   EXTI->PR2    = 0x00000003;
  84              		.loc 1 137 0
  85 005c 034B     		ldr	r3, .L2
  86 005e 4FF00302 		mov	r2, #3
  87 0062 5A63     		str	r2, [r3, #52]
 138:libs/STM32F30x_StdPeriph_Driver/src/stm32f30x_exti.c **** }
  88              		.loc 1 138 0
  89 0064 BD46     		mov	sp, r7
  90 0066 80BC     		pop	{r7}
  91 0068 7047     		bx	lr
  92              	.L3:
  93 006a 00BF     		.align	2
  94              	.L2:
  95 006c 00040140 		.word	1073808384
  96              		.cfi_endproc
  97              	.LFE110:
  99              		.section	.text.EXTI_Init,"ax",%progbits
 100              		.align	2
 101              		.global	EXTI_Init
 102              		.thumb
 103              		.thumb_func
 105              	EXTI_Init:
 106              	.LFB111:
 139:libs/STM32F30x_StdPeriph_Driver/src/stm32f30x_exti.c **** 
 140:libs/STM32F30x_StdPeriph_Driver/src/stm32f30x_exti.c **** /**
 141:libs/STM32F30x_StdPeriph_Driver/src/stm32f30x_exti.c ****   * @brief  Initializes the EXTI peripheral according to the specified
 142:libs/STM32F30x_StdPeriph_Driver/src/stm32f30x_exti.c ****   *         parameters in the EXTI_InitStruct.
 143:libs/STM32F30x_StdPeriph_Driver/src/stm32f30x_exti.c ****   *    EXTI_Line specifies the EXTI line (EXTI0....EXTI35).
 144:libs/STM32F30x_StdPeriph_Driver/src/stm32f30x_exti.c ****   *    EXTI_Mode specifies which EXTI line is used as interrupt or an event.
 145:libs/STM32F30x_StdPeriph_Driver/src/stm32f30x_exti.c ****   *    EXTI_Trigger selects the trigger. When the trigger occurs, interrupt
 146:libs/STM32F30x_StdPeriph_Driver/src/stm32f30x_exti.c ****   *                 pending bit will be set.
 147:libs/STM32F30x_StdPeriph_Driver/src/stm32f30x_exti.c ****   *    EXTI_LineCmd controls (Enable/Disable) the EXTI line.
 148:libs/STM32F30x_StdPeriph_Driver/src/stm32f30x_exti.c ****   * @param  EXTI_InitStruct: pointer to a EXTI_InitTypeDef structure that 
 149:libs/STM32F30x_StdPeriph_Driver/src/stm32f30x_exti.c ****   *         contains the configuration information for the EXTI peripheral.
 150:libs/STM32F30x_StdPeriph_Driver/src/stm32f30x_exti.c ****   * @retval None
 151:libs/STM32F30x_StdPeriph_Driver/src/stm32f30x_exti.c ****   */
 152:libs/STM32F30x_StdPeriph_Driver/src/stm32f30x_exti.c ****   
 153:libs/STM32F30x_StdPeriph_Driver/src/stm32f30x_exti.c **** 
 154:libs/STM32F30x_StdPeriph_Driver/src/stm32f30x_exti.c **** void EXTI_Init(EXTI_InitTypeDef* EXTI_InitStruct)
 155:libs/STM32F30x_StdPeriph_Driver/src/stm32f30x_exti.c **** {
 107              		.loc 1 155 0
 108              		.cfi_startproc
 109              		@ args = 0, pretend = 0, frame = 16
 110              		@ frame_needed = 1, uses_anonymous_args = 0
 111              		@ link register save eliminated.
 112 0000 80B4     		push	{r7}
 113              	.LCFI2:
 114              		.cfi_def_cfa_offset 4
 115              		.cfi_offset 7, -4
 116 0002 85B0     		sub	sp, sp, #20
 117              	.LCFI3:
 118              		.cfi_def_cfa_offset 24
 119 0004 00AF     		add	r7, sp, #0
 120              	.LCFI4:
 121              		.cfi_def_cfa_register 7
 122 0006 7860     		str	r0, [r7, #4]
 156:libs/STM32F30x_StdPeriph_Driver/src/stm32f30x_exti.c ****   uint32_t tmp = 0;
 123              		.loc 1 156 0
 124 0008 4FF00003 		mov	r3, #0
 125 000c FB60     		str	r3, [r7, #12]
 157:libs/STM32F30x_StdPeriph_Driver/src/stm32f30x_exti.c **** 
 158:libs/STM32F30x_StdPeriph_Driver/src/stm32f30x_exti.c ****   /* Check the parameters */
 159:libs/STM32F30x_StdPeriph_Driver/src/stm32f30x_exti.c ****   //assert_param(IS_EXTI_MODE(EXTI_InitStruct->EXTI_Mode));
 160:libs/STM32F30x_StdPeriph_Driver/src/stm32f30x_exti.c ****   //assert_param(IS_EXTI_TRIGGER(EXTI_InitStruct->EXTI_Trigger));
 161:libs/STM32F30x_StdPeriph_Driver/src/stm32f30x_exti.c ****   //assert_param(IS_EXTI_LINE_ALL(EXTI_InitStruct->EXTI_Line));
 162:libs/STM32F30x_StdPeriph_Driver/src/stm32f30x_exti.c ****   //assert_param(IS_FUNCTIONAL_STATE(EXTI_InitStruct->EXTI_LineCmd));
 163:libs/STM32F30x_StdPeriph_Driver/src/stm32f30x_exti.c **** 
 164:libs/STM32F30x_StdPeriph_Driver/src/stm32f30x_exti.c ****   tmp = (uint32_t)EXTI_BASE;
 126              		.loc 1 164 0
 127 000e 8C4B     		ldr	r3, .L8
 128 0010 FB60     		str	r3, [r7, #12]
 165:libs/STM32F30x_StdPeriph_Driver/src/stm32f30x_exti.c ****       
 166:libs/STM32F30x_StdPeriph_Driver/src/stm32f30x_exti.c ****   if (EXTI_InitStruct->EXTI_LineCmd != DISABLE)
 129              		.loc 1 166 0
 130 0012 7B68     		ldr	r3, [r7, #4]
 131 0014 9B79     		ldrb	r3, [r3, #6]	@ zero_extendqisi2
 132 0016 002B     		cmp	r3, #0
 133 0018 00F0F080 		beq	.L5
 167:libs/STM32F30x_StdPeriph_Driver/src/stm32f30x_exti.c ****   {
 168:libs/STM32F30x_StdPeriph_Driver/src/stm32f30x_exti.c ****     /* Clear EXTI line configuration */   
 169:libs/STM32F30x_StdPeriph_Driver/src/stm32f30x_exti.c ****     *(__IO uint32_t *) (((uint32_t) &(EXTI->IMR)) + ((EXTI_InitStruct->EXTI_Line) >> 5 ) * 0x20) &=
 134              		.loc 1 169 0
 135 001c 7B68     		ldr	r3, [r7, #4]
 136 001e 1B68     		ldr	r3, [r3, #0]
 137 0020 4FEA5313 		lsr	r3, r3, #5
 138 0024 03F10073 		add	r3, r3, #33554432
 139 0028 03F50263 		add	r3, r3, #2080
 140 002c 4FEA4313 		lsl	r3, r3, #5
 141 0030 1A46     		mov	r2, r3
 142 0032 7B68     		ldr	r3, [r7, #4]
 143 0034 1B68     		ldr	r3, [r3, #0]
 144 0036 4FEA5313 		lsr	r3, r3, #5
 145 003a 03F10073 		add	r3, r3, #33554432
 146 003e 03F50263 		add	r3, r3, #2080
 147 0042 4FEA4313 		lsl	r3, r3, #5
 148 0046 1968     		ldr	r1, [r3, #0]
 149 0048 7B68     		ldr	r3, [r7, #4]
 150 004a 1B68     		ldr	r3, [r3, #0]
 151 004c 03F01F03 		and	r3, r3, #31
 152 0050 4FF00100 		mov	r0, #1
 153 0054 00FA03F3 		lsl	r3, r0, r3
 154 0058 6FEA0303 		mvn	r3, r3
 155 005c 0B40     		ands	r3, r3, r1
 156 005e 1360     		str	r3, [r2, #0]
 170:libs/STM32F30x_StdPeriph_Driver/src/stm32f30x_exti.c ****     *(__IO uint32_t *) (((uint32_t) &(EXTI->EMR)) + ((EXTI_InitStruct->EXTI_Line) >> 5 ) * 0x20) &=
 157              		.loc 1 170 0
 158 0060 7B68     		ldr	r3, [r7, #4]
 159 0062 1B68     		ldr	r3, [r3, #0]
 160 0064 4FEA5313 		lsr	r3, r3, #5
 161 0068 4FEA4312 		lsl	r2, r3, #5
 162 006c 754B     		ldr	r3, .L8+4
 163 006e D318     		adds	r3, r2, r3
 164 0070 1A46     		mov	r2, r3
 165 0072 7B68     		ldr	r3, [r7, #4]
 166 0074 1B68     		ldr	r3, [r3, #0]
 167 0076 4FEA5313 		lsr	r3, r3, #5
 168 007a 4FEA4311 		lsl	r1, r3, #5
 169 007e 714B     		ldr	r3, .L8+4
 170 0080 CB18     		adds	r3, r1, r3
 171 0082 1968     		ldr	r1, [r3, #0]
 172 0084 7B68     		ldr	r3, [r7, #4]
 173 0086 1B68     		ldr	r3, [r3, #0]
 174 0088 03F01F03 		and	r3, r3, #31
 175 008c 4FF00100 		mov	r0, #1
 176 0090 00FA03F3 		lsl	r3, r0, r3
 177 0094 6FEA0303 		mvn	r3, r3
 178 0098 0B40     		ands	r3, r3, r1
 179 009a 1360     		str	r3, [r2, #0]
 171:libs/STM32F30x_StdPeriph_Driver/src/stm32f30x_exti.c ****      
 172:libs/STM32F30x_StdPeriph_Driver/src/stm32f30x_exti.c ****     tmp += EXTI_InitStruct->EXTI_Mode + (((EXTI_InitStruct->EXTI_Line) >> 5 ) * 0x20);
 180              		.loc 1 172 0
 181 009c 7B68     		ldr	r3, [r7, #4]
 182 009e 1B79     		ldrb	r3, [r3, #4]	@ zero_extendqisi2
 183 00a0 1A46     		mov	r2, r3
 184 00a2 7B68     		ldr	r3, [r7, #4]
 185 00a4 1B68     		ldr	r3, [r3, #0]
 186 00a6 4FEA5313 		lsr	r3, r3, #5
 187 00aa 4FEA4313 		lsl	r3, r3, #5
 188 00ae D318     		adds	r3, r2, r3
 189 00b0 FA68     		ldr	r2, [r7, #12]
 190 00b2 D318     		adds	r3, r2, r3
 191 00b4 FB60     		str	r3, [r7, #12]
 173:libs/STM32F30x_StdPeriph_Driver/src/stm32f30x_exti.c **** 
 174:libs/STM32F30x_StdPeriph_Driver/src/stm32f30x_exti.c ****     *(__IO uint32_t *) tmp |= (uint32_t)(1 << (EXTI_InitStruct->EXTI_Line & 0x1F));
 192              		.loc 1 174 0
 193 00b6 FB68     		ldr	r3, [r7, #12]
 194 00b8 FA68     		ldr	r2, [r7, #12]
 195 00ba 1168     		ldr	r1, [r2, #0]
 196 00bc 7A68     		ldr	r2, [r7, #4]
 197 00be 1268     		ldr	r2, [r2, #0]
 198 00c0 02F01F02 		and	r2, r2, #31
 199 00c4 4FF00100 		mov	r0, #1
 200 00c8 00FA02F2 		lsl	r2, r0, r2
 201 00cc 0A43     		orrs	r2, r2, r1
 202 00ce 1A60     		str	r2, [r3, #0]
 175:libs/STM32F30x_StdPeriph_Driver/src/stm32f30x_exti.c ****     
 176:libs/STM32F30x_StdPeriph_Driver/src/stm32f30x_exti.c ****     tmp = (uint32_t)EXTI_BASE;
 203              		.loc 1 176 0
 204 00d0 5B4B     		ldr	r3, .L8
 205 00d2 FB60     		str	r3, [r7, #12]
 177:libs/STM32F30x_StdPeriph_Driver/src/stm32f30x_exti.c **** 
 178:libs/STM32F30x_StdPeriph_Driver/src/stm32f30x_exti.c ****     /* Clear Rising Falling edge configuration */
 179:libs/STM32F30x_StdPeriph_Driver/src/stm32f30x_exti.c ****     *(__IO uint32_t *) (((uint32_t) &(EXTI->RTSR)) + ((EXTI_InitStruct->EXTI_Line) >> 5 ) * 0x20) &
 206              		.loc 1 179 0
 207 00d4 7B68     		ldr	r3, [r7, #4]
 208 00d6 1B68     		ldr	r3, [r3, #0]
 209 00d8 4FEA5313 		lsr	r3, r3, #5
 210 00dc 4FEA4312 		lsl	r2, r3, #5
 211 00e0 594B     		ldr	r3, .L8+8
 212 00e2 D318     		adds	r3, r2, r3
 213 00e4 1A46     		mov	r2, r3
 214 00e6 7B68     		ldr	r3, [r7, #4]
 215 00e8 1B68     		ldr	r3, [r3, #0]
 216 00ea 4FEA5313 		lsr	r3, r3, #5
 217 00ee 4FEA4311 		lsl	r1, r3, #5
 218 00f2 554B     		ldr	r3, .L8+8
 219 00f4 CB18     		adds	r3, r1, r3
 220 00f6 1968     		ldr	r1, [r3, #0]
 221 00f8 7B68     		ldr	r3, [r7, #4]
 222 00fa 1B68     		ldr	r3, [r3, #0]
 223 00fc 03F01F03 		and	r3, r3, #31
 224 0100 4FF00100 		mov	r0, #1
 225 0104 00FA03F3 		lsl	r3, r0, r3
 226 0108 6FEA0303 		mvn	r3, r3
 227 010c 0B40     		ands	r3, r3, r1
 228 010e 1360     		str	r3, [r2, #0]
 180:libs/STM32F30x_StdPeriph_Driver/src/stm32f30x_exti.c ****     *(__IO uint32_t *) (((uint32_t) &(EXTI->FTSR)) + ((EXTI_InitStruct->EXTI_Line) >> 5 ) * 0x20) &
 229              		.loc 1 180 0
 230 0110 7B68     		ldr	r3, [r7, #4]
 231 0112 1B68     		ldr	r3, [r3, #0]
 232 0114 4FEA5313 		lsr	r3, r3, #5
 233 0118 4FEA4312 		lsl	r2, r3, #5
 234 011c 4B4B     		ldr	r3, .L8+12
 235 011e D318     		adds	r3, r2, r3
 236 0120 1A46     		mov	r2, r3
 237 0122 7B68     		ldr	r3, [r7, #4]
 238 0124 1B68     		ldr	r3, [r3, #0]
 239 0126 4FEA5313 		lsr	r3, r3, #5
 240 012a 4FEA4311 		lsl	r1, r3, #5
 241 012e 474B     		ldr	r3, .L8+12
 242 0130 CB18     		adds	r3, r1, r3
 243 0132 1968     		ldr	r1, [r3, #0]
 244 0134 7B68     		ldr	r3, [r7, #4]
 245 0136 1B68     		ldr	r3, [r3, #0]
 246 0138 03F01F03 		and	r3, r3, #31
 247 013c 4FF00100 		mov	r0, #1
 248 0140 00FA03F3 		lsl	r3, r0, r3
 249 0144 6FEA0303 		mvn	r3, r3
 250 0148 0B40     		ands	r3, r3, r1
 251 014a 1360     		str	r3, [r2, #0]
 181:libs/STM32F30x_StdPeriph_Driver/src/stm32f30x_exti.c ****     
 182:libs/STM32F30x_StdPeriph_Driver/src/stm32f30x_exti.c ****       /* Select the trigger for the selected interrupts */
 183:libs/STM32F30x_StdPeriph_Driver/src/stm32f30x_exti.c ****     if (EXTI_InitStruct->EXTI_Trigger == EXTI_Trigger_Rising_Falling)
 252              		.loc 1 183 0
 253 014c 7B68     		ldr	r3, [r7, #4]
 254 014e 5B79     		ldrb	r3, [r3, #5]	@ zero_extendqisi2
 255 0150 102B     		cmp	r3, #16
 256 0152 38D1     		bne	.L6
 184:libs/STM32F30x_StdPeriph_Driver/src/stm32f30x_exti.c ****     {
 185:libs/STM32F30x_StdPeriph_Driver/src/stm32f30x_exti.c ****       /* Rising Falling edge */
 186:libs/STM32F30x_StdPeriph_Driver/src/stm32f30x_exti.c ****     *(__IO uint32_t *) (((uint32_t) &(EXTI->RTSR)) + ((EXTI_InitStruct->EXTI_Line) >> 5 ) * 0x20) |
 257              		.loc 1 186 0
 258 0154 7B68     		ldr	r3, [r7, #4]
 259 0156 1B68     		ldr	r3, [r3, #0]
 260 0158 4FEA5313 		lsr	r3, r3, #5
 261 015c 4FEA4312 		lsl	r2, r3, #5
 262 0160 394B     		ldr	r3, .L8+8
 263 0162 D318     		adds	r3, r2, r3
 264 0164 1A46     		mov	r2, r3
 265 0166 7B68     		ldr	r3, [r7, #4]
 266 0168 1B68     		ldr	r3, [r3, #0]
 267 016a 4FEA5313 		lsr	r3, r3, #5
 268 016e 4FEA4311 		lsl	r1, r3, #5
 269 0172 354B     		ldr	r3, .L8+8
 270 0174 CB18     		adds	r3, r1, r3
 271 0176 1968     		ldr	r1, [r3, #0]
 272 0178 7B68     		ldr	r3, [r7, #4]
 273 017a 1B68     		ldr	r3, [r3, #0]
 274 017c 03F01F03 		and	r3, r3, #31
 275 0180 4FF00100 		mov	r0, #1
 276 0184 00FA03F3 		lsl	r3, r0, r3
 277 0188 0B43     		orrs	r3, r3, r1
 278 018a 1360     		str	r3, [r2, #0]
 187:libs/STM32F30x_StdPeriph_Driver/src/stm32f30x_exti.c ****     *(__IO uint32_t *) (((uint32_t) &(EXTI->FTSR)) + ((EXTI_InitStruct->EXTI_Line) >> 5 ) * 0x20) |
 279              		.loc 1 187 0
 280 018c 7B68     		ldr	r3, [r7, #4]
 281 018e 1B68     		ldr	r3, [r3, #0]
 282 0190 4FEA5313 		lsr	r3, r3, #5
 283 0194 4FEA4312 		lsl	r2, r3, #5
 284 0198 2C4B     		ldr	r3, .L8+12
 285 019a D318     		adds	r3, r2, r3
 286 019c 1A46     		mov	r2, r3
 287 019e 7B68     		ldr	r3, [r7, #4]
 288 01a0 1B68     		ldr	r3, [r3, #0]
 289 01a2 4FEA5313 		lsr	r3, r3, #5
 290 01a6 4FEA4311 		lsl	r1, r3, #5
 291 01aa 284B     		ldr	r3, .L8+12
 292 01ac CB18     		adds	r3, r1, r3
 293 01ae 1968     		ldr	r1, [r3, #0]
 294 01b0 7B68     		ldr	r3, [r7, #4]
 295 01b2 1B68     		ldr	r3, [r3, #0]
 296 01b4 03F01F03 		and	r3, r3, #31
 297 01b8 4FF00100 		mov	r0, #1
 298 01bc 00FA03F3 		lsl	r3, r0, r3
 299 01c0 0B43     		orrs	r3, r3, r1
 300 01c2 1360     		str	r3, [r2, #0]
 301 01c4 36E0     		b	.L4
 302              	.L6:
 188:libs/STM32F30x_StdPeriph_Driver/src/stm32f30x_exti.c ****     }
 189:libs/STM32F30x_StdPeriph_Driver/src/stm32f30x_exti.c ****     else
 190:libs/STM32F30x_StdPeriph_Driver/src/stm32f30x_exti.c ****     {
 191:libs/STM32F30x_StdPeriph_Driver/src/stm32f30x_exti.c ****       tmp += EXTI_InitStruct->EXTI_Trigger + (((EXTI_InitStruct->EXTI_Line) >> 5 ) * 0x20);
 303              		.loc 1 191 0
 304 01c6 7B68     		ldr	r3, [r7, #4]
 305 01c8 5B79     		ldrb	r3, [r3, #5]	@ zero_extendqisi2
 306 01ca 1A46     		mov	r2, r3
 307 01cc 7B68     		ldr	r3, [r7, #4]
 308 01ce 1B68     		ldr	r3, [r3, #0]
 309 01d0 4FEA5313 		lsr	r3, r3, #5
 310 01d4 4FEA4313 		lsl	r3, r3, #5
 311 01d8 D318     		adds	r3, r2, r3
 312 01da FA68     		ldr	r2, [r7, #12]
 313 01dc D318     		adds	r3, r2, r3
 314 01de FB60     		str	r3, [r7, #12]
 192:libs/STM32F30x_StdPeriph_Driver/src/stm32f30x_exti.c **** 
 193:libs/STM32F30x_StdPeriph_Driver/src/stm32f30x_exti.c ****       *(__IO uint32_t *) tmp |= (uint32_t)(1 << (EXTI_InitStruct->EXTI_Line & 0x1F));
 315              		.loc 1 193 0
 316 01e0 FB68     		ldr	r3, [r7, #12]
 317 01e2 FA68     		ldr	r2, [r7, #12]
 318 01e4 1168     		ldr	r1, [r2, #0]
 319 01e6 7A68     		ldr	r2, [r7, #4]
 320 01e8 1268     		ldr	r2, [r2, #0]
 321 01ea 02F01F02 		and	r2, r2, #31
 322 01ee 4FF00100 		mov	r0, #1
 323 01f2 00FA02F2 		lsl	r2, r0, r2
 324 01f6 0A43     		orrs	r2, r2, r1
 325 01f8 1A60     		str	r2, [r3, #0]
 326 01fa 1BE0     		b	.L4
 327              	.L5:
 194:libs/STM32F30x_StdPeriph_Driver/src/stm32f30x_exti.c ****     }
 195:libs/STM32F30x_StdPeriph_Driver/src/stm32f30x_exti.c ****   }
 196:libs/STM32F30x_StdPeriph_Driver/src/stm32f30x_exti.c ****       
 197:libs/STM32F30x_StdPeriph_Driver/src/stm32f30x_exti.c ****   else
 198:libs/STM32F30x_StdPeriph_Driver/src/stm32f30x_exti.c ****   {
 199:libs/STM32F30x_StdPeriph_Driver/src/stm32f30x_exti.c ****     tmp += EXTI_InitStruct->EXTI_Mode + (((EXTI_InitStruct->EXTI_Line) >> 5 ) * 0x20);
 328              		.loc 1 199 0
 329 01fc 7B68     		ldr	r3, [r7, #4]
 330 01fe 1B79     		ldrb	r3, [r3, #4]	@ zero_extendqisi2
 331 0200 1A46     		mov	r2, r3
 332 0202 7B68     		ldr	r3, [r7, #4]
 333 0204 1B68     		ldr	r3, [r3, #0]
 334 0206 4FEA5313 		lsr	r3, r3, #5
 335 020a 4FEA4313 		lsl	r3, r3, #5
 336 020e D318     		adds	r3, r2, r3
 337 0210 FA68     		ldr	r2, [r7, #12]
 338 0212 D318     		adds	r3, r2, r3
 339 0214 FB60     		str	r3, [r7, #12]
 200:libs/STM32F30x_StdPeriph_Driver/src/stm32f30x_exti.c **** 
 201:libs/STM32F30x_StdPeriph_Driver/src/stm32f30x_exti.c ****     /* Disable the selected external lines */
 202:libs/STM32F30x_StdPeriph_Driver/src/stm32f30x_exti.c ****     *(__IO uint32_t *) tmp &= ~(uint32_t)(1 << (EXTI_InitStruct->EXTI_Line & 0x1F));
 340              		.loc 1 202 0
 341 0216 FB68     		ldr	r3, [r7, #12]
 342 0218 FA68     		ldr	r2, [r7, #12]
 343 021a 1168     		ldr	r1, [r2, #0]
 344 021c 7A68     		ldr	r2, [r7, #4]
 345 021e 1268     		ldr	r2, [r2, #0]
 346 0220 02F01F02 		and	r2, r2, #31
 347 0224 4FF00100 		mov	r0, #1
 348 0228 00FA02F2 		lsl	r2, r0, r2
 349 022c 6FEA0202 		mvn	r2, r2
 350 0230 0A40     		ands	r2, r2, r1
 351 0232 1A60     		str	r2, [r3, #0]
 352              	.L4:
 203:libs/STM32F30x_StdPeriph_Driver/src/stm32f30x_exti.c ****   }
 204:libs/STM32F30x_StdPeriph_Driver/src/stm32f30x_exti.c ****          
 205:libs/STM32F30x_StdPeriph_Driver/src/stm32f30x_exti.c **** }
 353              		.loc 1 205 0
 354 0234 07F11407 		add	r7, r7, #20
 355 0238 BD46     		mov	sp, r7
 356 023a 80BC     		pop	{r7}
 357 023c 7047     		bx	lr
 358              	.L9:
 359 023e 00BF     		.align	2
 360              	.L8:
 361 0240 00040140 		.word	1073808384
 362 0244 04040140 		.word	1073808388
 363 0248 08040140 		.word	1073808392
 364 024c 0C040140 		.word	1073808396
 365              		.cfi_endproc
 366              	.LFE111:
 368              		.section	.text.EXTI_StructInit,"ax",%progbits
 369              		.align	2
 370              		.global	EXTI_StructInit
 371              		.thumb
 372              		.thumb_func
 374              	EXTI_StructInit:
 375              	.LFB112:
 206:libs/STM32F30x_StdPeriph_Driver/src/stm32f30x_exti.c **** 
 207:libs/STM32F30x_StdPeriph_Driver/src/stm32f30x_exti.c **** /**
 208:libs/STM32F30x_StdPeriph_Driver/src/stm32f30x_exti.c ****   * @brief  Fills each EXTI_InitStruct member with its reset value.
 209:libs/STM32F30x_StdPeriph_Driver/src/stm32f30x_exti.c ****   * @param  EXTI_InitStruct: pointer to a EXTI_InitTypeDef structure which will
 210:libs/STM32F30x_StdPeriph_Driver/src/stm32f30x_exti.c ****   *         be initialized.
 211:libs/STM32F30x_StdPeriph_Driver/src/stm32f30x_exti.c ****   * @retval None
 212:libs/STM32F30x_StdPeriph_Driver/src/stm32f30x_exti.c ****   */
 213:libs/STM32F30x_StdPeriph_Driver/src/stm32f30x_exti.c **** void EXTI_StructInit(EXTI_InitTypeDef* EXTI_InitStruct)
 214:libs/STM32F30x_StdPeriph_Driver/src/stm32f30x_exti.c **** {
 376              		.loc 1 214 0
 377              		.cfi_startproc
 378              		@ args = 0, pretend = 0, frame = 8
 379              		@ frame_needed = 1, uses_anonymous_args = 0
 380              		@ link register save eliminated.
 381 0000 80B4     		push	{r7}
 382              	.LCFI5:
 383              		.cfi_def_cfa_offset 4
 384              		.cfi_offset 7, -4
 385 0002 83B0     		sub	sp, sp, #12
 386              	.LCFI6:
 387              		.cfi_def_cfa_offset 16
 388 0004 00AF     		add	r7, sp, #0
 389              	.LCFI7:
 390              		.cfi_def_cfa_register 7
 391 0006 7860     		str	r0, [r7, #4]
 215:libs/STM32F30x_StdPeriph_Driver/src/stm32f30x_exti.c ****   EXTI_InitStruct->EXTI_Line = EXTI_LINENONE;
 392              		.loc 1 215 0
 393 0008 7B68     		ldr	r3, [r7, #4]
 394 000a 4FF00002 		mov	r2, #0
 395 000e 1A60     		str	r2, [r3, #0]
 216:libs/STM32F30x_StdPeriph_Driver/src/stm32f30x_exti.c ****   EXTI_InitStruct->EXTI_Mode = EXTI_Mode_Interrupt;
 396              		.loc 1 216 0
 397 0010 7B68     		ldr	r3, [r7, #4]
 398 0012 4FF00002 		mov	r2, #0
 399 0016 1A71     		strb	r2, [r3, #4]
 217:libs/STM32F30x_StdPeriph_Driver/src/stm32f30x_exti.c ****   EXTI_InitStruct->EXTI_Trigger = EXTI_Trigger_Rising_Falling;
 400              		.loc 1 217 0
 401 0018 7B68     		ldr	r3, [r7, #4]
 402 001a 4FF01002 		mov	r2, #16
 403 001e 5A71     		strb	r2, [r3, #5]
 218:libs/STM32F30x_StdPeriph_Driver/src/stm32f30x_exti.c ****   EXTI_InitStruct->EXTI_LineCmd = DISABLE;
 404              		.loc 1 218 0
 405 0020 7B68     		ldr	r3, [r7, #4]
 406 0022 4FF00002 		mov	r2, #0
 407 0026 9A71     		strb	r2, [r3, #6]
 219:libs/STM32F30x_StdPeriph_Driver/src/stm32f30x_exti.c **** }
 408              		.loc 1 219 0
 409 0028 07F10C07 		add	r7, r7, #12
 410 002c BD46     		mov	sp, r7
 411 002e 80BC     		pop	{r7}
 412 0030 7047     		bx	lr
 413              		.cfi_endproc
 414              	.LFE112:
 416 0032 00BF     		.section	.text.EXTI_GenerateSWInterrupt,"ax",%progbits
 417              		.align	2
 418              		.global	EXTI_GenerateSWInterrupt
 419              		.thumb
 420              		.thumb_func
 422              	EXTI_GenerateSWInterrupt:
 423              	.LFB113:
 220:libs/STM32F30x_StdPeriph_Driver/src/stm32f30x_exti.c **** 
 221:libs/STM32F30x_StdPeriph_Driver/src/stm32f30x_exti.c **** /**
 222:libs/STM32F30x_StdPeriph_Driver/src/stm32f30x_exti.c ****   * @brief  Generates a Software interrupt on selected EXTI line.
 223:libs/STM32F30x_StdPeriph_Driver/src/stm32f30x_exti.c ****   * @param  EXTI_Line: specifies the EXTI line on which the software interrupt
 224:libs/STM32F30x_StdPeriph_Driver/src/stm32f30x_exti.c ****   *         will be generated.
 225:libs/STM32F30x_StdPeriph_Driver/src/stm32f30x_exti.c ****   *   This parameter can be any combination of EXTI_Linex where x can be (0..20).
 226:libs/STM32F30x_StdPeriph_Driver/src/stm32f30x_exti.c ****   * @retval None
 227:libs/STM32F30x_StdPeriph_Driver/src/stm32f30x_exti.c ****   */
 228:libs/STM32F30x_StdPeriph_Driver/src/stm32f30x_exti.c **** void EXTI_GenerateSWInterrupt(uint32_t EXTI_Line)
 229:libs/STM32F30x_StdPeriph_Driver/src/stm32f30x_exti.c **** {
 424              		.loc 1 229 0
 425              		.cfi_startproc
 426              		@ args = 0, pretend = 0, frame = 8
 427              		@ frame_needed = 1, uses_anonymous_args = 0
 428              		@ link register save eliminated.
 429 0000 80B4     		push	{r7}
 430              	.LCFI8:
 431              		.cfi_def_cfa_offset 4
 432              		.cfi_offset 7, -4
 433 0002 83B0     		sub	sp, sp, #12
 434              	.LCFI9:
 435              		.cfi_def_cfa_offset 16
 436 0004 00AF     		add	r7, sp, #0
 437              	.LCFI10:
 438              		.cfi_def_cfa_register 7
 439 0006 7860     		str	r0, [r7, #4]
 230:libs/STM32F30x_StdPeriph_Driver/src/stm32f30x_exti.c ****   /* Check the parameters */
 231:libs/STM32F30x_StdPeriph_Driver/src/stm32f30x_exti.c ****   //assert_param(IS_EXTI_LINE_EXT(EXTI_Line));
 232:libs/STM32F30x_StdPeriph_Driver/src/stm32f30x_exti.c **** 
 233:libs/STM32F30x_StdPeriph_Driver/src/stm32f30x_exti.c ****   *(__IO uint32_t *) (((uint32_t) &(EXTI->SWIER)) + ((EXTI_Line) >> 5 ) * 0x20) |= (uint32_t)(1 << 
 440              		.loc 1 233 0
 441 0008 7B68     		ldr	r3, [r7, #4]
 442 000a 4FEA5313 		lsr	r3, r3, #5
 443 000e 4FEA4312 		lsl	r2, r3, #5
 444 0012 0C4B     		ldr	r3, .L12
 445 0014 D318     		adds	r3, r2, r3
 446 0016 1A46     		mov	r2, r3
 447 0018 7B68     		ldr	r3, [r7, #4]
 448 001a 4FEA5313 		lsr	r3, r3, #5
 449 001e 4FEA4311 		lsl	r1, r3, #5
 450 0022 084B     		ldr	r3, .L12
 451 0024 CB18     		adds	r3, r1, r3
 452 0026 1968     		ldr	r1, [r3, #0]
 453 0028 7B68     		ldr	r3, [r7, #4]
 454 002a 03F01F03 		and	r3, r3, #31
 455 002e 4FF00100 		mov	r0, #1
 456 0032 00FA03F3 		lsl	r3, r0, r3
 457 0036 0B43     		orrs	r3, r3, r1
 458 0038 1360     		str	r3, [r2, #0]
 234:libs/STM32F30x_StdPeriph_Driver/src/stm32f30x_exti.c **** 
 235:libs/STM32F30x_StdPeriph_Driver/src/stm32f30x_exti.c **** }
 459              		.loc 1 235 0
 460 003a 07F10C07 		add	r7, r7, #12
 461 003e BD46     		mov	sp, r7
 462 0040 80BC     		pop	{r7}
 463 0042 7047     		bx	lr
 464              	.L13:
 465              		.align	2
 466              	.L12:
 467 0044 10040140 		.word	1073808400
 468              		.cfi_endproc
 469              	.LFE113:
 471              		.section	.text.EXTI_GetFlagStatus,"ax",%progbits
 472              		.align	2
 473              		.global	EXTI_GetFlagStatus
 474              		.thumb
 475              		.thumb_func
 477              	EXTI_GetFlagStatus:
 478              	.LFB114:
 236:libs/STM32F30x_StdPeriph_Driver/src/stm32f30x_exti.c **** 
 237:libs/STM32F30x_StdPeriph_Driver/src/stm32f30x_exti.c **** /**
 238:libs/STM32F30x_StdPeriph_Driver/src/stm32f30x_exti.c ****   * @}
 239:libs/STM32F30x_StdPeriph_Driver/src/stm32f30x_exti.c ****   */
 240:libs/STM32F30x_StdPeriph_Driver/src/stm32f30x_exti.c ****   
 241:libs/STM32F30x_StdPeriph_Driver/src/stm32f30x_exti.c **** /** @defgroup EXTI_Group2 Interrupts and flags management functions
 242:libs/STM32F30x_StdPeriph_Driver/src/stm32f30x_exti.c ****  *  @brief    EXTI Interrupts and flags management functions
 243:libs/STM32F30x_StdPeriph_Driver/src/stm32f30x_exti.c ****  *
 244:libs/STM32F30x_StdPeriph_Driver/src/stm32f30x_exti.c **** @verbatim  
 245:libs/STM32F30x_StdPeriph_Driver/src/stm32f30x_exti.c ****  ===============================================================================
 246:libs/STM32F30x_StdPeriph_Driver/src/stm32f30x_exti.c ****               ##### Interrupts and flags management functions #####
 247:libs/STM32F30x_StdPeriph_Driver/src/stm32f30x_exti.c ****  ===============================================================================
 248:libs/STM32F30x_StdPeriph_Driver/src/stm32f30x_exti.c ****     [..]
 249:libs/STM32F30x_StdPeriph_Driver/src/stm32f30x_exti.c ****     This section provides functions allowing to configure the EXTI Interrupts 
 250:libs/STM32F30x_StdPeriph_Driver/src/stm32f30x_exti.c ****     sources and check or clear the flags or pending bits status.
 251:libs/STM32F30x_StdPeriph_Driver/src/stm32f30x_exti.c ****     
 252:libs/STM32F30x_StdPeriph_Driver/src/stm32f30x_exti.c **** @endverbatim
 253:libs/STM32F30x_StdPeriph_Driver/src/stm32f30x_exti.c ****   * @{
 254:libs/STM32F30x_StdPeriph_Driver/src/stm32f30x_exti.c ****   */
 255:libs/STM32F30x_StdPeriph_Driver/src/stm32f30x_exti.c **** 
 256:libs/STM32F30x_StdPeriph_Driver/src/stm32f30x_exti.c **** /**
 257:libs/STM32F30x_StdPeriph_Driver/src/stm32f30x_exti.c ****   * @brief  Checks whether the specified EXTI line flag is set or not.
 258:libs/STM32F30x_StdPeriph_Driver/src/stm32f30x_exti.c ****   * @param  EXTI_Line: specifies the EXTI line flag to check.
 259:libs/STM32F30x_StdPeriph_Driver/src/stm32f30x_exti.c ****   *   This parameter can be any combination of EXTI_Linex where x can be (0..20).
 260:libs/STM32F30x_StdPeriph_Driver/src/stm32f30x_exti.c ****   * @retval The new state of EXTI_Line (SET or RESET).                  
 261:libs/STM32F30x_StdPeriph_Driver/src/stm32f30x_exti.c ****   */
 262:libs/STM32F30x_StdPeriph_Driver/src/stm32f30x_exti.c **** FlagStatus EXTI_GetFlagStatus(uint32_t EXTI_Line)
 263:libs/STM32F30x_StdPeriph_Driver/src/stm32f30x_exti.c **** {
 479              		.loc 1 263 0
 480              		.cfi_startproc
 481              		@ args = 0, pretend = 0, frame = 16
 482              		@ frame_needed = 1, uses_anonymous_args = 0
 483              		@ link register save eliminated.
 484 0000 80B4     		push	{r7}
 485              	.LCFI11:
 486              		.cfi_def_cfa_offset 4
 487              		.cfi_offset 7, -4
 488 0002 85B0     		sub	sp, sp, #20
 489              	.LCFI12:
 490              		.cfi_def_cfa_offset 24
 491 0004 00AF     		add	r7, sp, #0
 492              	.LCFI13:
 493              		.cfi_def_cfa_register 7
 494 0006 7860     		str	r0, [r7, #4]
 264:libs/STM32F30x_StdPeriph_Driver/src/stm32f30x_exti.c ****   FlagStatus bitstatus = RESET;
 495              		.loc 1 264 0
 496 0008 4FF00003 		mov	r3, #0
 497 000c FB73     		strb	r3, [r7, #15]
 265:libs/STM32F30x_StdPeriph_Driver/src/stm32f30x_exti.c ****   
 266:libs/STM32F30x_StdPeriph_Driver/src/stm32f30x_exti.c ****   /* Check the parameters */
 267:libs/STM32F30x_StdPeriph_Driver/src/stm32f30x_exti.c ****   //assert_param(IS_GET_EXTI_LINE(EXTI_Line));
 268:libs/STM32F30x_StdPeriph_Driver/src/stm32f30x_exti.c ****    
 269:libs/STM32F30x_StdPeriph_Driver/src/stm32f30x_exti.c ****   if ((*(__IO uint32_t *) (((uint32_t) &(EXTI->PR)) + ((EXTI_Line) >> 5 ) * 0x20)& (uint32_t)(1 << 
 498              		.loc 1 269 0
 499 000e 7B68     		ldr	r3, [r7, #4]
 500 0010 4FEA5313 		lsr	r3, r3, #5
 501 0014 4FEA4312 		lsl	r2, r3, #5
 502 0018 0D4B     		ldr	r3, .L18
 503 001a D318     		adds	r3, r2, r3
 504 001c 1A68     		ldr	r2, [r3, #0]
 505 001e 7B68     		ldr	r3, [r7, #4]
 506 0020 03F01F03 		and	r3, r3, #31
 507 0024 4FF00101 		mov	r1, #1
 508 0028 01FA03F3 		lsl	r3, r1, r3
 509 002c 1340     		ands	r3, r3, r2
 510 002e 002B     		cmp	r3, #0
 511 0030 03D0     		beq	.L15
 270:libs/STM32F30x_StdPeriph_Driver/src/stm32f30x_exti.c ****   {
 271:libs/STM32F30x_StdPeriph_Driver/src/stm32f30x_exti.c ****     bitstatus = SET;
 512              		.loc 1 271 0
 513 0032 4FF00103 		mov	r3, #1
 514 0036 FB73     		strb	r3, [r7, #15]
 515 0038 02E0     		b	.L16
 516              	.L15:
 272:libs/STM32F30x_StdPeriph_Driver/src/stm32f30x_exti.c ****   }
 273:libs/STM32F30x_StdPeriph_Driver/src/stm32f30x_exti.c ****   else
 274:libs/STM32F30x_StdPeriph_Driver/src/stm32f30x_exti.c ****   {
 275:libs/STM32F30x_StdPeriph_Driver/src/stm32f30x_exti.c ****     bitstatus = RESET;
 517              		.loc 1 275 0
 518 003a 4FF00003 		mov	r3, #0
 519 003e FB73     		strb	r3, [r7, #15]
 520              	.L16:
 276:libs/STM32F30x_StdPeriph_Driver/src/stm32f30x_exti.c ****   }
 277:libs/STM32F30x_StdPeriph_Driver/src/stm32f30x_exti.c ****   return bitstatus;
 521              		.loc 1 277 0
 522 0040 FB7B     		ldrb	r3, [r7, #15]	@ zero_extendqisi2
 278:libs/STM32F30x_StdPeriph_Driver/src/stm32f30x_exti.c **** }
 523              		.loc 1 278 0
 524 0042 1846     		mov	r0, r3
 525 0044 07F11407 		add	r7, r7, #20
 526 0048 BD46     		mov	sp, r7
 527 004a 80BC     		pop	{r7}
 528 004c 7047     		bx	lr
 529              	.L19:
 530 004e 00BF     		.align	2
 531              	.L18:
 532 0050 14040140 		.word	1073808404
 533              		.cfi_endproc
 534              	.LFE114:
 536              		.section	.text.EXTI_ClearFlag,"ax",%progbits
 537              		.align	2
 538              		.global	EXTI_ClearFlag
 539              		.thumb
 540              		.thumb_func
 542              	EXTI_ClearFlag:
 543              	.LFB115:
 279:libs/STM32F30x_StdPeriph_Driver/src/stm32f30x_exti.c **** 
 280:libs/STM32F30x_StdPeriph_Driver/src/stm32f30x_exti.c **** /**
 281:libs/STM32F30x_StdPeriph_Driver/src/stm32f30x_exti.c ****   * @brief  Clears the EXTI's line pending flags.
 282:libs/STM32F30x_StdPeriph_Driver/src/stm32f30x_exti.c ****   * @param  EXTI_Line: specifies the EXTI lines flags to clear.
 283:libs/STM32F30x_StdPeriph_Driver/src/stm32f30x_exti.c ****   *   This parameter can be any combination of EXTI_Linex where x can be (0..20).
 284:libs/STM32F30x_StdPeriph_Driver/src/stm32f30x_exti.c ****   * @retval None
 285:libs/STM32F30x_StdPeriph_Driver/src/stm32f30x_exti.c ****   */
 286:libs/STM32F30x_StdPeriph_Driver/src/stm32f30x_exti.c **** void EXTI_ClearFlag(uint32_t EXTI_Line)
 287:libs/STM32F30x_StdPeriph_Driver/src/stm32f30x_exti.c **** {
 544              		.loc 1 287 0
 545              		.cfi_startproc
 546              		@ args = 0, pretend = 0, frame = 8
 547              		@ frame_needed = 1, uses_anonymous_args = 0
 548              		@ link register save eliminated.
 549 0000 80B4     		push	{r7}
 550              	.LCFI14:
 551              		.cfi_def_cfa_offset 4
 552              		.cfi_offset 7, -4
 553 0002 83B0     		sub	sp, sp, #12
 554              	.LCFI15:
 555              		.cfi_def_cfa_offset 16
 556 0004 00AF     		add	r7, sp, #0
 557              	.LCFI16:
 558              		.cfi_def_cfa_register 7
 559 0006 7860     		str	r0, [r7, #4]
 288:libs/STM32F30x_StdPeriph_Driver/src/stm32f30x_exti.c ****   /* Check the parameters */
 289:libs/STM32F30x_StdPeriph_Driver/src/stm32f30x_exti.c ****   //assert_param(IS_EXTI_LINE_EXT(EXTI_Line));
 290:libs/STM32F30x_StdPeriph_Driver/src/stm32f30x_exti.c **** 
 291:libs/STM32F30x_StdPeriph_Driver/src/stm32f30x_exti.c ****   *(__IO uint32_t *) (((uint32_t) &(EXTI->PR)) + ((EXTI_Line) >> 5 ) * 0x20) = (1 << (EXTI_Line & 0
 560              		.loc 1 291 0
 561 0008 7B68     		ldr	r3, [r7, #4]
 562 000a 4FEA5313 		lsr	r3, r3, #5
 563 000e 4FEA4312 		lsl	r2, r3, #5
 564 0012 074B     		ldr	r3, .L21
 565 0014 D318     		adds	r3, r2, r3
 566 0016 7A68     		ldr	r2, [r7, #4]
 567 0018 02F01F02 		and	r2, r2, #31
 568 001c 4FF00101 		mov	r1, #1
 569 0020 01FA02F2 		lsl	r2, r1, r2
 570 0024 1A60     		str	r2, [r3, #0]
 292:libs/STM32F30x_StdPeriph_Driver/src/stm32f30x_exti.c **** }
 571              		.loc 1 292 0
 572 0026 07F10C07 		add	r7, r7, #12
 573 002a BD46     		mov	sp, r7
 574 002c 80BC     		pop	{r7}
 575 002e 7047     		bx	lr
 576              	.L22:
 577              		.align	2
 578              	.L21:
 579 0030 14040140 		.word	1073808404
 580              		.cfi_endproc
 581              	.LFE115:
 583              		.section	.text.EXTI_GetITStatus,"ax",%progbits
 584              		.align	2
 585              		.global	EXTI_GetITStatus
 586              		.thumb
 587              		.thumb_func
 589              	EXTI_GetITStatus:
 590              	.LFB116:
 293:libs/STM32F30x_StdPeriph_Driver/src/stm32f30x_exti.c **** 
 294:libs/STM32F30x_StdPeriph_Driver/src/stm32f30x_exti.c **** /**
 295:libs/STM32F30x_StdPeriph_Driver/src/stm32f30x_exti.c ****   * @brief  Checks whether the specified EXTI line is asserted or not.
 296:libs/STM32F30x_StdPeriph_Driver/src/stm32f30x_exti.c ****   * @param  EXTI_Line: specifies the EXTI line to check.
 297:libs/STM32F30x_StdPeriph_Driver/src/stm32f30x_exti.c ****   *   This parameter can be any combination of EXTI_Linex where x can be (0..20).
 298:libs/STM32F30x_StdPeriph_Driver/src/stm32f30x_exti.c ****   * @retval The new state of EXTI_Line (SET or RESET).
 299:libs/STM32F30x_StdPeriph_Driver/src/stm32f30x_exti.c ****   */
 300:libs/STM32F30x_StdPeriph_Driver/src/stm32f30x_exti.c **** ITStatus EXTI_GetITStatus(uint32_t EXTI_Line)
 301:libs/STM32F30x_StdPeriph_Driver/src/stm32f30x_exti.c **** {
 591              		.loc 1 301 0
 592              		.cfi_startproc
 593              		@ args = 0, pretend = 0, frame = 16
 594              		@ frame_needed = 1, uses_anonymous_args = 0
 595              		@ link register save eliminated.
 596 0000 80B4     		push	{r7}
 597              	.LCFI17:
 598              		.cfi_def_cfa_offset 4
 599              		.cfi_offset 7, -4
 600 0002 85B0     		sub	sp, sp, #20
 601              	.LCFI18:
 602              		.cfi_def_cfa_offset 24
 603 0004 00AF     		add	r7, sp, #0
 604              	.LCFI19:
 605              		.cfi_def_cfa_register 7
 606 0006 7860     		str	r0, [r7, #4]
 302:libs/STM32F30x_StdPeriph_Driver/src/stm32f30x_exti.c ****   ITStatus bitstatus = RESET;
 607              		.loc 1 302 0
 608 0008 4FF00003 		mov	r3, #0
 609 000c FB73     		strb	r3, [r7, #15]
 303:libs/STM32F30x_StdPeriph_Driver/src/stm32f30x_exti.c ****   uint32_t enablestatus = 0;
 610              		.loc 1 303 0
 611 000e 4FF00003 		mov	r3, #0
 612 0012 BB60     		str	r3, [r7, #8]
 304:libs/STM32F30x_StdPeriph_Driver/src/stm32f30x_exti.c ****   
 305:libs/STM32F30x_StdPeriph_Driver/src/stm32f30x_exti.c ****   /* Check the parameters */
 306:libs/STM32F30x_StdPeriph_Driver/src/stm32f30x_exti.c ****   //assert_param(IS_GET_EXTI_LINE(EXTI_Line));
 307:libs/STM32F30x_StdPeriph_Driver/src/stm32f30x_exti.c ****   
 308:libs/STM32F30x_StdPeriph_Driver/src/stm32f30x_exti.c ****   enablestatus =  *(__IO uint32_t *) (((uint32_t) &(EXTI->IMR)) + ((EXTI_Line) >> 5 ) * 0x20) & (ui
 613              		.loc 1 308 0
 614 0014 7B68     		ldr	r3, [r7, #4]
 615 0016 4FEA5313 		lsr	r3, r3, #5
 616 001a 03F10073 		add	r3, r3, #33554432
 617 001e 03F50263 		add	r3, r3, #2080
 618 0022 4FEA4313 		lsl	r3, r3, #5
 619 0026 1A68     		ldr	r2, [r3, #0]
 620 0028 7B68     		ldr	r3, [r7, #4]
 621 002a 03F01F03 		and	r3, r3, #31
 622 002e 4FF00101 		mov	r1, #1
 623 0032 01FA03F3 		lsl	r3, r1, r3
 624 0036 1340     		ands	r3, r3, r2
 625 0038 BB60     		str	r3, [r7, #8]
 309:libs/STM32F30x_StdPeriph_Driver/src/stm32f30x_exti.c ****  
 310:libs/STM32F30x_StdPeriph_Driver/src/stm32f30x_exti.c ****   if ( (((*(__IO uint32_t *) (((uint32_t) &(EXTI->PR)) + (((EXTI_Line) >> 5 ) * 0x20) )) & (uint32_
 626              		.loc 1 310 0
 627 003a 7B68     		ldr	r3, [r7, #4]
 628 003c 4FEA5313 		lsr	r3, r3, #5
 629 0040 4FEA4312 		lsl	r2, r3, #5
 630 0044 0E4B     		ldr	r3, .L27
 631 0046 D318     		adds	r3, r2, r3
 632 0048 1A68     		ldr	r2, [r3, #0]
 633 004a 7B68     		ldr	r3, [r7, #4]
 634 004c 03F01F03 		and	r3, r3, #31
 635 0050 4FF00101 		mov	r1, #1
 636 0054 01FA03F3 		lsl	r3, r1, r3
 637 0058 1340     		ands	r3, r3, r2
 638 005a 002B     		cmp	r3, #0
 639 005c 06D0     		beq	.L24
 640              		.loc 1 310 0 is_stmt 0 discriminator 1
 641 005e BB68     		ldr	r3, [r7, #8]
 642 0060 002B     		cmp	r3, #0
 643 0062 03D0     		beq	.L24
 311:libs/STM32F30x_StdPeriph_Driver/src/stm32f30x_exti.c ****   {
 312:libs/STM32F30x_StdPeriph_Driver/src/stm32f30x_exti.c ****     bitstatus = SET;
 644              		.loc 1 312 0 is_stmt 1
 645 0064 4FF00103 		mov	r3, #1
 646 0068 FB73     		strb	r3, [r7, #15]
 647 006a 02E0     		b	.L25
 648              	.L24:
 313:libs/STM32F30x_StdPeriph_Driver/src/stm32f30x_exti.c ****   }
 314:libs/STM32F30x_StdPeriph_Driver/src/stm32f30x_exti.c ****   else
 315:libs/STM32F30x_StdPeriph_Driver/src/stm32f30x_exti.c ****   {
 316:libs/STM32F30x_StdPeriph_Driver/src/stm32f30x_exti.c ****     bitstatus = RESET;
 649              		.loc 1 316 0
 650 006c 4FF00003 		mov	r3, #0
 651 0070 FB73     		strb	r3, [r7, #15]
 652              	.L25:
 317:libs/STM32F30x_StdPeriph_Driver/src/stm32f30x_exti.c ****   }
 318:libs/STM32F30x_StdPeriph_Driver/src/stm32f30x_exti.c ****   return bitstatus;
 653              		.loc 1 318 0
 654 0072 FB7B     		ldrb	r3, [r7, #15]	@ zero_extendqisi2
 319:libs/STM32F30x_StdPeriph_Driver/src/stm32f30x_exti.c ****   
 320:libs/STM32F30x_StdPeriph_Driver/src/stm32f30x_exti.c **** }
 655              		.loc 1 320 0
 656 0074 1846     		mov	r0, r3
 657 0076 07F11407 		add	r7, r7, #20
 658 007a BD46     		mov	sp, r7
 659 007c 80BC     		pop	{r7}
 660 007e 7047     		bx	lr
 661              	.L28:
 662              		.align	2
 663              	.L27:
 664 0080 14040140 		.word	1073808404
 665              		.cfi_endproc
 666              	.LFE116:
 668              		.section	.text.EXTI_ClearITPendingBit,"ax",%progbits
 669              		.align	2
 670              		.global	EXTI_ClearITPendingBit
 671              		.thumb
 672              		.thumb_func
 674              	EXTI_ClearITPendingBit:
 675              	.LFB117:
 321:libs/STM32F30x_StdPeriph_Driver/src/stm32f30x_exti.c **** 
 322:libs/STM32F30x_StdPeriph_Driver/src/stm32f30x_exti.c **** /**
 323:libs/STM32F30x_StdPeriph_Driver/src/stm32f30x_exti.c ****   * @brief  Clears the EXTI's line pending bits.
 324:libs/STM32F30x_StdPeriph_Driver/src/stm32f30x_exti.c ****   * @param  EXTI_Line: specifies the EXTI lines to clear.
 325:libs/STM32F30x_StdPeriph_Driver/src/stm32f30x_exti.c ****   *   This parameter can be any combination of EXTI_Linex where x can be (0..20).
 326:libs/STM32F30x_StdPeriph_Driver/src/stm32f30x_exti.c ****   * @retval None
 327:libs/STM32F30x_StdPeriph_Driver/src/stm32f30x_exti.c ****   */
 328:libs/STM32F30x_StdPeriph_Driver/src/stm32f30x_exti.c **** void EXTI_ClearITPendingBit(uint32_t EXTI_Line)
 329:libs/STM32F30x_StdPeriph_Driver/src/stm32f30x_exti.c **** {
 676              		.loc 1 329 0
 677              		.cfi_startproc
 678              		@ args = 0, pretend = 0, frame = 8
 679              		@ frame_needed = 1, uses_anonymous_args = 0
 680              		@ link register save eliminated.
 681 0000 80B4     		push	{r7}
 682              	.LCFI20:
 683              		.cfi_def_cfa_offset 4
 684              		.cfi_offset 7, -4
 685 0002 83B0     		sub	sp, sp, #12
 686              	.LCFI21:
 687              		.cfi_def_cfa_offset 16
 688 0004 00AF     		add	r7, sp, #0
 689              	.LCFI22:
 690              		.cfi_def_cfa_register 7
 691 0006 7860     		str	r0, [r7, #4]
 330:libs/STM32F30x_StdPeriph_Driver/src/stm32f30x_exti.c ****   /* Check the parameters */
 331:libs/STM32F30x_StdPeriph_Driver/src/stm32f30x_exti.c ****   //assert_param(IS_EXTI_LINE_EXT(EXTI_Line));
 332:libs/STM32F30x_StdPeriph_Driver/src/stm32f30x_exti.c ****   
 333:libs/STM32F30x_StdPeriph_Driver/src/stm32f30x_exti.c ****   *(__IO uint32_t *) (((uint32_t) &(EXTI->PR)) + ((EXTI_Line) >> 5 ) * 0x20) = (1 << (EXTI_Line & 0
 692              		.loc 1 333 0
 693 0008 7B68     		ldr	r3, [r7, #4]
 694 000a 4FEA5313 		lsr	r3, r3, #5
 695 000e 4FEA4312 		lsl	r2, r3, #5
 696 0012 074B     		ldr	r3, .L30
 697 0014 D318     		adds	r3, r2, r3
 698 0016 7A68     		ldr	r2, [r7, #4]
 699 0018 02F01F02 		and	r2, r2, #31
 700 001c 4FF00101 		mov	r1, #1
 701 0020 01FA02F2 		lsl	r2, r1, r2
 702 0024 1A60     		str	r2, [r3, #0]
 334:libs/STM32F30x_StdPeriph_Driver/src/stm32f30x_exti.c **** }
 703              		.loc 1 334 0
 704 0026 07F10C07 		add	r7, r7, #12
 705 002a BD46     		mov	sp, r7
 706 002c 80BC     		pop	{r7}
 707 002e 7047     		bx	lr
 708              	.L31:
 709              		.align	2
 710              	.L30:
 711 0030 14040140 		.word	1073808404
 712              		.cfi_endproc
 713              	.LFE117:
 715              		.text
 716              	.Letext0:
 717              		.file 2 "/home/chaitannya/CodeSourcery/bin/../lib/gcc/arm-none-eabi/4.7.3/../../../../arm-none-eab
 718              		.file 3 "inc/stm32f30x.h"
 719              		.file 4 "libs/STM32F30x_StdPeriph_Driver/inc/stm32f30x_exti.h"
 720              		.file 5 "inc/core_cm4.h"