   1              		.syntax unified
   2              		.cpu cortex-m3
   3              		.eabi_attribute 27, 3
   4              		.fpu fpv4-sp-d16
   5              		.eabi_attribute 20, 1
   6              		.eabi_attribute 21, 1
   7              		.eabi_attribute 23, 3
   8              		.eabi_attribute 24, 1
   9              		.eabi_attribute 25, 1
  10              		.eabi_attribute 26, 1
  11              		.eabi_attribute 30, 6
  12              		.eabi_attribute 34, 1
  13              		.eabi_attribute 18, 4
  14              		.thumb
  15              		.file	"stm32f30x_usart.c"
  16              		.text
  17              	.Ltext0:
  18              		.cfi_sections	.debug_frame
  19              		.section	.text.USART_DeInit,"ax",%progbits
  20              		.align	2
  21              		.global	USART_DeInit
  22              		.thumb
  23              		.thumb_func
  25              	USART_DeInit:
  26              	.LFB110:
  27              		.file 1 "libs/STM32F30x_StdPeriph_Driver/src/stm32f30x_usart.c"
   1:libs/STM32F30x_StdPeriph_Driver/src/stm32f30x_usart.c **** /**
   2:libs/STM32F30x_StdPeriph_Driver/src/stm32f30x_usart.c ****   ******************************************************************************
   3:libs/STM32F30x_StdPeriph_Driver/src/stm32f30x_usart.c ****   * @file    stm32f30x_usart.c
   4:libs/STM32F30x_StdPeriph_Driver/src/stm32f30x_usart.c ****   * @author  MCD Application Team
   5:libs/STM32F30x_StdPeriph_Driver/src/stm32f30x_usart.c ****   * @version V1.0.1
   6:libs/STM32F30x_StdPeriph_Driver/src/stm32f30x_usart.c ****   * @date    23-October-2012
   7:libs/STM32F30x_StdPeriph_Driver/src/stm32f30x_usart.c ****   * @brief   This file provides firmware functions to manage the following
   8:libs/STM32F30x_StdPeriph_Driver/src/stm32f30x_usart.c ****   *          functionalities of the Universal synchronous asynchronous receiver
   9:libs/STM32F30x_StdPeriph_Driver/src/stm32f30x_usart.c ****   *          transmitter (USART):
  10:libs/STM32F30x_StdPeriph_Driver/src/stm32f30x_usart.c ****   *           + Initialization and Configuration
  11:libs/STM32F30x_StdPeriph_Driver/src/stm32f30x_usart.c ****   *           + STOP Mode
  12:libs/STM32F30x_StdPeriph_Driver/src/stm32f30x_usart.c ****   *           + AutoBaudRate
  13:libs/STM32F30x_StdPeriph_Driver/src/stm32f30x_usart.c ****   *           + Data transfers
  14:libs/STM32F30x_StdPeriph_Driver/src/stm32f30x_usart.c ****   *           + Multi-Processor Communication
  15:libs/STM32F30x_StdPeriph_Driver/src/stm32f30x_usart.c ****   *           + LIN mode
  16:libs/STM32F30x_StdPeriph_Driver/src/stm32f30x_usart.c ****   *           + Half-duplex mode
  17:libs/STM32F30x_StdPeriph_Driver/src/stm32f30x_usart.c ****   *           + Smartcard mode
  18:libs/STM32F30x_StdPeriph_Driver/src/stm32f30x_usart.c ****   *           + IrDA mode
  19:libs/STM32F30x_StdPeriph_Driver/src/stm32f30x_usart.c ****   *           + RS485 mode  
  20:libs/STM32F30x_StdPeriph_Driver/src/stm32f30x_usart.c ****   *           + DMA transfers management
  21:libs/STM32F30x_StdPeriph_Driver/src/stm32f30x_usart.c ****   *           + Interrupts and flags management
  22:libs/STM32F30x_StdPeriph_Driver/src/stm32f30x_usart.c ****   *           
  23:libs/STM32F30x_StdPeriph_Driver/src/stm32f30x_usart.c ****   *  @verbatim  
  24:libs/STM32F30x_StdPeriph_Driver/src/stm32f30x_usart.c ****  ===============================================================================
  25:libs/STM32F30x_StdPeriph_Driver/src/stm32f30x_usart.c ****                       ##### How to use this driver #####
  26:libs/STM32F30x_StdPeriph_Driver/src/stm32f30x_usart.c ****  ===============================================================================
  27:libs/STM32F30x_StdPeriph_Driver/src/stm32f30x_usart.c ****       [..]
  28:libs/STM32F30x_StdPeriph_Driver/src/stm32f30x_usart.c ****           (#) Enable peripheral clock using RCC_APB2PeriphClockCmd(RCC_APB2Periph_USART1, ENABLE)
  29:libs/STM32F30x_StdPeriph_Driver/src/stm32f30x_usart.c ****              function for USART1 or using RCC_APB1PeriphClockCmd(RCC_APB1Periph_USARTx, ENABLE)
  30:libs/STM32F30x_StdPeriph_Driver/src/stm32f30x_usart.c ****              function for USART2, USART3, UART4 and UART5.
  31:libs/STM32F30x_StdPeriph_Driver/src/stm32f30x_usart.c ****           (#)  According to the USART mode, enable the GPIO clocks using
  32:libs/STM32F30x_StdPeriph_Driver/src/stm32f30x_usart.c ****               RCC_AHBPeriphClockCmd() function. (The I/O can be TX, RX, CTS,
  33:libs/STM32F30x_StdPeriph_Driver/src/stm32f30x_usart.c ****               or and SCLK).
  34:libs/STM32F30x_StdPeriph_Driver/src/stm32f30x_usart.c ****           (#) Peripheral's alternate function:
  35:libs/STM32F30x_StdPeriph_Driver/src/stm32f30x_usart.c ****               (++) Connect the pin to the desired peripherals' Alternate
  36:libs/STM32F30x_StdPeriph_Driver/src/stm32f30x_usart.c ****                    Function (AF) using GPIO_PinAFConfig() function.
  37:libs/STM32F30x_StdPeriph_Driver/src/stm32f30x_usart.c ****               (++) Configure the desired pin in alternate function by:
  38:libs/STM32F30x_StdPeriph_Driver/src/stm32f30x_usart.c ****                    GPIO_InitStruct->GPIO_Mode = GPIO_Mode_AF.
  39:libs/STM32F30x_StdPeriph_Driver/src/stm32f30x_usart.c ****               (++) Select the type, pull-up/pull-down and output speed via
  40:libs/STM32F30x_StdPeriph_Driver/src/stm32f30x_usart.c ****                    GPIO_PuPd, GPIO_OType and GPIO_Speed members.
  41:libs/STM32F30x_StdPeriph_Driver/src/stm32f30x_usart.c ****               (++) Call GPIO_Init() function.
  42:libs/STM32F30x_StdPeriph_Driver/src/stm32f30x_usart.c ****           (#) Program the Baud Rate, Word Length , Stop Bit, Parity, Hardware
  43:libs/STM32F30x_StdPeriph_Driver/src/stm32f30x_usart.c ****              flow control and Mode(Receiver/Transmitter) using the SPI_Init()
  44:libs/STM32F30x_StdPeriph_Driver/src/stm32f30x_usart.c ****              function.
  45:libs/STM32F30x_StdPeriph_Driver/src/stm32f30x_usart.c ****           (#) For synchronous mode, enable the clock and program the polarity,
  46:libs/STM32F30x_StdPeriph_Driver/src/stm32f30x_usart.c ****              phase and last bit using the USART_ClockInit() function.
  47:libs/STM32F30x_StdPeriph_Driver/src/stm32f30x_usart.c ****           (#) Enable the NVIC and the corresponding interrupt using the function
  48:libs/STM32F30x_StdPeriph_Driver/src/stm32f30x_usart.c ****              USART_ITConfig() if you need to use interrupt mode.
  49:libs/STM32F30x_StdPeriph_Driver/src/stm32f30x_usart.c ****           (#) When using the DMA mode:
  50:libs/STM32F30x_StdPeriph_Driver/src/stm32f30x_usart.c ****               (++) Configure the DMA using DMA_Init() function.
  51:libs/STM32F30x_StdPeriph_Driver/src/stm32f30x_usart.c ****               (++) Active the needed channel Request using USART_DMACmd() function.
  52:libs/STM32F30x_StdPeriph_Driver/src/stm32f30x_usart.c ****           (#) Enable the USART using the USART_Cmd() function.
  53:libs/STM32F30x_StdPeriph_Driver/src/stm32f30x_usart.c ****           (#) Enable the DMA using the DMA_Cmd() function, when using DMA mode.
  54:libs/STM32F30x_StdPeriph_Driver/src/stm32f30x_usart.c ****       [..]
  55:libs/STM32F30x_StdPeriph_Driver/src/stm32f30x_usart.c ****               Refer to Multi-Processor, LIN, half-duplex, Smartcard, IrDA sub-sections
  56:libs/STM32F30x_StdPeriph_Driver/src/stm32f30x_usart.c ****               for more details.
  57:libs/STM32F30x_StdPeriph_Driver/src/stm32f30x_usart.c **** 
  58:libs/STM32F30x_StdPeriph_Driver/src/stm32f30x_usart.c ****    @endverbatim
  59:libs/STM32F30x_StdPeriph_Driver/src/stm32f30x_usart.c **** 
  60:libs/STM32F30x_StdPeriph_Driver/src/stm32f30x_usart.c ****   ******************************************************************************
  61:libs/STM32F30x_StdPeriph_Driver/src/stm32f30x_usart.c ****   * @attention
  62:libs/STM32F30x_StdPeriph_Driver/src/stm32f30x_usart.c ****   *
  63:libs/STM32F30x_StdPeriph_Driver/src/stm32f30x_usart.c ****   * <h2><center>&copy; COPYRIGHT 2012 STMicroelectronics</center></h2>
  64:libs/STM32F30x_StdPeriph_Driver/src/stm32f30x_usart.c ****   *
  65:libs/STM32F30x_StdPeriph_Driver/src/stm32f30x_usart.c ****   * Licensed under MCD-ST Liberty SW License Agreement V2, (the "License");
  66:libs/STM32F30x_StdPeriph_Driver/src/stm32f30x_usart.c ****   * You may not use this file except in compliance with the License.
  67:libs/STM32F30x_StdPeriph_Driver/src/stm32f30x_usart.c ****   * You may obtain a copy of the License at:
  68:libs/STM32F30x_StdPeriph_Driver/src/stm32f30x_usart.c ****   *
  69:libs/STM32F30x_StdPeriph_Driver/src/stm32f30x_usart.c ****   *        http://www.st.com/software_license_agreement_liberty_v2
  70:libs/STM32F30x_StdPeriph_Driver/src/stm32f30x_usart.c ****   *
  71:libs/STM32F30x_StdPeriph_Driver/src/stm32f30x_usart.c ****   * Unless required by applicable law or agreed to in writing, software 
  72:libs/STM32F30x_StdPeriph_Driver/src/stm32f30x_usart.c ****   * distributed under the License is distributed on an "AS IS" BASIS, 
  73:libs/STM32F30x_StdPeriph_Driver/src/stm32f30x_usart.c ****   * WITHOUT WARRANTIES OR CONDITIONS OF ANY KIND, either express or implied.
  74:libs/STM32F30x_StdPeriph_Driver/src/stm32f30x_usart.c ****   * See the License for the specific language governing permissions and
  75:libs/STM32F30x_StdPeriph_Driver/src/stm32f30x_usart.c ****   * limitations under the License.
  76:libs/STM32F30x_StdPeriph_Driver/src/stm32f30x_usart.c ****   *
  77:libs/STM32F30x_StdPeriph_Driver/src/stm32f30x_usart.c ****   ******************************************************************************
  78:libs/STM32F30x_StdPeriph_Driver/src/stm32f30x_usart.c ****   */
  79:libs/STM32F30x_StdPeriph_Driver/src/stm32f30x_usart.c **** 
  80:libs/STM32F30x_StdPeriph_Driver/src/stm32f30x_usart.c **** /* Includes ------------------------------------------------------------------*/
  81:libs/STM32F30x_StdPeriph_Driver/src/stm32f30x_usart.c **** #include "stm32f30x_usart.h"
  82:libs/STM32F30x_StdPeriph_Driver/src/stm32f30x_usart.c **** #include "stm32f30x_rcc.h"
  83:libs/STM32F30x_StdPeriph_Driver/src/stm32f30x_usart.c **** 
  84:libs/STM32F30x_StdPeriph_Driver/src/stm32f30x_usart.c **** /** @addtogroup STM32F30x_StdPeriph_Driver
  85:libs/STM32F30x_StdPeriph_Driver/src/stm32f30x_usart.c ****   * @{
  86:libs/STM32F30x_StdPeriph_Driver/src/stm32f30x_usart.c ****   */
  87:libs/STM32F30x_StdPeriph_Driver/src/stm32f30x_usart.c **** 
  88:libs/STM32F30x_StdPeriph_Driver/src/stm32f30x_usart.c **** /** @defgroup USART 
  89:libs/STM32F30x_StdPeriph_Driver/src/stm32f30x_usart.c ****   * @brief USART driver modules
  90:libs/STM32F30x_StdPeriph_Driver/src/stm32f30x_usart.c ****   * @{
  91:libs/STM32F30x_StdPeriph_Driver/src/stm32f30x_usart.c ****   */
  92:libs/STM32F30x_StdPeriph_Driver/src/stm32f30x_usart.c **** 
  93:libs/STM32F30x_StdPeriph_Driver/src/stm32f30x_usart.c **** /* Private typedef -----------------------------------------------------------*/
  94:libs/STM32F30x_StdPeriph_Driver/src/stm32f30x_usart.c **** /* Private define ------------------------------------------------------------*/
  95:libs/STM32F30x_StdPeriph_Driver/src/stm32f30x_usart.c **** 
  96:libs/STM32F30x_StdPeriph_Driver/src/stm32f30x_usart.c **** /*!< USART CR1 register clear Mask ((~(uint32_t)0xFFFFE6F3)) */
  97:libs/STM32F30x_StdPeriph_Driver/src/stm32f30x_usart.c **** #define CR1_CLEAR_MASK            ((uint32_t)(USART_CR1_M | USART_CR1_PCE | \
  98:libs/STM32F30x_StdPeriph_Driver/src/stm32f30x_usart.c ****                                               USART_CR1_PS | USART_CR1_TE | \
  99:libs/STM32F30x_StdPeriph_Driver/src/stm32f30x_usart.c ****                                               USART_CR1_RE))
 100:libs/STM32F30x_StdPeriph_Driver/src/stm32f30x_usart.c **** 
 101:libs/STM32F30x_StdPeriph_Driver/src/stm32f30x_usart.c **** /*!< USART CR2 register clock bits clear Mask ((~(uint32_t)0xFFFFF0FF)) */
 102:libs/STM32F30x_StdPeriph_Driver/src/stm32f30x_usart.c **** #define CR2_CLOCK_CLEAR_MASK      ((uint32_t)(USART_CR2_CLKEN | USART_CR2_CPOL | \
 103:libs/STM32F30x_StdPeriph_Driver/src/stm32f30x_usart.c ****                                               USART_CR2_CPHA | USART_CR2_LBCL))
 104:libs/STM32F30x_StdPeriph_Driver/src/stm32f30x_usart.c **** 
 105:libs/STM32F30x_StdPeriph_Driver/src/stm32f30x_usart.c **** /*!< USART CR3 register clear Mask ((~(uint32_t)0xFFFFFCFF)) */
 106:libs/STM32F30x_StdPeriph_Driver/src/stm32f30x_usart.c **** #define CR3_CLEAR_MASK            ((uint32_t)(USART_CR3_RTSE | USART_CR3_CTSE))
 107:libs/STM32F30x_StdPeriph_Driver/src/stm32f30x_usart.c **** 
 108:libs/STM32F30x_StdPeriph_Driver/src/stm32f30x_usart.c **** /*!< USART Interrupts mask */
 109:libs/STM32F30x_StdPeriph_Driver/src/stm32f30x_usart.c **** #define IT_MASK                   ((uint32_t)0x000000FF)
 110:libs/STM32F30x_StdPeriph_Driver/src/stm32f30x_usart.c **** 
 111:libs/STM32F30x_StdPeriph_Driver/src/stm32f30x_usart.c **** /* Private macro -------------------------------------------------------------*/
 112:libs/STM32F30x_StdPeriph_Driver/src/stm32f30x_usart.c **** /* Private variables ---------------------------------------------------------*/
 113:libs/STM32F30x_StdPeriph_Driver/src/stm32f30x_usart.c **** /* Private function prototypes -----------------------------------------------*/
 114:libs/STM32F30x_StdPeriph_Driver/src/stm32f30x_usart.c **** /* Private functions ---------------------------------------------------------*/
 115:libs/STM32F30x_StdPeriph_Driver/src/stm32f30x_usart.c **** 
 116:libs/STM32F30x_StdPeriph_Driver/src/stm32f30x_usart.c **** /** @defgroup USART_Private_Functions
 117:libs/STM32F30x_StdPeriph_Driver/src/stm32f30x_usart.c ****   * @{
 118:libs/STM32F30x_StdPeriph_Driver/src/stm32f30x_usart.c ****   */
 119:libs/STM32F30x_StdPeriph_Driver/src/stm32f30x_usart.c **** 
 120:libs/STM32F30x_StdPeriph_Driver/src/stm32f30x_usart.c **** /** @defgroup USART_Group1 Initialization and Configuration functions
 121:libs/STM32F30x_StdPeriph_Driver/src/stm32f30x_usart.c ****  *  @brief   Initialization and Configuration functions 
 122:libs/STM32F30x_StdPeriph_Driver/src/stm32f30x_usart.c ****  *
 123:libs/STM32F30x_StdPeriph_Driver/src/stm32f30x_usart.c **** @verbatim 
 124:libs/STM32F30x_StdPeriph_Driver/src/stm32f30x_usart.c ****  ===============================================================================
 125:libs/STM32F30x_StdPeriph_Driver/src/stm32f30x_usart.c ****            ##### Initialization and Configuration functions #####
 126:libs/STM32F30x_StdPeriph_Driver/src/stm32f30x_usart.c ****  ===============================================================================  
 127:libs/STM32F30x_StdPeriph_Driver/src/stm32f30x_usart.c ****   [..]
 128:libs/STM32F30x_StdPeriph_Driver/src/stm32f30x_usart.c ****       This subsection provides a set of functions allowing to initialize the USART 
 129:libs/STM32F30x_StdPeriph_Driver/src/stm32f30x_usart.c ****       in asynchronous and in synchronous modes.
 130:libs/STM32F30x_StdPeriph_Driver/src/stm32f30x_usart.c ****        (+) For the asynchronous mode only these parameters can be configured: 
 131:libs/STM32F30x_StdPeriph_Driver/src/stm32f30x_usart.c ****             (++) Baud Rate.
 132:libs/STM32F30x_StdPeriph_Driver/src/stm32f30x_usart.c ****             (++) Word Length. 
 133:libs/STM32F30x_StdPeriph_Driver/src/stm32f30x_usart.c ****             (++) Stop Bit.
 134:libs/STM32F30x_StdPeriph_Driver/src/stm32f30x_usart.c ****             (++) Parity: If the parity is enabled, then the MSB bit of the data written
 135:libs/STM32F30x_StdPeriph_Driver/src/stm32f30x_usart.c ****                  in the data register is transmitted but is changed by the parity bit.
 136:libs/STM32F30x_StdPeriph_Driver/src/stm32f30x_usart.c ****                  Depending on the frame length defined by the M bit (8-bits or 9-bits),
 137:libs/STM32F30x_StdPeriph_Driver/src/stm32f30x_usart.c ****                  the possible USART frame formats are as listed in the following table:
 138:libs/STM32F30x_StdPeriph_Driver/src/stm32f30x_usart.c ****     [..]
 139:libs/STM32F30x_StdPeriph_Driver/src/stm32f30x_usart.c ****    +-------------------------------------------------------------+     
 140:libs/STM32F30x_StdPeriph_Driver/src/stm32f30x_usart.c ****    |   M bit |  PCE bit  |            USART frame                |
 141:libs/STM32F30x_StdPeriph_Driver/src/stm32f30x_usart.c ****    |---------------------|---------------------------------------|             
 142:libs/STM32F30x_StdPeriph_Driver/src/stm32f30x_usart.c ****    |    0    |    0      |    | SB | 8 bit data | STB |          |
 143:libs/STM32F30x_StdPeriph_Driver/src/stm32f30x_usart.c ****    |---------|-----------|---------------------------------------|  
 144:libs/STM32F30x_StdPeriph_Driver/src/stm32f30x_usart.c ****    |    0    |    1      |    | SB | 7 bit data | PB | STB |     |
 145:libs/STM32F30x_StdPeriph_Driver/src/stm32f30x_usart.c ****    |---------|-----------|---------------------------------------|  
 146:libs/STM32F30x_StdPeriph_Driver/src/stm32f30x_usart.c ****    |    1    |    0      |    | SB | 9 bit data | STB |          |
 147:libs/STM32F30x_StdPeriph_Driver/src/stm32f30x_usart.c ****    |---------|-----------|---------------------------------------|  
 148:libs/STM32F30x_StdPeriph_Driver/src/stm32f30x_usart.c ****    |    1    |    1      |    | SB | 8 bit data | PB | STB |     |
 149:libs/STM32F30x_StdPeriph_Driver/src/stm32f30x_usart.c ****    +-------------------------------------------------------------+            
 150:libs/STM32F30x_StdPeriph_Driver/src/stm32f30x_usart.c ****     [..]
 151:libs/STM32F30x_StdPeriph_Driver/src/stm32f30x_usart.c ****            (++) Hardware flow control.
 152:libs/STM32F30x_StdPeriph_Driver/src/stm32f30x_usart.c ****            (++) Receiver/transmitter modes.
 153:libs/STM32F30x_StdPeriph_Driver/src/stm32f30x_usart.c ****     [..] The USART_Init() function follows the USART  asynchronous configuration 
 154:libs/STM32F30x_StdPeriph_Driver/src/stm32f30x_usart.c ****          procedure(details for the procedure are available in reference manual.
 155:libs/STM32F30x_StdPeriph_Driver/src/stm32f30x_usart.c ****         (+) For the synchronous mode in addition to the asynchronous mode parameters
 156:libs/STM32F30x_StdPeriph_Driver/src/stm32f30x_usart.c ****             these parameters should be also configured:
 157:libs/STM32F30x_StdPeriph_Driver/src/stm32f30x_usart.c ****             (++) USART Clock Enabled.
 158:libs/STM32F30x_StdPeriph_Driver/src/stm32f30x_usart.c ****             (++) USART polarity.
 159:libs/STM32F30x_StdPeriph_Driver/src/stm32f30x_usart.c ****             (++) USART phase.
 160:libs/STM32F30x_StdPeriph_Driver/src/stm32f30x_usart.c ****             (++) USART LastBit.
 161:libs/STM32F30x_StdPeriph_Driver/src/stm32f30x_usart.c ****     [..] These parameters can be configured using the USART_ClockInit() function.
 162:libs/STM32F30x_StdPeriph_Driver/src/stm32f30x_usart.c **** 
 163:libs/STM32F30x_StdPeriph_Driver/src/stm32f30x_usart.c **** @endverbatim
 164:libs/STM32F30x_StdPeriph_Driver/src/stm32f30x_usart.c ****   * @{
 165:libs/STM32F30x_StdPeriph_Driver/src/stm32f30x_usart.c ****   */
 166:libs/STM32F30x_StdPeriph_Driver/src/stm32f30x_usart.c ****   
 167:libs/STM32F30x_StdPeriph_Driver/src/stm32f30x_usart.c **** /**
 168:libs/STM32F30x_StdPeriph_Driver/src/stm32f30x_usart.c ****   * @brief  Deinitializes the USARTx peripheral registers to their default reset values.
 169:libs/STM32F30x_StdPeriph_Driver/src/stm32f30x_usart.c ****   * @param  USARTx: Select the USART peripheral. This parameter can be one of the 
 170:libs/STM32F30x_StdPeriph_Driver/src/stm32f30x_usart.c ****   *         following values: USART1 or USART2 or USART3 or UART4 or UART5.
 171:libs/STM32F30x_StdPeriph_Driver/src/stm32f30x_usart.c ****   * @retval None
 172:libs/STM32F30x_StdPeriph_Driver/src/stm32f30x_usart.c ****   */
 173:libs/STM32F30x_StdPeriph_Driver/src/stm32f30x_usart.c **** void USART_DeInit(USART_TypeDef* USARTx)
 174:libs/STM32F30x_StdPeriph_Driver/src/stm32f30x_usart.c **** {
  28              		.loc 1 174 0
  29              		.cfi_startproc
  30              		@ args = 0, pretend = 0, frame = 8
  31              		@ frame_needed = 1, uses_anonymous_args = 0
  32 0000 80B5     		push	{r7, lr}
  33              	.LCFI0:
  34              		.cfi_def_cfa_offset 8
  35              		.cfi_offset 7, -8
  36              		.cfi_offset 14, -4
  37 0002 82B0     		sub	sp, sp, #8
  38              	.LCFI1:
  39              		.cfi_def_cfa_offset 16
  40 0004 00AF     		add	r7, sp, #0
  41              	.LCFI2:
  42              		.cfi_def_cfa_register 7
  43 0006 7860     		str	r0, [r7, #4]
 175:libs/STM32F30x_StdPeriph_Driver/src/stm32f30x_usart.c ****   /* Check the parameters */
 176:libs/STM32F30x_StdPeriph_Driver/src/stm32f30x_usart.c ****   assert_param(IS_USART_ALL_PERIPH(USARTx));
  44              		.loc 1 176 0
  45 0008 7A68     		ldr	r2, [r7, #4]
  46 000a 394B     		ldr	r3, .L10
  47 000c 9A42     		cmp	r2, r3
  48 000e 0FD0     		beq	.L2
  49              		.loc 1 176 0 is_stmt 0 discriminator 2
  50 0010 7A68     		ldr	r2, [r7, #4]
  51 0012 384B     		ldr	r3, .L10+4
  52 0014 9A42     		cmp	r2, r3
  53 0016 0BD0     		beq	.L2
  54              		.loc 1 176 0 discriminator 1
  55 0018 7A68     		ldr	r2, [r7, #4]
  56 001a 374B     		ldr	r3, .L10+8
  57 001c 9A42     		cmp	r2, r3
  58 001e 07D0     		beq	.L2
  59              		.loc 1 176 0 discriminator 2
  60 0020 7A68     		ldr	r2, [r7, #4]
  61 0022 364B     		ldr	r3, .L10+12
  62 0024 9A42     		cmp	r2, r3
  63 0026 03D0     		beq	.L2
  64              		.loc 1 176 0 discriminator 3
  65 0028 7A68     		ldr	r2, [r7, #4]
  66 002a 354B     		ldr	r3, .L10+16
  67 002c 9A42     		cmp	r2, r3
  68 002e 02D1     		bne	.L3
  69              	.L2:
  70              		.loc 1 176 0 discriminator 1
  71 0030 4FF00103 		mov	r3, #1
  72 0034 01E0     		b	.L4
  73              	.L3:
  74              		.loc 1 176 0 discriminator 3
  75 0036 4FF00003 		mov	r3, #0
  76              	.L4:
  77              		.loc 1 176 0 discriminator 4
  78 003a 1846     		mov	r0, r3
  79 003c FFF7FEFF 		bl	assert_param
 177:libs/STM32F30x_StdPeriph_Driver/src/stm32f30x_usart.c **** 
 178:libs/STM32F30x_StdPeriph_Driver/src/stm32f30x_usart.c ****   if (USARTx == USART1)
  80              		.loc 1 178 0 is_stmt 1 discriminator 4
  81 0040 7A68     		ldr	r2, [r7, #4]
  82 0042 2B4B     		ldr	r3, .L10
  83 0044 9A42     		cmp	r2, r3
  84 0046 0CD1     		bne	.L5
 179:libs/STM32F30x_StdPeriph_Driver/src/stm32f30x_usart.c ****   {
 180:libs/STM32F30x_StdPeriph_Driver/src/stm32f30x_usart.c ****     RCC_APB2PeriphResetCmd(RCC_APB2Periph_USART1, ENABLE);
  85              		.loc 1 180 0
  86 0048 4FF48040 		mov	r0, #16384
  87 004c 4FF00101 		mov	r1, #1
  88 0050 FFF7FEFF 		bl	RCC_APB2PeriphResetCmd
 181:libs/STM32F30x_StdPeriph_Driver/src/stm32f30x_usart.c ****     RCC_APB2PeriphResetCmd(RCC_APB2Periph_USART1, DISABLE);
  89              		.loc 1 181 0
  90 0054 4FF48040 		mov	r0, #16384
  91 0058 4FF00001 		mov	r1, #0
  92 005c FFF7FEFF 		bl	RCC_APB2PeriphResetCmd
  93 0060 42E0     		b	.L1
  94              	.L5:
 182:libs/STM32F30x_StdPeriph_Driver/src/stm32f30x_usart.c ****   }
 183:libs/STM32F30x_StdPeriph_Driver/src/stm32f30x_usart.c ****   else if (USARTx == USART2)
  95              		.loc 1 183 0
  96 0062 7A68     		ldr	r2, [r7, #4]
  97 0064 234B     		ldr	r3, .L10+4
  98 0066 9A42     		cmp	r2, r3
  99 0068 0CD1     		bne	.L7
 184:libs/STM32F30x_StdPeriph_Driver/src/stm32f30x_usart.c ****   {
 185:libs/STM32F30x_StdPeriph_Driver/src/stm32f30x_usart.c ****     RCC_APB1PeriphResetCmd(RCC_APB1Periph_USART2, ENABLE);
 100              		.loc 1 185 0
 101 006a 4FF40030 		mov	r0, #131072
 102 006e 4FF00101 		mov	r1, #1
 103 0072 FFF7FEFF 		bl	RCC_APB1PeriphResetCmd
 186:libs/STM32F30x_StdPeriph_Driver/src/stm32f30x_usart.c ****     RCC_APB1PeriphResetCmd(RCC_APB1Periph_USART2, DISABLE);
 104              		.loc 1 186 0
 105 0076 4FF40030 		mov	r0, #131072
 106 007a 4FF00001 		mov	r1, #0
 107 007e FFF7FEFF 		bl	RCC_APB1PeriphResetCmd
 108 0082 31E0     		b	.L1
 109              	.L7:
 187:libs/STM32F30x_StdPeriph_Driver/src/stm32f30x_usart.c ****   }
 188:libs/STM32F30x_StdPeriph_Driver/src/stm32f30x_usart.c ****   else if (USARTx == USART3)
 110              		.loc 1 188 0
 111 0084 7A68     		ldr	r2, [r7, #4]
 112 0086 1C4B     		ldr	r3, .L10+8
 113 0088 9A42     		cmp	r2, r3
 114 008a 0CD1     		bne	.L8
 189:libs/STM32F30x_StdPeriph_Driver/src/stm32f30x_usart.c ****   {
 190:libs/STM32F30x_StdPeriph_Driver/src/stm32f30x_usart.c ****     RCC_APB1PeriphResetCmd(RCC_APB1Periph_USART3, ENABLE);
 115              		.loc 1 190 0
 116 008c 4FF48020 		mov	r0, #262144
 117 0090 4FF00101 		mov	r1, #1
 118 0094 FFF7FEFF 		bl	RCC_APB1PeriphResetCmd
 191:libs/STM32F30x_StdPeriph_Driver/src/stm32f30x_usart.c ****     RCC_APB1PeriphResetCmd(RCC_APB1Periph_USART3, DISABLE);
 119              		.loc 1 191 0
 120 0098 4FF48020 		mov	r0, #262144
 121 009c 4FF00001 		mov	r1, #0
 122 00a0 FFF7FEFF 		bl	RCC_APB1PeriphResetCmd
 123 00a4 20E0     		b	.L1
 124              	.L8:
 192:libs/STM32F30x_StdPeriph_Driver/src/stm32f30x_usart.c ****   }
 193:libs/STM32F30x_StdPeriph_Driver/src/stm32f30x_usart.c ****   else if (USARTx == UART4)
 125              		.loc 1 193 0
 126 00a6 7A68     		ldr	r2, [r7, #4]
 127 00a8 144B     		ldr	r3, .L10+12
 128 00aa 9A42     		cmp	r2, r3
 129 00ac 0CD1     		bne	.L9
 194:libs/STM32F30x_StdPeriph_Driver/src/stm32f30x_usart.c ****   {
 195:libs/STM32F30x_StdPeriph_Driver/src/stm32f30x_usart.c ****     RCC_APB1PeriphResetCmd(RCC_APB1Periph_UART4, ENABLE);
 130              		.loc 1 195 0
 131 00ae 4FF40020 		mov	r0, #524288
 132 00b2 4FF00101 		mov	r1, #1
 133 00b6 FFF7FEFF 		bl	RCC_APB1PeriphResetCmd
 196:libs/STM32F30x_StdPeriph_Driver/src/stm32f30x_usart.c ****     RCC_APB1PeriphResetCmd(RCC_APB1Periph_UART4, DISABLE);
 134              		.loc 1 196 0
 135 00ba 4FF40020 		mov	r0, #524288
 136 00be 4FF00001 		mov	r1, #0
 137 00c2 FFF7FEFF 		bl	RCC_APB1PeriphResetCmd
 138 00c6 0FE0     		b	.L1
 139              	.L9:
 197:libs/STM32F30x_StdPeriph_Driver/src/stm32f30x_usart.c ****   }
 198:libs/STM32F30x_StdPeriph_Driver/src/stm32f30x_usart.c ****   else
 199:libs/STM32F30x_StdPeriph_Driver/src/stm32f30x_usart.c ****   {
 200:libs/STM32F30x_StdPeriph_Driver/src/stm32f30x_usart.c ****     if  (USARTx == UART5)
 140              		.loc 1 200 0
 141 00c8 7A68     		ldr	r2, [r7, #4]
 142 00ca 0D4B     		ldr	r3, .L10+16
 143 00cc 9A42     		cmp	r2, r3
 144 00ce 0BD1     		bne	.L1
 201:libs/STM32F30x_StdPeriph_Driver/src/stm32f30x_usart.c ****     {
 202:libs/STM32F30x_StdPeriph_Driver/src/stm32f30x_usart.c ****       RCC_APB1PeriphResetCmd(RCC_APB1Periph_UART5, ENABLE);
 145              		.loc 1 202 0
 146 00d0 4FF48010 		mov	r0, #1048576
 147 00d4 4FF00101 		mov	r1, #1
 148 00d8 FFF7FEFF 		bl	RCC_APB1PeriphResetCmd
 203:libs/STM32F30x_StdPeriph_Driver/src/stm32f30x_usart.c ****       RCC_APB1PeriphResetCmd(RCC_APB1Periph_UART5, DISABLE);
 149              		.loc 1 203 0
 150 00dc 4FF48010 		mov	r0, #1048576
 151 00e0 4FF00001 		mov	r1, #0
 152 00e4 FFF7FEFF 		bl	RCC_APB1PeriphResetCmd
 153              	.L1:
 204:libs/STM32F30x_StdPeriph_Driver/src/stm32f30x_usart.c ****     }
 205:libs/STM32F30x_StdPeriph_Driver/src/stm32f30x_usart.c ****   }
 206:libs/STM32F30x_StdPeriph_Driver/src/stm32f30x_usart.c **** }
 154              		.loc 1 206 0
 155 00e8 07F10807 		add	r7, r7, #8
 156 00ec BD46     		mov	sp, r7
 157 00ee 80BD     		pop	{r7, pc}
 158              	.L11:
 159              		.align	2
 160              	.L10:
 161 00f0 00380140 		.word	1073821696
 162 00f4 00440040 		.word	1073759232
 163 00f8 00480040 		.word	1073760256
 164 00fc 004C0040 		.word	1073761280
 165 0100 00500040 		.word	1073762304
 166              		.cfi_endproc
 167              	.LFE110:
 169              		.section	.text.USART_Init,"ax",%progbits
 170              		.align	2
 171              		.global	USART_Init
 172              		.thumb
 173              		.thumb_func
 175              	USART_Init:
 176              	.LFB111:
 207:libs/STM32F30x_StdPeriph_Driver/src/stm32f30x_usart.c **** 
 208:libs/STM32F30x_StdPeriph_Driver/src/stm32f30x_usart.c **** /**
 209:libs/STM32F30x_StdPeriph_Driver/src/stm32f30x_usart.c ****   * @brief  Initializes the USARTx peripheral according to the specified
 210:libs/STM32F30x_StdPeriph_Driver/src/stm32f30x_usart.c ****   *         parameters in the USART_InitStruct .
 211:libs/STM32F30x_StdPeriph_Driver/src/stm32f30x_usart.c ****   * @param  USARTx: Select the USART peripheral. This parameter can be one of the 
 212:libs/STM32F30x_StdPeriph_Driver/src/stm32f30x_usart.c ****   *         following values: USART1 or USART2 or USART3 or UART4 or UART5.
 213:libs/STM32F30x_StdPeriph_Driver/src/stm32f30x_usart.c ****   * @param  USART_InitStruct: pointer to a USART_InitTypeDef structure
 214:libs/STM32F30x_StdPeriph_Driver/src/stm32f30x_usart.c ****   *         that contains the configuration information for the specified USART peripheral.
 215:libs/STM32F30x_StdPeriph_Driver/src/stm32f30x_usart.c ****   * @retval None
 216:libs/STM32F30x_StdPeriph_Driver/src/stm32f30x_usart.c ****   */
 217:libs/STM32F30x_StdPeriph_Driver/src/stm32f30x_usart.c **** void USART_Init(USART_TypeDef* USARTx, USART_InitTypeDef* USART_InitStruct)
 218:libs/STM32F30x_StdPeriph_Driver/src/stm32f30x_usart.c **** {
 177              		.loc 1 218 0
 178              		.cfi_startproc
 179              		@ args = 0, pretend = 0, frame = 80
 180              		@ frame_needed = 1, uses_anonymous_args = 0
 181 0000 80B5     		push	{r7, lr}
 182              	.LCFI3:
 183              		.cfi_def_cfa_offset 8
 184              		.cfi_offset 7, -8
 185              		.cfi_offset 14, -4
 186 0002 94B0     		sub	sp, sp, #80
 187              	.LCFI4:
 188              		.cfi_def_cfa_offset 88
 189 0004 00AF     		add	r7, sp, #0
 190              	.LCFI5:
 191              		.cfi_def_cfa_register 7
 192 0006 7860     		str	r0, [r7, #4]
 193 0008 3960     		str	r1, [r7, #0]
 219:libs/STM32F30x_StdPeriph_Driver/src/stm32f30x_usart.c ****   uint32_t divider = 0, apbclock = 0, tmpreg = 0;
 194              		.loc 1 219 0
 195 000a 4FF00003 		mov	r3, #0
 196 000e FB64     		str	r3, [r7, #76]
 197 0010 4FF00003 		mov	r3, #0
 198 0014 BB64     		str	r3, [r7, #72]
 199 0016 4FF00003 		mov	r3, #0
 200 001a 7B64     		str	r3, [r7, #68]
 220:libs/STM32F30x_StdPeriph_Driver/src/stm32f30x_usart.c ****   RCC_ClocksTypeDef RCC_ClocksStatus;
 221:libs/STM32F30x_StdPeriph_Driver/src/stm32f30x_usart.c ****   
 222:libs/STM32F30x_StdPeriph_Driver/src/stm32f30x_usart.c ****   /* Check the parameters */
 223:libs/STM32F30x_StdPeriph_Driver/src/stm32f30x_usart.c ****   assert_param(IS_USART_ALL_PERIPH(USARTx));
 201              		.loc 1 223 0
 202 001c 7A68     		ldr	r2, [r7, #4]
 203 001e 874B     		ldr	r3, .L41
 204 0020 9A42     		cmp	r2, r3
 205 0022 0FD0     		beq	.L13
 206              		.loc 1 223 0 is_stmt 0 discriminator 2
 207 0024 7A68     		ldr	r2, [r7, #4]
 208 0026 864B     		ldr	r3, .L41+4
 209 0028 9A42     		cmp	r2, r3
 210 002a 0BD0     		beq	.L13
 211              		.loc 1 223 0 discriminator 1
 212 002c 7A68     		ldr	r2, [r7, #4]
 213 002e 854B     		ldr	r3, .L41+8
 214 0030 9A42     		cmp	r2, r3
 215 0032 07D0     		beq	.L13
 216              		.loc 1 223 0 discriminator 2
 217 0034 7A68     		ldr	r2, [r7, #4]
 218 0036 844B     		ldr	r3, .L41+12
 219 0038 9A42     		cmp	r2, r3
 220 003a 03D0     		beq	.L13
 221              		.loc 1 223 0 discriminator 3
 222 003c 7A68     		ldr	r2, [r7, #4]
 223 003e 834B     		ldr	r3, .L41+16
 224 0040 9A42     		cmp	r2, r3
 225 0042 02D1     		bne	.L14
 226              	.L13:
 227              		.loc 1 223 0 discriminator 1
 228 0044 4FF00103 		mov	r3, #1
 229 0048 01E0     		b	.L15
 230              	.L14:
 231              		.loc 1 223 0 discriminator 3
 232 004a 4FF00003 		mov	r3, #0
 233              	.L15:
 234              		.loc 1 223 0 discriminator 4
 235 004e 1846     		mov	r0, r3
 236 0050 FFF7FEFF 		bl	assert_param
 224:libs/STM32F30x_StdPeriph_Driver/src/stm32f30x_usart.c ****   assert_param(IS_USART_BAUDRATE(USART_InitStruct->USART_BaudRate));
 237              		.loc 1 224 0 is_stmt 1 discriminator 4
 238 0054 3B68     		ldr	r3, [r7, #0]
 239 0056 1B68     		ldr	r3, [r3, #0]
 240 0058 002B     		cmp	r3, #0
 241 005a 07D0     		beq	.L16
 242              		.loc 1 224 0 is_stmt 0 discriminator 1
 243 005c 3B68     		ldr	r3, [r7, #0]
 244 005e 1A68     		ldr	r2, [r3, #0]
 245 0060 7B4B     		ldr	r3, .L41+20
 246 0062 9A42     		cmp	r2, r3
 247 0064 02D8     		bhi	.L16
 248              		.loc 1 224 0 discriminator 3
 249 0066 4FF00103 		mov	r3, #1
 250 006a 01E0     		b	.L17
 251              	.L16:
 252              		.loc 1 224 0 discriminator 2
 253 006c 4FF00003 		mov	r3, #0
 254              	.L17:
 255              		.loc 1 224 0 discriminator 4
 256 0070 1846     		mov	r0, r3
 257 0072 FFF7FEFF 		bl	assert_param
 225:libs/STM32F30x_StdPeriph_Driver/src/stm32f30x_usart.c ****   assert_param(IS_USART_WORD_LENGTH(USART_InitStruct->USART_WordLength));
 258              		.loc 1 225 0 is_stmt 1 discriminator 4
 259 0076 3B68     		ldr	r3, [r7, #0]
 260 0078 5B68     		ldr	r3, [r3, #4]
 261 007a 002B     		cmp	r3, #0
 262 007c 04D0     		beq	.L18
 263              		.loc 1 225 0 is_stmt 0 discriminator 2
 264 007e 3B68     		ldr	r3, [r7, #0]
 265 0080 5B68     		ldr	r3, [r3, #4]
 266 0082 B3F5805F 		cmp	r3, #4096
 267 0086 02D1     		bne	.L19
 268              	.L18:
 269              		.loc 1 225 0 discriminator 1
 270 0088 4FF00103 		mov	r3, #1
 271 008c 01E0     		b	.L20
 272              	.L19:
 273              		.loc 1 225 0 discriminator 3
 274 008e 4FF00003 		mov	r3, #0
 275              	.L20:
 276              		.loc 1 225 0 discriminator 4
 277 0092 1846     		mov	r0, r3
 278 0094 FFF7FEFF 		bl	assert_param
 226:libs/STM32F30x_StdPeriph_Driver/src/stm32f30x_usart.c ****   assert_param(IS_USART_STOPBITS(USART_InitStruct->USART_StopBits));
 279              		.loc 1 226 0 is_stmt 1 discriminator 4
 280 0098 3B68     		ldr	r3, [r7, #0]
 281 009a 9B68     		ldr	r3, [r3, #8]
 282 009c 002B     		cmp	r3, #0
 283 009e 09D0     		beq	.L21
 284              		.loc 1 226 0 is_stmt 0 discriminator 2
 285 00a0 3B68     		ldr	r3, [r7, #0]
 286 00a2 9B68     		ldr	r3, [r3, #8]
 287 00a4 B3F5005F 		cmp	r3, #8192
 288 00a8 04D0     		beq	.L21
 289              		.loc 1 226 0 discriminator 1
 290 00aa 3B68     		ldr	r3, [r7, #0]
 291 00ac 9B68     		ldr	r3, [r3, #8]
 292 00ae B3F5405F 		cmp	r3, #12288
 293 00b2 02D1     		bne	.L22
 294              	.L21:
 295 00b4 4FF00103 		mov	r3, #1
 296 00b8 01E0     		b	.L23
 297              	.L22:
 298              		.loc 1 226 0 discriminator 3
 299 00ba 4FF00003 		mov	r3, #0
 300              	.L23:
 301              		.loc 1 226 0 discriminator 4
 302 00be 1846     		mov	r0, r3
 303 00c0 FFF7FEFF 		bl	assert_param
 227:libs/STM32F30x_StdPeriph_Driver/src/stm32f30x_usart.c ****   assert_param(IS_USART_PARITY(USART_InitStruct->USART_Parity));
 304              		.loc 1 227 0 is_stmt 1 discriminator 4
 305 00c4 3B68     		ldr	r3, [r7, #0]
 306 00c6 DB68     		ldr	r3, [r3, #12]
 307 00c8 002B     		cmp	r3, #0
 308 00ca 09D0     		beq	.L24
 309              		.loc 1 227 0 is_stmt 0 discriminator 2
 310 00cc 3B68     		ldr	r3, [r7, #0]
 311 00ce DB68     		ldr	r3, [r3, #12]
 312 00d0 B3F5806F 		cmp	r3, #1024
 313 00d4 04D0     		beq	.L24
 314              		.loc 1 227 0 discriminator 1
 315 00d6 3B68     		ldr	r3, [r7, #0]
 316 00d8 DB68     		ldr	r3, [r3, #12]
 317 00da B3F5C06F 		cmp	r3, #1536
 318 00de 02D1     		bne	.L25
 319              	.L24:
 320 00e0 4FF00103 		mov	r3, #1
 321 00e4 01E0     		b	.L26
 322              	.L25:
 323              		.loc 1 227 0 discriminator 3
 324 00e6 4FF00003 		mov	r3, #0
 325              	.L26:
 326              		.loc 1 227 0 discriminator 4
 327 00ea 1846     		mov	r0, r3
 328 00ec FFF7FEFF 		bl	assert_param
 228:libs/STM32F30x_StdPeriph_Driver/src/stm32f30x_usart.c ****   assert_param(IS_USART_MODE(USART_InitStruct->USART_Mode));
 329              		.loc 1 228 0 is_stmt 1 discriminator 4
 330 00f0 3B68     		ldr	r3, [r7, #0]
 331 00f2 1B69     		ldr	r3, [r3, #16]
 332 00f4 23F00C03 		bic	r3, r3, #12
 333 00f8 002B     		cmp	r3, #0
 334 00fa 06D1     		bne	.L27
 335              		.loc 1 228 0 is_stmt 0 discriminator 1
 336 00fc 3B68     		ldr	r3, [r7, #0]
 337 00fe 1B69     		ldr	r3, [r3, #16]
 338 0100 002B     		cmp	r3, #0
 339 0102 02D0     		beq	.L27
 340              		.loc 1 228 0 discriminator 3
 341 0104 4FF00103 		mov	r3, #1
 342 0108 01E0     		b	.L28
 343              	.L27:
 344              		.loc 1 228 0 discriminator 2
 345 010a 4FF00003 		mov	r3, #0
 346              	.L28:
 347              		.loc 1 228 0 discriminator 4
 348 010e 1846     		mov	r0, r3
 349 0110 FFF7FEFF 		bl	assert_param
 229:libs/STM32F30x_StdPeriph_Driver/src/stm32f30x_usart.c ****   assert_param(IS_USART_HARDWARE_FLOW_CONTROL(USART_InitStruct->USART_HardwareFlowControl));
 350              		.loc 1 229 0 is_stmt 1 discriminator 4
 351 0114 3B68     		ldr	r3, [r7, #0]
 352 0116 5B69     		ldr	r3, [r3, #20]
 353 0118 002B     		cmp	r3, #0
 354 011a 0ED0     		beq	.L29
 355              		.loc 1 229 0 is_stmt 0 discriminator 2
 356 011c 3B68     		ldr	r3, [r7, #0]
 357 011e 5B69     		ldr	r3, [r3, #20]
 358 0120 B3F5807F 		cmp	r3, #256
 359 0124 09D0     		beq	.L29
 360              		.loc 1 229 0 discriminator 1
 361 0126 3B68     		ldr	r3, [r7, #0]
 362 0128 5B69     		ldr	r3, [r3, #20]
 363 012a B3F5007F 		cmp	r3, #512
 364 012e 04D0     		beq	.L29
 365              		.loc 1 229 0 discriminator 2
 366 0130 3B68     		ldr	r3, [r7, #0]
 367 0132 5B69     		ldr	r3, [r3, #20]
 368 0134 B3F5407F 		cmp	r3, #768
 369 0138 02D1     		bne	.L30
 370              	.L29:
 371              		.loc 1 229 0 discriminator 1
 372 013a 4FF00103 		mov	r3, #1
 373 013e 01E0     		b	.L31
 374              	.L30:
 375              		.loc 1 229 0 discriminator 3
 376 0140 4FF00003 		mov	r3, #0
 377              	.L31:
 378              		.loc 1 229 0 discriminator 4
 379 0144 1846     		mov	r0, r3
 380 0146 FFF7FEFF 		bl	assert_param
 230:libs/STM32F30x_StdPeriph_Driver/src/stm32f30x_usart.c ****   
 231:libs/STM32F30x_StdPeriph_Driver/src/stm32f30x_usart.c ****   /* Disable USART */
 232:libs/STM32F30x_StdPeriph_Driver/src/stm32f30x_usart.c ****   USARTx->CR1 &= (uint32_t)~((uint32_t)USART_CR1_UE);
 381              		.loc 1 232 0 is_stmt 1 discriminator 4
 382 014a 7B68     		ldr	r3, [r7, #4]
 383 014c 1B68     		ldr	r3, [r3, #0]
 384 014e 23F00102 		bic	r2, r3, #1
 385 0152 7B68     		ldr	r3, [r7, #4]
 386 0154 1A60     		str	r2, [r3, #0]
 233:libs/STM32F30x_StdPeriph_Driver/src/stm32f30x_usart.c ****   
 234:libs/STM32F30x_StdPeriph_Driver/src/stm32f30x_usart.c ****   /*---------------------------- USART CR2 Configuration -----------------------*/
 235:libs/STM32F30x_StdPeriph_Driver/src/stm32f30x_usart.c ****   tmpreg = USARTx->CR2;
 387              		.loc 1 235 0 discriminator 4
 388 0156 7B68     		ldr	r3, [r7, #4]
 389 0158 5B68     		ldr	r3, [r3, #4]
 390 015a 7B64     		str	r3, [r7, #68]
 236:libs/STM32F30x_StdPeriph_Driver/src/stm32f30x_usart.c ****   /* Clear STOP[13:12] bits */
 237:libs/STM32F30x_StdPeriph_Driver/src/stm32f30x_usart.c ****   tmpreg &= (uint32_t)~((uint32_t)USART_CR2_STOP);
 391              		.loc 1 237 0 discriminator 4
 392 015c 7B6C     		ldr	r3, [r7, #68]
 393 015e 23F44053 		bic	r3, r3, #12288
 394 0162 7B64     		str	r3, [r7, #68]
 238:libs/STM32F30x_StdPeriph_Driver/src/stm32f30x_usart.c ****   
 239:libs/STM32F30x_StdPeriph_Driver/src/stm32f30x_usart.c ****   /* Configure the USART Stop Bits, Clock, CPOL, CPHA and LastBit ------------*/
 240:libs/STM32F30x_StdPeriph_Driver/src/stm32f30x_usart.c ****   /* Set STOP[13:12] bits according to USART_StopBits value */
 241:libs/STM32F30x_StdPeriph_Driver/src/stm32f30x_usart.c ****   tmpreg |= (uint32_t)USART_InitStruct->USART_StopBits;
 395              		.loc 1 241 0 discriminator 4
 396 0164 3B68     		ldr	r3, [r7, #0]
 397 0166 9B68     		ldr	r3, [r3, #8]
 398 0168 7A6C     		ldr	r2, [r7, #68]
 399 016a 1343     		orrs	r3, r3, r2
 400 016c 7B64     		str	r3, [r7, #68]
 242:libs/STM32F30x_StdPeriph_Driver/src/stm32f30x_usart.c ****   
 243:libs/STM32F30x_StdPeriph_Driver/src/stm32f30x_usart.c ****   /* Write to USART CR2 */
 244:libs/STM32F30x_StdPeriph_Driver/src/stm32f30x_usart.c ****   USARTx->CR2 = tmpreg;
 401              		.loc 1 244 0 discriminator 4
 402 016e 7B68     		ldr	r3, [r7, #4]
 403 0170 7A6C     		ldr	r2, [r7, #68]
 404 0172 5A60     		str	r2, [r3, #4]
 245:libs/STM32F30x_StdPeriph_Driver/src/stm32f30x_usart.c ****   
 246:libs/STM32F30x_StdPeriph_Driver/src/stm32f30x_usart.c ****   /*---------------------------- USART CR1 Configuration -----------------------*/
 247:libs/STM32F30x_StdPeriph_Driver/src/stm32f30x_usart.c ****   tmpreg = USARTx->CR1;
 405              		.loc 1 247 0 discriminator 4
 406 0174 7B68     		ldr	r3, [r7, #4]
 407 0176 1B68     		ldr	r3, [r3, #0]
 408 0178 7B64     		str	r3, [r7, #68]
 248:libs/STM32F30x_StdPeriph_Driver/src/stm32f30x_usart.c ****   /* Clear M, PCE, PS, TE and RE bits */
 249:libs/STM32F30x_StdPeriph_Driver/src/stm32f30x_usart.c ****   tmpreg &= (uint32_t)~((uint32_t)CR1_CLEAR_MASK);
 409              		.loc 1 249 0 discriminator 4
 410 017a 7B6C     		ldr	r3, [r7, #68]
 411 017c 23F4B053 		bic	r3, r3, #5632
 412 0180 23F00C03 		bic	r3, r3, #12
 413 0184 7B64     		str	r3, [r7, #68]
 250:libs/STM32F30x_StdPeriph_Driver/src/stm32f30x_usart.c ****   
 251:libs/STM32F30x_StdPeriph_Driver/src/stm32f30x_usart.c ****   /* Configure the USART Word Length, Parity and mode ----------------------- */
 252:libs/STM32F30x_StdPeriph_Driver/src/stm32f30x_usart.c ****   /* Set the M bits according to USART_WordLength value */
 253:libs/STM32F30x_StdPeriph_Driver/src/stm32f30x_usart.c ****   /* Set PCE and PS bits according to USART_Parity value */
 254:libs/STM32F30x_StdPeriph_Driver/src/stm32f30x_usart.c ****   /* Set TE and RE bits according to USART_Mode value */
 255:libs/STM32F30x_StdPeriph_Driver/src/stm32f30x_usart.c ****   tmpreg |= (uint32_t)USART_InitStruct->USART_WordLength | USART_InitStruct->USART_Parity |
 414              		.loc 1 255 0 discriminator 4
 415 0186 3B68     		ldr	r3, [r7, #0]
 416 0188 5A68     		ldr	r2, [r3, #4]
 417 018a 3B68     		ldr	r3, [r7, #0]
 418 018c DB68     		ldr	r3, [r3, #12]
 419 018e 1A43     		orrs	r2, r2, r3
 256:libs/STM32F30x_StdPeriph_Driver/src/stm32f30x_usart.c ****     USART_InitStruct->USART_Mode;
 420              		.loc 1 256 0 discriminator 4
 421 0190 3B68     		ldr	r3, [r7, #0]
 422 0192 1B69     		ldr	r3, [r3, #16]
 255:libs/STM32F30x_StdPeriph_Driver/src/stm32f30x_usart.c ****   tmpreg |= (uint32_t)USART_InitStruct->USART_WordLength | USART_InitStruct->USART_Parity |
 423              		.loc 1 255 0 discriminator 4
 424 0194 1343     		orrs	r3, r3, r2
 425 0196 7A6C     		ldr	r2, [r7, #68]
 426 0198 1343     		orrs	r3, r3, r2
 427 019a 7B64     		str	r3, [r7, #68]
 257:libs/STM32F30x_StdPeriph_Driver/src/stm32f30x_usart.c ****   
 258:libs/STM32F30x_StdPeriph_Driver/src/stm32f30x_usart.c ****   /* Write to USART CR1 */
 259:libs/STM32F30x_StdPeriph_Driver/src/stm32f30x_usart.c ****   USARTx->CR1 = tmpreg;
 428              		.loc 1 259 0 discriminator 4
 429 019c 7B68     		ldr	r3, [r7, #4]
 430 019e 7A6C     		ldr	r2, [r7, #68]
 431 01a0 1A60     		str	r2, [r3, #0]
 260:libs/STM32F30x_StdPeriph_Driver/src/stm32f30x_usart.c ****   
 261:libs/STM32F30x_StdPeriph_Driver/src/stm32f30x_usart.c ****   /*---------------------------- USART CR3 Configuration -----------------------*/
 262:libs/STM32F30x_StdPeriph_Driver/src/stm32f30x_usart.c ****   tmpreg = USARTx->CR3;
 432              		.loc 1 262 0 discriminator 4
 433 01a2 7B68     		ldr	r3, [r7, #4]
 434 01a4 9B68     		ldr	r3, [r3, #8]
 435 01a6 7B64     		str	r3, [r7, #68]
 263:libs/STM32F30x_StdPeriph_Driver/src/stm32f30x_usart.c ****   /* Clear CTSE and RTSE bits */
 264:libs/STM32F30x_StdPeriph_Driver/src/stm32f30x_usart.c ****   tmpreg &= (uint32_t)~((uint32_t)CR3_CLEAR_MASK);
 436              		.loc 1 264 0 discriminator 4
 437 01a8 7B6C     		ldr	r3, [r7, #68]
 438 01aa 23F44073 		bic	r3, r3, #768
 439 01ae 7B64     		str	r3, [r7, #68]
 265:libs/STM32F30x_StdPeriph_Driver/src/stm32f30x_usart.c ****   
 266:libs/STM32F30x_StdPeriph_Driver/src/stm32f30x_usart.c ****   /* Configure the USART HFC -------------------------------------------------*/
 267:libs/STM32F30x_StdPeriph_Driver/src/stm32f30x_usart.c ****   /* Set CTSE and RTSE bits according to USART_HardwareFlowControl value */
 268:libs/STM32F30x_StdPeriph_Driver/src/stm32f30x_usart.c ****   tmpreg |= USART_InitStruct->USART_HardwareFlowControl;
 440              		.loc 1 268 0 discriminator 4
 441 01b0 3B68     		ldr	r3, [r7, #0]
 442 01b2 5B69     		ldr	r3, [r3, #20]
 443 01b4 7A6C     		ldr	r2, [r7, #68]
 444 01b6 1343     		orrs	r3, r3, r2
 445 01b8 7B64     		str	r3, [r7, #68]
 269:libs/STM32F30x_StdPeriph_Driver/src/stm32f30x_usart.c ****   
 270:libs/STM32F30x_StdPeriph_Driver/src/stm32f30x_usart.c ****   /* Write to USART CR3 */
 271:libs/STM32F30x_StdPeriph_Driver/src/stm32f30x_usart.c ****   USARTx->CR3 = tmpreg;
 446              		.loc 1 271 0 discriminator 4
 447 01ba 7B68     		ldr	r3, [r7, #4]
 448 01bc 7A6C     		ldr	r2, [r7, #68]
 449 01be 9A60     		str	r2, [r3, #8]
 272:libs/STM32F30x_StdPeriph_Driver/src/stm32f30x_usart.c ****   
 273:libs/STM32F30x_StdPeriph_Driver/src/stm32f30x_usart.c ****   /*---------------------------- USART BRR Configuration -----------------------*/
 274:libs/STM32F30x_StdPeriph_Driver/src/stm32f30x_usart.c ****   /* Configure the USART Baud Rate -------------------------------------------*/
 275:libs/STM32F30x_StdPeriph_Driver/src/stm32f30x_usart.c ****   RCC_GetClocksFreq(&RCC_ClocksStatus);
 450              		.loc 1 275 0 discriminator 4
 451 01c0 07F10803 		add	r3, r7, #8
 452 01c4 1846     		mov	r0, r3
 453 01c6 FFF7FEFF 		bl	RCC_GetClocksFreq
 276:libs/STM32F30x_StdPeriph_Driver/src/stm32f30x_usart.c ****   
 277:libs/STM32F30x_StdPeriph_Driver/src/stm32f30x_usart.c ****   if (USARTx == USART1)
 454              		.loc 1 277 0 discriminator 4
 455 01ca 7A68     		ldr	r2, [r7, #4]
 456 01cc 1B4B     		ldr	r3, .L41
 457 01ce 9A42     		cmp	r2, r3
 458 01d0 02D1     		bne	.L32
 278:libs/STM32F30x_StdPeriph_Driver/src/stm32f30x_usart.c ****   {
 279:libs/STM32F30x_StdPeriph_Driver/src/stm32f30x_usart.c ****     apbclock = RCC_ClocksStatus.USART1CLK_Frequency;
 459              		.loc 1 279 0
 460 01d2 3B6B     		ldr	r3, [r7, #48]
 461 01d4 BB64     		str	r3, [r7, #72]
 462 01d6 16E0     		b	.L33
 463              	.L32:
 280:libs/STM32F30x_StdPeriph_Driver/src/stm32f30x_usart.c ****   }
 281:libs/STM32F30x_StdPeriph_Driver/src/stm32f30x_usart.c ****   else if (USARTx == USART2)
 464              		.loc 1 281 0
 465 01d8 7A68     		ldr	r2, [r7, #4]
 466 01da 194B     		ldr	r3, .L41+4
 467 01dc 9A42     		cmp	r2, r3
 468 01de 02D1     		bne	.L34
 282:libs/STM32F30x_StdPeriph_Driver/src/stm32f30x_usart.c ****   {
 283:libs/STM32F30x_StdPeriph_Driver/src/stm32f30x_usart.c ****     apbclock = RCC_ClocksStatus.USART2CLK_Frequency;
 469              		.loc 1 283 0
 470 01e0 7B6B     		ldr	r3, [r7, #52]
 471 01e2 BB64     		str	r3, [r7, #72]
 472 01e4 0FE0     		b	.L33
 473              	.L34:
 284:libs/STM32F30x_StdPeriph_Driver/src/stm32f30x_usart.c ****   }
 285:libs/STM32F30x_StdPeriph_Driver/src/stm32f30x_usart.c ****   else if (USARTx == USART3)
 474              		.loc 1 285 0
 475 01e6 7A68     		ldr	r2, [r7, #4]
 476 01e8 164B     		ldr	r3, .L41+8
 477 01ea 9A42     		cmp	r2, r3
 478 01ec 02D1     		bne	.L35
 286:libs/STM32F30x_StdPeriph_Driver/src/stm32f30x_usart.c ****   {
 287:libs/STM32F30x_StdPeriph_Driver/src/stm32f30x_usart.c ****     apbclock = RCC_ClocksStatus.USART3CLK_Frequency;
 479              		.loc 1 287 0
 480 01ee BB6B     		ldr	r3, [r7, #56]
 481 01f0 BB64     		str	r3, [r7, #72]
 482 01f2 08E0     		b	.L33
 483              	.L35:
 288:libs/STM32F30x_StdPeriph_Driver/src/stm32f30x_usart.c ****   }
 289:libs/STM32F30x_StdPeriph_Driver/src/stm32f30x_usart.c ****   else if (USARTx == UART4)
 484              		.loc 1 289 0
 485 01f4 7A68     		ldr	r2, [r7, #4]
 486 01f6 144B     		ldr	r3, .L41+12
 487 01f8 9A42     		cmp	r2, r3
 488 01fa 02D1     		bne	.L36
 290:libs/STM32F30x_StdPeriph_Driver/src/stm32f30x_usart.c ****   {
 291:libs/STM32F30x_StdPeriph_Driver/src/stm32f30x_usart.c ****     apbclock = RCC_ClocksStatus.UART4CLK_Frequency;
 489              		.loc 1 291 0
 490 01fc FB6B     		ldr	r3, [r7, #60]
 491 01fe BB64     		str	r3, [r7, #72]
 492 0200 01E0     		b	.L33
 493              	.L36:
 292:libs/STM32F30x_StdPeriph_Driver/src/stm32f30x_usart.c ****   }
 293:libs/STM32F30x_StdPeriph_Driver/src/stm32f30x_usart.c ****   else 
 294:libs/STM32F30x_StdPeriph_Driver/src/stm32f30x_usart.c ****   {
 295:libs/STM32F30x_StdPeriph_Driver/src/stm32f30x_usart.c ****     apbclock = RCC_ClocksStatus.UART5CLK_Frequency;
 494              		.loc 1 295 0
 495 0202 3B6C     		ldr	r3, [r7, #64]
 496 0204 BB64     		str	r3, [r7, #72]
 497              	.L33:
 296:libs/STM32F30x_StdPeriph_Driver/src/stm32f30x_usart.c ****   }  
 297:libs/STM32F30x_StdPeriph_Driver/src/stm32f30x_usart.c ****   
 298:libs/STM32F30x_StdPeriph_Driver/src/stm32f30x_usart.c ****   /* Determine the integer part */
 299:libs/STM32F30x_StdPeriph_Driver/src/stm32f30x_usart.c ****   if ((USARTx->CR1 & USART_CR1_OVER8) != 0)
 498              		.loc 1 299 0
 499 0206 7B68     		ldr	r3, [r7, #4]
 500 0208 1B68     		ldr	r3, [r3, #0]
 501 020a 03F40043 		and	r3, r3, #32768
 502 020e 002B     		cmp	r3, #0
 503 0210 20D0     		beq	.L37
 300:libs/STM32F30x_StdPeriph_Driver/src/stm32f30x_usart.c ****   {
 301:libs/STM32F30x_StdPeriph_Driver/src/stm32f30x_usart.c ****     /* (divider * 10) computing in case Oversampling mode is 8 Samples */
 302:libs/STM32F30x_StdPeriph_Driver/src/stm32f30x_usart.c ****     divider = (uint32_t)((2 * apbclock) / (USART_InitStruct->USART_BaudRate));
 504              		.loc 1 302 0
 505 0212 BB6C     		ldr	r3, [r7, #72]
 506 0214 4FEA4302 		lsl	r2, r3, #1
 507 0218 3B68     		ldr	r3, [r7, #0]
 508 021a 1B68     		ldr	r3, [r3, #0]
 509 021c B2FBF3F3 		udiv	r3, r2, r3
 510 0220 FB64     		str	r3, [r7, #76]
 303:libs/STM32F30x_StdPeriph_Driver/src/stm32f30x_usart.c ****     tmpreg  = (uint32_t)((2 * apbclock) % (USART_InitStruct->USART_BaudRate));
 511              		.loc 1 303 0
 512 0222 BB6C     		ldr	r3, [r7, #72]
 513 0224 4FEA4303 		lsl	r3, r3, #1
 514 0228 3A68     		ldr	r2, [r7, #0]
 515 022a 1268     		ldr	r2, [r2, #0]
 516 022c B3FBF2F1 		udiv	r1, r3, r2
 517 0230 02FB01F2 		mul	r2, r2, r1
 518 0234 9B1A     		subs	r3, r3, r2
 519 0236 7B64     		str	r3, [r7, #68]
 520 0238 1BE0     		b	.L38
 521              	.L42:
 522 023a 00BF     		.align	2
 523              	.L41:
 524 023c 00380140 		.word	1073821696
 525 0240 00440040 		.word	1073759232
 526 0244 00480040 		.word	1073760256
 527 0248 004C0040 		.word	1073761280
 528 024c 00500040 		.word	1073762304
 529 0250 808D5B00 		.word	6000000
 530              	.L37:
 304:libs/STM32F30x_StdPeriph_Driver/src/stm32f30x_usart.c ****   }
 305:libs/STM32F30x_StdPeriph_Driver/src/stm32f30x_usart.c ****   else /* if ((USARTx->CR1 & CR1_OVER8_Set) == 0) */
 306:libs/STM32F30x_StdPeriph_Driver/src/stm32f30x_usart.c ****   {
 307:libs/STM32F30x_StdPeriph_Driver/src/stm32f30x_usart.c ****     /* (divider * 10) computing in case Oversampling mode is 16 Samples */
 308:libs/STM32F30x_StdPeriph_Driver/src/stm32f30x_usart.c ****     divider = (uint32_t)((apbclock) / (USART_InitStruct->USART_BaudRate));
 531              		.loc 1 308 0
 532 0254 3B68     		ldr	r3, [r7, #0]
 533 0256 1B68     		ldr	r3, [r3, #0]
 534 0258 BA6C     		ldr	r2, [r7, #72]
 535 025a B2FBF3F3 		udiv	r3, r2, r3
 536 025e FB64     		str	r3, [r7, #76]
 309:libs/STM32F30x_StdPeriph_Driver/src/stm32f30x_usart.c ****     tmpreg  = (uint32_t)((apbclock) % (USART_InitStruct->USART_BaudRate));
 537              		.loc 1 309 0
 538 0260 3B68     		ldr	r3, [r7, #0]
 539 0262 1A68     		ldr	r2, [r3, #0]
 540 0264 BB6C     		ldr	r3, [r7, #72]
 541 0266 B3FBF2F1 		udiv	r1, r3, r2
 542 026a 02FB01F2 		mul	r2, r2, r1
 543 026e 9B1A     		subs	r3, r3, r2
 544 0270 7B64     		str	r3, [r7, #68]
 545              	.L38:
 310:libs/STM32F30x_StdPeriph_Driver/src/stm32f30x_usart.c ****   }
 311:libs/STM32F30x_StdPeriph_Driver/src/stm32f30x_usart.c ****   
 312:libs/STM32F30x_StdPeriph_Driver/src/stm32f30x_usart.c ****   /* round the divider : if fractional part i greater than 0.5 increment divider */
 313:libs/STM32F30x_StdPeriph_Driver/src/stm32f30x_usart.c ****   if (tmpreg >=  (USART_InitStruct->USART_BaudRate) / 2)
 546              		.loc 1 313 0
 547 0272 3B68     		ldr	r3, [r7, #0]
 548 0274 1B68     		ldr	r3, [r3, #0]
 549 0276 4FEA5302 		lsr	r2, r3, #1
 550 027a 7B6C     		ldr	r3, [r7, #68]
 551 027c 9A42     		cmp	r2, r3
 552 027e 03D8     		bhi	.L39
 314:libs/STM32F30x_StdPeriph_Driver/src/stm32f30x_usart.c ****   {
 315:libs/STM32F30x_StdPeriph_Driver/src/stm32f30x_usart.c ****     divider++;
 553              		.loc 1 315 0
 554 0280 FB6C     		ldr	r3, [r7, #76]
 555 0282 03F10103 		add	r3, r3, #1
 556 0286 FB64     		str	r3, [r7, #76]
 557              	.L39:
 316:libs/STM32F30x_StdPeriph_Driver/src/stm32f30x_usart.c ****   } 
 317:libs/STM32F30x_StdPeriph_Driver/src/stm32f30x_usart.c ****   
 318:libs/STM32F30x_StdPeriph_Driver/src/stm32f30x_usart.c ****   /* Implement the divider in case Oversampling mode is 8 Samples */
 319:libs/STM32F30x_StdPeriph_Driver/src/stm32f30x_usart.c ****   if ((USARTx->CR1 & USART_CR1_OVER8) != 0)
 558              		.loc 1 319 0
 559 0288 7B68     		ldr	r3, [r7, #4]
 560 028a 1B68     		ldr	r3, [r3, #0]
 561 028c 03F40043 		and	r3, r3, #32768
 562 0290 002B     		cmp	r3, #0
 563 0292 0CD0     		beq	.L40
 320:libs/STM32F30x_StdPeriph_Driver/src/stm32f30x_usart.c ****   {
 321:libs/STM32F30x_StdPeriph_Driver/src/stm32f30x_usart.c ****     /* get the LSB of divider and shift it to the right by 1 bit */
 322:libs/STM32F30x_StdPeriph_Driver/src/stm32f30x_usart.c ****     tmpreg = (divider & (uint16_t)0x000F) >> 1;
 564              		.loc 1 322 0
 565 0294 FB6C     		ldr	r3, [r7, #76]
 566 0296 03F00F03 		and	r3, r3, #15
 567 029a 4FEA5303 		lsr	r3, r3, #1
 568 029e 7B64     		str	r3, [r7, #68]
 323:libs/STM32F30x_StdPeriph_Driver/src/stm32f30x_usart.c ****     
 324:libs/STM32F30x_StdPeriph_Driver/src/stm32f30x_usart.c ****     /* update the divider value */
 325:libs/STM32F30x_StdPeriph_Driver/src/stm32f30x_usart.c ****     divider = (divider & (uint16_t)0xFFF0) | tmpreg;
 569              		.loc 1 325 0
 570 02a0 FA6C     		ldr	r2, [r7, #76]
 571 02a2 4FF6F073 		movw	r3, #65520
 572 02a6 1340     		ands	r3, r3, r2
 573 02a8 7A6C     		ldr	r2, [r7, #68]
 574 02aa 1343     		orrs	r3, r3, r2
 575 02ac FB64     		str	r3, [r7, #76]
 576              	.L40:
 326:libs/STM32F30x_StdPeriph_Driver/src/stm32f30x_usart.c ****   }
 327:libs/STM32F30x_StdPeriph_Driver/src/stm32f30x_usart.c ****   
 328:libs/STM32F30x_StdPeriph_Driver/src/stm32f30x_usart.c ****   /* Write to USART BRR */
 329:libs/STM32F30x_StdPeriph_Driver/src/stm32f30x_usart.c ****   USARTx->BRR = (uint16_t)divider;
 577              		.loc 1 329 0
 578 02ae FB6C     		ldr	r3, [r7, #76]
 579 02b0 9AB2     		uxth	r2, r3
 580 02b2 7B68     		ldr	r3, [r7, #4]
 581 02b4 9A81     		strh	r2, [r3, #12]	@ movhi
 330:libs/STM32F30x_StdPeriph_Driver/src/stm32f30x_usart.c **** }
 582              		.loc 1 330 0
 583 02b6 07F15007 		add	r7, r7, #80
 584 02ba BD46     		mov	sp, r7
 585 02bc 80BD     		pop	{r7, pc}
 586              		.cfi_endproc
 587              	.LFE111:
 589 02be 00BF     		.section	.text.USART_StructInit,"ax",%progbits
 590              		.align	2
 591              		.global	USART_StructInit
 592              		.thumb
 593              		.thumb_func
 595              	USART_StructInit:
 596              	.LFB112:
 331:libs/STM32F30x_StdPeriph_Driver/src/stm32f30x_usart.c **** 
 332:libs/STM32F30x_StdPeriph_Driver/src/stm32f30x_usart.c **** /**
 333:libs/STM32F30x_StdPeriph_Driver/src/stm32f30x_usart.c ****   * @brief  Fills each USART_InitStruct member with its default value.
 334:libs/STM32F30x_StdPeriph_Driver/src/stm32f30x_usart.c ****   * @param  USART_InitStruct: pointer to a USART_InitTypeDef structure
 335:libs/STM32F30x_StdPeriph_Driver/src/stm32f30x_usart.c ****   *         which will be initialized.
 336:libs/STM32F30x_StdPeriph_Driver/src/stm32f30x_usart.c ****   * @retval None
 337:libs/STM32F30x_StdPeriph_Driver/src/stm32f30x_usart.c ****   */
 338:libs/STM32F30x_StdPeriph_Driver/src/stm32f30x_usart.c **** void USART_StructInit(USART_InitTypeDef* USART_InitStruct)
 339:libs/STM32F30x_StdPeriph_Driver/src/stm32f30x_usart.c **** {
 597              		.loc 1 339 0
 598              		.cfi_startproc
 599              		@ args = 0, pretend = 0, frame = 8
 600              		@ frame_needed = 1, uses_anonymous_args = 0
 601              		@ link register save eliminated.
 602 0000 80B4     		push	{r7}
 603              	.LCFI6:
 604              		.cfi_def_cfa_offset 4
 605              		.cfi_offset 7, -4
 606 0002 83B0     		sub	sp, sp, #12
 607              	.LCFI7:
 608              		.cfi_def_cfa_offset 16
 609 0004 00AF     		add	r7, sp, #0
 610              	.LCFI8:
 611              		.cfi_def_cfa_register 7
 612 0006 7860     		str	r0, [r7, #4]
 340:libs/STM32F30x_StdPeriph_Driver/src/stm32f30x_usart.c ****   /* USART_InitStruct members default value */
 341:libs/STM32F30x_StdPeriph_Driver/src/stm32f30x_usart.c ****   USART_InitStruct->USART_BaudRate = 9600;
 613              		.loc 1 341 0
 614 0008 7B68     		ldr	r3, [r7, #4]
 615 000a 4FF41652 		mov	r2, #9600
 616 000e 1A60     		str	r2, [r3, #0]
 342:libs/STM32F30x_StdPeriph_Driver/src/stm32f30x_usart.c ****   USART_InitStruct->USART_WordLength = USART_WordLength_8b;
 617              		.loc 1 342 0
 618 0010 7B68     		ldr	r3, [r7, #4]
 619 0012 4FF00002 		mov	r2, #0
 620 0016 5A60     		str	r2, [r3, #4]
 343:libs/STM32F30x_StdPeriph_Driver/src/stm32f30x_usart.c ****   USART_InitStruct->USART_StopBits = USART_StopBits_1;
 621              		.loc 1 343 0
 622 0018 7B68     		ldr	r3, [r7, #4]
 623 001a 4FF00002 		mov	r2, #0
 624 001e 9A60     		str	r2, [r3, #8]
 344:libs/STM32F30x_StdPeriph_Driver/src/stm32f30x_usart.c ****   USART_InitStruct->USART_Parity = USART_Parity_No ;
 625              		.loc 1 344 0
 626 0020 7B68     		ldr	r3, [r7, #4]
 627 0022 4FF00002 		mov	r2, #0
 628 0026 DA60     		str	r2, [r3, #12]
 345:libs/STM32F30x_StdPeriph_Driver/src/stm32f30x_usart.c ****   USART_InitStruct->USART_Mode = USART_Mode_Rx | USART_Mode_Tx;
 629              		.loc 1 345 0
 630 0028 7B68     		ldr	r3, [r7, #4]
 631 002a 4FF00C02 		mov	r2, #12
 632 002e 1A61     		str	r2, [r3, #16]
 346:libs/STM32F30x_StdPeriph_Driver/src/stm32f30x_usart.c ****   USART_InitStruct->USART_HardwareFlowControl = USART_HardwareFlowControl_None;
 633              		.loc 1 346 0
 634 0030 7B68     		ldr	r3, [r7, #4]
 635 0032 4FF00002 		mov	r2, #0
 636 0036 5A61     		str	r2, [r3, #20]
 347:libs/STM32F30x_StdPeriph_Driver/src/stm32f30x_usart.c **** }
 637              		.loc 1 347 0
 638 0038 07F10C07 		add	r7, r7, #12
 639 003c BD46     		mov	sp, r7
 640 003e 80BC     		pop	{r7}
 641 0040 7047     		bx	lr
 642              		.cfi_endproc
 643              	.LFE112:
 645 0042 00BF     		.section	.text.USART_ClockInit,"ax",%progbits
 646              		.align	2
 647              		.global	USART_ClockInit
 648              		.thumb
 649              		.thumb_func
 651              	USART_ClockInit:
 652              	.LFB113:
 348:libs/STM32F30x_StdPeriph_Driver/src/stm32f30x_usart.c **** 
 349:libs/STM32F30x_StdPeriph_Driver/src/stm32f30x_usart.c **** /**
 350:libs/STM32F30x_StdPeriph_Driver/src/stm32f30x_usart.c ****   * @brief  Initializes the USARTx peripheral Clock according to the
 351:libs/STM32F30x_StdPeriph_Driver/src/stm32f30x_usart.c ****   *         specified parameters in the USART_ClockInitStruct.
 352:libs/STM32F30x_StdPeriph_Driver/src/stm32f30x_usart.c ****   * @param  USARTx: Select the USART peripheral. This parameter can be one of the
 353:libs/STM32F30x_StdPeriph_Driver/src/stm32f30x_usart.c ****   *         following values: USART1 or USART2 or USART3.
 354:libs/STM32F30x_StdPeriph_Driver/src/stm32f30x_usart.c ****   * @param  USART_ClockInitStruct: pointer to a USART_ClockInitTypeDef
 355:libs/STM32F30x_StdPeriph_Driver/src/stm32f30x_usart.c ****   *         structure that contains the configuration information for the specified
 356:libs/STM32F30x_StdPeriph_Driver/src/stm32f30x_usart.c ****   *         USART peripheral.
 357:libs/STM32F30x_StdPeriph_Driver/src/stm32f30x_usart.c ****   * @retval None
 358:libs/STM32F30x_StdPeriph_Driver/src/stm32f30x_usart.c ****   */
 359:libs/STM32F30x_StdPeriph_Driver/src/stm32f30x_usart.c **** void USART_ClockInit(USART_TypeDef* USARTx, USART_ClockInitTypeDef* USART_ClockInitStruct)
 360:libs/STM32F30x_StdPeriph_Driver/src/stm32f30x_usart.c **** {
 653              		.loc 1 360 0
 654              		.cfi_startproc
 655              		@ args = 0, pretend = 0, frame = 16
 656              		@ frame_needed = 1, uses_anonymous_args = 0
 657 0000 80B5     		push	{r7, lr}
 658              	.LCFI9:
 659              		.cfi_def_cfa_offset 8
 660              		.cfi_offset 7, -8
 661              		.cfi_offset 14, -4
 662 0002 84B0     		sub	sp, sp, #16
 663              	.LCFI10:
 664              		.cfi_def_cfa_offset 24
 665 0004 00AF     		add	r7, sp, #0
 666              	.LCFI11:
 667              		.cfi_def_cfa_register 7
 668 0006 7860     		str	r0, [r7, #4]
 669 0008 3960     		str	r1, [r7, #0]
 361:libs/STM32F30x_StdPeriph_Driver/src/stm32f30x_usart.c ****   uint32_t tmpreg = 0;
 670              		.loc 1 361 0
 671 000a 4FF00003 		mov	r3, #0
 672 000e FB60     		str	r3, [r7, #12]
 362:libs/STM32F30x_StdPeriph_Driver/src/stm32f30x_usart.c ****   /* Check the parameters */
 363:libs/STM32F30x_StdPeriph_Driver/src/stm32f30x_usart.c ****   assert_param(IS_USART_123_PERIPH(USARTx));
 673              		.loc 1 363 0
 674 0010 7A68     		ldr	r2, [r7, #4]
 675 0012 394B     		ldr	r3, .L60
 676 0014 9A42     		cmp	r2, r3
 677 0016 07D0     		beq	.L45
 678              		.loc 1 363 0 is_stmt 0 discriminator 2
 679 0018 7A68     		ldr	r2, [r7, #4]
 680 001a 384B     		ldr	r3, .L60+4
 681 001c 9A42     		cmp	r2, r3
 682 001e 03D0     		beq	.L45
 683              		.loc 1 363 0 discriminator 1
 684 0020 7A68     		ldr	r2, [r7, #4]
 685 0022 374B     		ldr	r3, .L60+8
 686 0024 9A42     		cmp	r2, r3
 687 0026 02D1     		bne	.L46
 688              	.L45:
 689 0028 4FF00103 		mov	r3, #1
 690 002c 01E0     		b	.L47
 691              	.L46:
 692              		.loc 1 363 0 discriminator 3
 693 002e 4FF00003 		mov	r3, #0
 694              	.L47:
 695              		.loc 1 363 0 discriminator 4
 696 0032 1846     		mov	r0, r3
 697 0034 FFF7FEFF 		bl	assert_param
 364:libs/STM32F30x_StdPeriph_Driver/src/stm32f30x_usart.c ****   assert_param(IS_USART_CLOCK(USART_ClockInitStruct->USART_Clock));
 698              		.loc 1 364 0 is_stmt 1 discriminator 4
 699 0038 3B68     		ldr	r3, [r7, #0]
 700 003a 1B68     		ldr	r3, [r3, #0]
 701 003c 002B     		cmp	r3, #0
 702 003e 04D0     		beq	.L48
 703              		.loc 1 364 0 is_stmt 0 discriminator 2
 704 0040 3B68     		ldr	r3, [r7, #0]
 705 0042 1B68     		ldr	r3, [r3, #0]
 706 0044 B3F5006F 		cmp	r3, #2048
 707 0048 02D1     		bne	.L49
 708              	.L48:
 709              		.loc 1 364 0 discriminator 1
 710 004a 4FF00103 		mov	r3, #1
 711 004e 01E0     		b	.L50
 712              	.L49:
 713              		.loc 1 364 0 discriminator 3
 714 0050 4FF00003 		mov	r3, #0
 715              	.L50:
 716              		.loc 1 364 0 discriminator 4
 717 0054 1846     		mov	r0, r3
 718 0056 FFF7FEFF 		bl	assert_param
 365:libs/STM32F30x_StdPeriph_Driver/src/stm32f30x_usart.c ****   assert_param(IS_USART_CPOL(USART_ClockInitStruct->USART_CPOL));
 719              		.loc 1 365 0 is_stmt 1 discriminator 4
 720 005a 3B68     		ldr	r3, [r7, #0]
 721 005c 5B68     		ldr	r3, [r3, #4]
 722 005e 002B     		cmp	r3, #0
 723 0060 04D0     		beq	.L51
 724              		.loc 1 365 0 is_stmt 0 discriminator 2
 725 0062 3B68     		ldr	r3, [r7, #0]
 726 0064 5B68     		ldr	r3, [r3, #4]
 727 0066 B3F5806F 		cmp	r3, #1024
 728 006a 02D1     		bne	.L52
 729              	.L51:
 730              		.loc 1 365 0 discriminator 1
 731 006c 4FF00103 		mov	r3, #1
 732 0070 01E0     		b	.L53
 733              	.L52:
 734              		.loc 1 365 0 discriminator 3
 735 0072 4FF00003 		mov	r3, #0
 736              	.L53:
 737              		.loc 1 365 0 discriminator 4
 738 0076 1846     		mov	r0, r3
 739 0078 FFF7FEFF 		bl	assert_param
 366:libs/STM32F30x_StdPeriph_Driver/src/stm32f30x_usart.c ****   assert_param(IS_USART_CPHA(USART_ClockInitStruct->USART_CPHA));
 740              		.loc 1 366 0 is_stmt 1 discriminator 4
 741 007c 3B68     		ldr	r3, [r7, #0]
 742 007e 9B68     		ldr	r3, [r3, #8]
 743 0080 002B     		cmp	r3, #0
 744 0082 04D0     		beq	.L54
 745              		.loc 1 366 0 is_stmt 0 discriminator 2
 746 0084 3B68     		ldr	r3, [r7, #0]
 747 0086 9B68     		ldr	r3, [r3, #8]
 748 0088 B3F5007F 		cmp	r3, #512
 749 008c 02D1     		bne	.L55
 750              	.L54:
 751              		.loc 1 366 0 discriminator 1
 752 008e 4FF00103 		mov	r3, #1
 753 0092 01E0     		b	.L56
 754              	.L55:
 755              		.loc 1 366 0 discriminator 3
 756 0094 4FF00003 		mov	r3, #0
 757              	.L56:
 758              		.loc 1 366 0 discriminator 4
 759 0098 1846     		mov	r0, r3
 760 009a FFF7FEFF 		bl	assert_param
 367:libs/STM32F30x_StdPeriph_Driver/src/stm32f30x_usart.c ****   assert_param(IS_USART_LASTBIT(USART_ClockInitStruct->USART_LastBit));
 761              		.loc 1 367 0 is_stmt 1 discriminator 4
 762 009e 3B68     		ldr	r3, [r7, #0]
 763 00a0 DB68     		ldr	r3, [r3, #12]
 764 00a2 002B     		cmp	r3, #0
 765 00a4 04D0     		beq	.L57
 766              		.loc 1 367 0 is_stmt 0 discriminator 2
 767 00a6 3B68     		ldr	r3, [r7, #0]
 768 00a8 DB68     		ldr	r3, [r3, #12]
 769 00aa B3F5807F 		cmp	r3, #256
 770 00ae 02D1     		bne	.L58
 771              	.L57:
 772              		.loc 1 367 0 discriminator 1
 773 00b0 4FF00103 		mov	r3, #1
 774 00b4 01E0     		b	.L59
 775              	.L58:
 776              		.loc 1 367 0 discriminator 3
 777 00b6 4FF00003 		mov	r3, #0
 778              	.L59:
 779              		.loc 1 367 0 discriminator 4
 780 00ba 1846     		mov	r0, r3
 781 00bc FFF7FEFF 		bl	assert_param
 368:libs/STM32F30x_StdPeriph_Driver/src/stm32f30x_usart.c **** /*---------------------------- USART CR2 Configuration -----------------------*/
 369:libs/STM32F30x_StdPeriph_Driver/src/stm32f30x_usart.c ****   tmpreg = USARTx->CR2;
 782              		.loc 1 369 0 is_stmt 1 discriminator 4
 783 00c0 7B68     		ldr	r3, [r7, #4]
 784 00c2 5B68     		ldr	r3, [r3, #4]
 785 00c4 FB60     		str	r3, [r7, #12]
 370:libs/STM32F30x_StdPeriph_Driver/src/stm32f30x_usart.c ****   /* Clear CLKEN, CPOL, CPHA, LBCL and SSM bits */
 371:libs/STM32F30x_StdPeriph_Driver/src/stm32f30x_usart.c ****   tmpreg &= (uint32_t)~((uint32_t)CR2_CLOCK_CLEAR_MASK);
 786              		.loc 1 371 0 discriminator 4
 787 00c6 FB68     		ldr	r3, [r7, #12]
 788 00c8 23F47063 		bic	r3, r3, #3840
 789 00cc FB60     		str	r3, [r7, #12]
 372:libs/STM32F30x_StdPeriph_Driver/src/stm32f30x_usart.c ****   /* Configure the USART Clock, CPOL, CPHA, LastBit and SSM ------------*/
 373:libs/STM32F30x_StdPeriph_Driver/src/stm32f30x_usart.c ****   /* Set CLKEN bit according to USART_Clock value */
 374:libs/STM32F30x_StdPeriph_Driver/src/stm32f30x_usart.c ****   /* Set CPOL bit according to USART_CPOL value */
 375:libs/STM32F30x_StdPeriph_Driver/src/stm32f30x_usart.c ****   /* Set CPHA bit according to USART_CPHA value */
 376:libs/STM32F30x_StdPeriph_Driver/src/stm32f30x_usart.c ****   /* Set LBCL bit according to USART_LastBit value */
 377:libs/STM32F30x_StdPeriph_Driver/src/stm32f30x_usart.c ****   tmpreg |= (uint32_t)(USART_ClockInitStruct->USART_Clock | USART_ClockInitStruct->USART_CPOL | 
 790              		.loc 1 377 0 discriminator 4
 791 00ce 3B68     		ldr	r3, [r7, #0]
 792 00d0 1A68     		ldr	r2, [r3, #0]
 793 00d2 3B68     		ldr	r3, [r7, #0]
 794 00d4 5B68     		ldr	r3, [r3, #4]
 795 00d6 1A43     		orrs	r2, r2, r3
 378:libs/STM32F30x_StdPeriph_Driver/src/stm32f30x_usart.c ****                        USART_ClockInitStruct->USART_CPHA | USART_ClockInitStruct->USART_LastBit);
 796              		.loc 1 378 0 discriminator 4
 797 00d8 3B68     		ldr	r3, [r7, #0]
 798 00da 9B68     		ldr	r3, [r3, #8]
 377:libs/STM32F30x_StdPeriph_Driver/src/stm32f30x_usart.c ****   tmpreg |= (uint32_t)(USART_ClockInitStruct->USART_Clock | USART_ClockInitStruct->USART_CPOL | 
 799              		.loc 1 377 0 discriminator 4
 800 00dc 1A43     		orrs	r2, r2, r3
 801              		.loc 1 378 0 discriminator 4
 802 00de 3B68     		ldr	r3, [r7, #0]
 803 00e0 DB68     		ldr	r3, [r3, #12]
 377:libs/STM32F30x_StdPeriph_Driver/src/stm32f30x_usart.c ****   tmpreg |= (uint32_t)(USART_ClockInitStruct->USART_Clock | USART_ClockInitStruct->USART_CPOL | 
 804              		.loc 1 377 0 discriminator 4
 805 00e2 1343     		orrs	r3, r3, r2
 806 00e4 FA68     		ldr	r2, [r7, #12]
 807 00e6 1343     		orrs	r3, r3, r2
 808 00e8 FB60     		str	r3, [r7, #12]
 379:libs/STM32F30x_StdPeriph_Driver/src/stm32f30x_usart.c ****   /* Write to USART CR2 */
 380:libs/STM32F30x_StdPeriph_Driver/src/stm32f30x_usart.c ****   USARTx->CR2 = tmpreg;
 809              		.loc 1 380 0 discriminator 4
 810 00ea 7B68     		ldr	r3, [r7, #4]
 811 00ec FA68     		ldr	r2, [r7, #12]
 812 00ee 5A60     		str	r2, [r3, #4]
 381:libs/STM32F30x_StdPeriph_Driver/src/stm32f30x_usart.c **** }
 813              		.loc 1 381 0 discriminator 4
 814 00f0 07F11007 		add	r7, r7, #16
 815 00f4 BD46     		mov	sp, r7
 816 00f6 80BD     		pop	{r7, pc}
 817              	.L61:
 818              		.align	2
 819              	.L60:
 820 00f8 00380140 		.word	1073821696
 821 00fc 00440040 		.word	1073759232
 822 0100 00480040 		.word	1073760256
 823              		.cfi_endproc
 824              	.LFE113:
 826              		.section	.text.USART_ClockStructInit,"ax",%progbits
 827              		.align	2
 828              		.global	USART_ClockStructInit
 829              		.thumb
 830              		.thumb_func
 832              	USART_ClockStructInit:
 833              	.LFB114:
 382:libs/STM32F30x_StdPeriph_Driver/src/stm32f30x_usart.c **** 
 383:libs/STM32F30x_StdPeriph_Driver/src/stm32f30x_usart.c **** /**
 384:libs/STM32F30x_StdPeriph_Driver/src/stm32f30x_usart.c ****   * @brief  Fills each USART_ClockInitStruct member with its default value.
 385:libs/STM32F30x_StdPeriph_Driver/src/stm32f30x_usart.c ****   * @param  USART_ClockInitStruct: pointer to a USART_ClockInitTypeDef
 386:libs/STM32F30x_StdPeriph_Driver/src/stm32f30x_usart.c ****   *         structure which will be initialized.
 387:libs/STM32F30x_StdPeriph_Driver/src/stm32f30x_usart.c ****   * @retval None
 388:libs/STM32F30x_StdPeriph_Driver/src/stm32f30x_usart.c ****   */
 389:libs/STM32F30x_StdPeriph_Driver/src/stm32f30x_usart.c **** void USART_ClockStructInit(USART_ClockInitTypeDef* USART_ClockInitStruct)
 390:libs/STM32F30x_StdPeriph_Driver/src/stm32f30x_usart.c **** {
 834              		.loc 1 390 0
 835              		.cfi_startproc
 836              		@ args = 0, pretend = 0, frame = 8
 837              		@ frame_needed = 1, uses_anonymous_args = 0
 838              		@ link register save eliminated.
 839 0000 80B4     		push	{r7}
 840              	.LCFI12:
 841              		.cfi_def_cfa_offset 4
 842              		.cfi_offset 7, -4
 843 0002 83B0     		sub	sp, sp, #12
 844              	.LCFI13:
 845              		.cfi_def_cfa_offset 16
 846 0004 00AF     		add	r7, sp, #0
 847              	.LCFI14:
 848              		.cfi_def_cfa_register 7
 849 0006 7860     		str	r0, [r7, #4]
 391:libs/STM32F30x_StdPeriph_Driver/src/stm32f30x_usart.c ****   /* USART_ClockInitStruct members default value */
 392:libs/STM32F30x_StdPeriph_Driver/src/stm32f30x_usart.c ****   USART_ClockInitStruct->USART_Clock = USART_Clock_Disable;
 850              		.loc 1 392 0
 851 0008 7B68     		ldr	r3, [r7, #4]
 852 000a 4FF00002 		mov	r2, #0
 853 000e 1A60     		str	r2, [r3, #0]
 393:libs/STM32F30x_StdPeriph_Driver/src/stm32f30x_usart.c ****   USART_ClockInitStruct->USART_CPOL = USART_CPOL_Low;
 854              		.loc 1 393 0
 855 0010 7B68     		ldr	r3, [r7, #4]
 856 0012 4FF00002 		mov	r2, #0
 857 0016 5A60     		str	r2, [r3, #4]
 394:libs/STM32F30x_StdPeriph_Driver/src/stm32f30x_usart.c ****   USART_ClockInitStruct->USART_CPHA = USART_CPHA_1Edge;
 858              		.loc 1 394 0
 859 0018 7B68     		ldr	r3, [r7, #4]
 860 001a 4FF00002 		mov	r2, #0
 861 001e 9A60     		str	r2, [r3, #8]
 395:libs/STM32F30x_StdPeriph_Driver/src/stm32f30x_usart.c ****   USART_ClockInitStruct->USART_LastBit = USART_LastBit_Disable;
 862              		.loc 1 395 0
 863 0020 7B68     		ldr	r3, [r7, #4]
 864 0022 4FF00002 		mov	r2, #0
 865 0026 DA60     		str	r2, [r3, #12]
 396:libs/STM32F30x_StdPeriph_Driver/src/stm32f30x_usart.c **** }
 866              		.loc 1 396 0
 867 0028 07F10C07 		add	r7, r7, #12
 868 002c BD46     		mov	sp, r7
 869 002e 80BC     		pop	{r7}
 870 0030 7047     		bx	lr
 871              		.cfi_endproc
 872              	.LFE114:
 874 0032 00BF     		.section	.text.USART_Cmd,"ax",%progbits
 875              		.align	2
 876              		.global	USART_Cmd
 877              		.thumb
 878              		.thumb_func
 880              	USART_Cmd:
 881              	.LFB115:
 397:libs/STM32F30x_StdPeriph_Driver/src/stm32f30x_usart.c **** 
 398:libs/STM32F30x_StdPeriph_Driver/src/stm32f30x_usart.c **** /**
 399:libs/STM32F30x_StdPeriph_Driver/src/stm32f30x_usart.c ****   * @brief  Enables or disables the specified USART peripheral.
 400:libs/STM32F30x_StdPeriph_Driver/src/stm32f30x_usart.c ****   * @param  USARTx: Select the USART peripheral. This parameter can be one of the
 401:libs/STM32F30x_StdPeriph_Driver/src/stm32f30x_usart.c ****   *         following values: USART1 or USART2 or USART3 or UART4 or UART5.
 402:libs/STM32F30x_StdPeriph_Driver/src/stm32f30x_usart.c ****   * @param  NewState: new state of the USARTx peripheral.
 403:libs/STM32F30x_StdPeriph_Driver/src/stm32f30x_usart.c ****   *         This parameter can be: ENABLE or DISABLE.
 404:libs/STM32F30x_StdPeriph_Driver/src/stm32f30x_usart.c ****   * @retval None
 405:libs/STM32F30x_StdPeriph_Driver/src/stm32f30x_usart.c ****   */
 406:libs/STM32F30x_StdPeriph_Driver/src/stm32f30x_usart.c **** void USART_Cmd(USART_TypeDef* USARTx, FunctionalState NewState)
 407:libs/STM32F30x_StdPeriph_Driver/src/stm32f30x_usart.c **** {
 882              		.loc 1 407 0
 883              		.cfi_startproc
 884              		@ args = 0, pretend = 0, frame = 8
 885              		@ frame_needed = 1, uses_anonymous_args = 0
 886 0000 80B5     		push	{r7, lr}
 887              	.LCFI15:
 888              		.cfi_def_cfa_offset 8
 889              		.cfi_offset 7, -8
 890              		.cfi_offset 14, -4
 891 0002 82B0     		sub	sp, sp, #8
 892              	.LCFI16:
 893              		.cfi_def_cfa_offset 16
 894 0004 00AF     		add	r7, sp, #0
 895              	.LCFI17:
 896              		.cfi_def_cfa_register 7
 897 0006 7860     		str	r0, [r7, #4]
 898 0008 0B46     		mov	r3, r1
 899 000a FB70     		strb	r3, [r7, #3]
 408:libs/STM32F30x_StdPeriph_Driver/src/stm32f30x_usart.c ****   /* Check the parameters */
 409:libs/STM32F30x_StdPeriph_Driver/src/stm32f30x_usart.c ****   assert_param(IS_USART_ALL_PERIPH(USARTx));
 900              		.loc 1 409 0
 901 000c 7A68     		ldr	r2, [r7, #4]
 902 000e 1E4B     		ldr	r3, .L72
 903 0010 9A42     		cmp	r2, r3
 904 0012 0FD0     		beq	.L64
 905              		.loc 1 409 0 is_stmt 0 discriminator 2
 906 0014 7A68     		ldr	r2, [r7, #4]
 907 0016 1D4B     		ldr	r3, .L72+4
 908 0018 9A42     		cmp	r2, r3
 909 001a 0BD0     		beq	.L64
 910              		.loc 1 409 0 discriminator 1
 911 001c 7A68     		ldr	r2, [r7, #4]
 912 001e 1C4B     		ldr	r3, .L72+8
 913 0020 9A42     		cmp	r2, r3
 914 0022 07D0     		beq	.L64
 915              		.loc 1 409 0 discriminator 2
 916 0024 7A68     		ldr	r2, [r7, #4]
 917 0026 1B4B     		ldr	r3, .L72+12
 918 0028 9A42     		cmp	r2, r3
 919 002a 03D0     		beq	.L64
 920              		.loc 1 409 0 discriminator 3
 921 002c 7A68     		ldr	r2, [r7, #4]
 922 002e 1A4B     		ldr	r3, .L72+16
 923 0030 9A42     		cmp	r2, r3
 924 0032 02D1     		bne	.L65
 925              	.L64:
 926              		.loc 1 409 0 discriminator 1
 927 0034 4FF00103 		mov	r3, #1
 928 0038 01E0     		b	.L66
 929              	.L65:
 930              		.loc 1 409 0 discriminator 3
 931 003a 4FF00003 		mov	r3, #0
 932              	.L66:
 933              		.loc 1 409 0 discriminator 4
 934 003e 1846     		mov	r0, r3
 935 0040 FFF7FEFF 		bl	assert_param
 410:libs/STM32F30x_StdPeriph_Driver/src/stm32f30x_usart.c ****   assert_param(IS_FUNCTIONAL_STATE(NewState));
 936              		.loc 1 410 0 is_stmt 1 discriminator 4
 937 0044 FB78     		ldrb	r3, [r7, #3]	@ zero_extendqisi2
 938 0046 002B     		cmp	r3, #0
 939 0048 02D0     		beq	.L67
 940              		.loc 1 410 0 is_stmt 0 discriminator 2
 941 004a FB78     		ldrb	r3, [r7, #3]	@ zero_extendqisi2
 942 004c 012B     		cmp	r3, #1
 943 004e 02D1     		bne	.L68
 944              	.L67:
 945              		.loc 1 410 0 discriminator 1
 946 0050 4FF00103 		mov	r3, #1
 947 0054 01E0     		b	.L69
 948              	.L68:
 949              		.loc 1 410 0 discriminator 3
 950 0056 4FF00003 		mov	r3, #0
 951              	.L69:
 952              		.loc 1 410 0 discriminator 4
 953 005a 1846     		mov	r0, r3
 954 005c FFF7FEFF 		bl	assert_param
 411:libs/STM32F30x_StdPeriph_Driver/src/stm32f30x_usart.c ****   
 412:libs/STM32F30x_StdPeriph_Driver/src/stm32f30x_usart.c ****   if (NewState != DISABLE)
 955              		.loc 1 412 0 is_stmt 1 discriminator 4
 956 0060 FB78     		ldrb	r3, [r7, #3]	@ zero_extendqisi2
 957 0062 002B     		cmp	r3, #0
 958 0064 06D0     		beq	.L70
 413:libs/STM32F30x_StdPeriph_Driver/src/stm32f30x_usart.c ****   {
 414:libs/STM32F30x_StdPeriph_Driver/src/stm32f30x_usart.c ****     /* Enable the selected USART by setting the UE bit in the CR1 register */
 415:libs/STM32F30x_StdPeriph_Driver/src/stm32f30x_usart.c ****     USARTx->CR1 |= USART_CR1_UE;
 959              		.loc 1 415 0
 960 0066 7B68     		ldr	r3, [r7, #4]
 961 0068 1B68     		ldr	r3, [r3, #0]
 962 006a 43F00102 		orr	r2, r3, #1
 963 006e 7B68     		ldr	r3, [r7, #4]
 964 0070 1A60     		str	r2, [r3, #0]
 965 0072 05E0     		b	.L63
 966              	.L70:
 416:libs/STM32F30x_StdPeriph_Driver/src/stm32f30x_usart.c ****   }
 417:libs/STM32F30x_StdPeriph_Driver/src/stm32f30x_usart.c ****   else
 418:libs/STM32F30x_StdPeriph_Driver/src/stm32f30x_usart.c ****   {
 419:libs/STM32F30x_StdPeriph_Driver/src/stm32f30x_usart.c ****     /* Disable the selected USART by clearing the UE bit in the CR1 register */
 420:libs/STM32F30x_StdPeriph_Driver/src/stm32f30x_usart.c ****     USARTx->CR1 &= (uint32_t)~((uint32_t)USART_CR1_UE);
 967              		.loc 1 420 0
 968 0074 7B68     		ldr	r3, [r7, #4]
 969 0076 1B68     		ldr	r3, [r3, #0]
 970 0078 23F00102 		bic	r2, r3, #1
 971 007c 7B68     		ldr	r3, [r7, #4]
 972 007e 1A60     		str	r2, [r3, #0]
 973              	.L63:
 421:libs/STM32F30x_StdPeriph_Driver/src/stm32f30x_usart.c ****   }
 422:libs/STM32F30x_StdPeriph_Driver/src/stm32f30x_usart.c **** }
 974              		.loc 1 422 0
 975 0080 07F10807 		add	r7, r7, #8
 976 0084 BD46     		mov	sp, r7
 977 0086 80BD     		pop	{r7, pc}
 978              	.L73:
 979              		.align	2
 980              	.L72:
 981 0088 00380140 		.word	1073821696
 982 008c 00440040 		.word	1073759232
 983 0090 00480040 		.word	1073760256
 984 0094 004C0040 		.word	1073761280
 985 0098 00500040 		.word	1073762304
 986              		.cfi_endproc
 987              	.LFE115:
 989              		.section	.text.USART_DirectionModeCmd,"ax",%progbits
 990              		.align	2
 991              		.global	USART_DirectionModeCmd
 992              		.thumb
 993              		.thumb_func
 995              	USART_DirectionModeCmd:
 996              	.LFB116:
 423:libs/STM32F30x_StdPeriph_Driver/src/stm32f30x_usart.c **** 
 424:libs/STM32F30x_StdPeriph_Driver/src/stm32f30x_usart.c **** /**
 425:libs/STM32F30x_StdPeriph_Driver/src/stm32f30x_usart.c ****   * @brief  Enables or disables the USART's transmitter or receiver.
 426:libs/STM32F30x_StdPeriph_Driver/src/stm32f30x_usart.c ****   * @param  USARTx: Select the USART peripheral. This parameter can be one of the 
 427:libs/STM32F30x_StdPeriph_Driver/src/stm32f30x_usart.c ****   *         following values: USART1 or USART2 or USART3 or UART4 or UART5.
 428:libs/STM32F30x_StdPeriph_Driver/src/stm32f30x_usart.c ****   * @param  USART_Direction: specifies the USART direction.
 429:libs/STM32F30x_StdPeriph_Driver/src/stm32f30x_usart.c ****   *         This parameter can be any combination of the following values:
 430:libs/STM32F30x_StdPeriph_Driver/src/stm32f30x_usart.c ****   *         @arg USART_Mode_Tx: USART Transmitter
 431:libs/STM32F30x_StdPeriph_Driver/src/stm32f30x_usart.c ****   *         @arg USART_Mode_Rx: USART Receiver
 432:libs/STM32F30x_StdPeriph_Driver/src/stm32f30x_usart.c ****   * @param  NewState: new state of the USART transfer direction.
 433:libs/STM32F30x_StdPeriph_Driver/src/stm32f30x_usart.c ****   *         This parameter can be: ENABLE or DISABLE.  
 434:libs/STM32F30x_StdPeriph_Driver/src/stm32f30x_usart.c ****   * @retval None
 435:libs/STM32F30x_StdPeriph_Driver/src/stm32f30x_usart.c ****   */
 436:libs/STM32F30x_StdPeriph_Driver/src/stm32f30x_usart.c **** void USART_DirectionModeCmd(USART_TypeDef* USARTx, uint32_t USART_DirectionMode, FunctionalState Ne
 437:libs/STM32F30x_StdPeriph_Driver/src/stm32f30x_usart.c **** {
 997              		.loc 1 437 0
 998              		.cfi_startproc
 999              		@ args = 0, pretend = 0, frame = 16
 1000              		@ frame_needed = 1, uses_anonymous_args = 0
 1001 0000 80B5     		push	{r7, lr}
 1002              	.LCFI18:
 1003              		.cfi_def_cfa_offset 8
 1004              		.cfi_offset 7, -8
 1005              		.cfi_offset 14, -4
 1006 0002 84B0     		sub	sp, sp, #16
 1007              	.LCFI19:
 1008              		.cfi_def_cfa_offset 24
 1009 0004 00AF     		add	r7, sp, #0
 1010              	.LCFI20:
 1011              		.cfi_def_cfa_register 7
 1012 0006 F860     		str	r0, [r7, #12]
 1013 0008 B960     		str	r1, [r7, #8]
 1014 000a 1346     		mov	r3, r2
 1015 000c FB71     		strb	r3, [r7, #7]
 438:libs/STM32F30x_StdPeriph_Driver/src/stm32f30x_usart.c ****   /* Check the parameters */
 439:libs/STM32F30x_StdPeriph_Driver/src/stm32f30x_usart.c ****   assert_param(IS_USART_ALL_PERIPH(USARTx));
 1016              		.loc 1 439 0
 1017 000e FA68     		ldr	r2, [r7, #12]
 1018 0010 274B     		ldr	r3, .L85
 1019 0012 9A42     		cmp	r2, r3
 1020 0014 0FD0     		beq	.L75
 1021              		.loc 1 439 0 is_stmt 0 discriminator 2
 1022 0016 FA68     		ldr	r2, [r7, #12]
 1023 0018 264B     		ldr	r3, .L85+4
 1024 001a 9A42     		cmp	r2, r3
 1025 001c 0BD0     		beq	.L75
 1026              		.loc 1 439 0 discriminator 1
 1027 001e FA68     		ldr	r2, [r7, #12]
 1028 0020 254B     		ldr	r3, .L85+8
 1029 0022 9A42     		cmp	r2, r3
 1030 0024 07D0     		beq	.L75
 1031              		.loc 1 439 0 discriminator 2
 1032 0026 FA68     		ldr	r2, [r7, #12]
 1033 0028 244B     		ldr	r3, .L85+12
 1034 002a 9A42     		cmp	r2, r3
 1035 002c 03D0     		beq	.L75
 1036              		.loc 1 439 0 discriminator 3
 1037 002e FA68     		ldr	r2, [r7, #12]
 1038 0030 234B     		ldr	r3, .L85+16
 1039 0032 9A42     		cmp	r2, r3
 1040 0034 02D1     		bne	.L76
 1041              	.L75:
 1042              		.loc 1 439 0 discriminator 1
 1043 0036 4FF00103 		mov	r3, #1
 1044 003a 01E0     		b	.L77
 1045              	.L76:
 1046              		.loc 1 439 0 discriminator 3
 1047 003c 4FF00003 		mov	r3, #0
 1048              	.L77:
 1049              		.loc 1 439 0 discriminator 4
 1050 0040 1846     		mov	r0, r3
 1051 0042 FFF7FEFF 		bl	assert_param
 440:libs/STM32F30x_StdPeriph_Driver/src/stm32f30x_usart.c ****   assert_param(IS_USART_MODE(USART_DirectionMode));
 1052              		.loc 1 440 0 is_stmt 1 discriminator 4
 1053 0046 BB68     		ldr	r3, [r7, #8]
 1054 0048 23F00C03 		bic	r3, r3, #12
 1055 004c 002B     		cmp	r3, #0
 1056 004e 05D1     		bne	.L78
 1057              		.loc 1 440 0 is_stmt 0 discriminator 1
 1058 0050 BB68     		ldr	r3, [r7, #8]
 1059 0052 002B     		cmp	r3, #0
 1060 0054 02D0     		beq	.L78
 1061              		.loc 1 440 0 discriminator 3
 1062 0056 4FF00103 		mov	r3, #1
 1063 005a 01E0     		b	.L79
 1064              	.L78:
 1065              		.loc 1 440 0 discriminator 2
 1066 005c 4FF00003 		mov	r3, #0
 1067              	.L79:
 1068              		.loc 1 440 0 discriminator 4
 1069 0060 1846     		mov	r0, r3
 1070 0062 FFF7FEFF 		bl	assert_param
 441:libs/STM32F30x_StdPeriph_Driver/src/stm32f30x_usart.c ****   assert_param(IS_FUNCTIONAL_STATE(NewState)); 
 1071              		.loc 1 441 0 is_stmt 1 discriminator 4
 1072 0066 FB79     		ldrb	r3, [r7, #7]	@ zero_extendqisi2
 1073 0068 002B     		cmp	r3, #0
 1074 006a 02D0     		beq	.L80
 1075              		.loc 1 441 0 is_stmt 0 discriminator 2
 1076 006c FB79     		ldrb	r3, [r7, #7]	@ zero_extendqisi2
 1077 006e 012B     		cmp	r3, #1
 1078 0070 02D1     		bne	.L81
 1079              	.L80:
 1080              		.loc 1 441 0 discriminator 1
 1081 0072 4FF00103 		mov	r3, #1
 1082 0076 01E0     		b	.L82
 1083              	.L81:
 1084              		.loc 1 441 0 discriminator 3
 1085 0078 4FF00003 		mov	r3, #0
 1086              	.L82:
 1087              		.loc 1 441 0 discriminator 4
 1088 007c 1846     		mov	r0, r3
 1089 007e FFF7FEFF 		bl	assert_param
 442:libs/STM32F30x_StdPeriph_Driver/src/stm32f30x_usart.c **** 
 443:libs/STM32F30x_StdPeriph_Driver/src/stm32f30x_usart.c ****   if (NewState != DISABLE)
 1090              		.loc 1 443 0 is_stmt 1 discriminator 4
 1091 0082 FB79     		ldrb	r3, [r7, #7]	@ zero_extendqisi2
 1092 0084 002B     		cmp	r3, #0
 1093 0086 06D0     		beq	.L83
 444:libs/STM32F30x_StdPeriph_Driver/src/stm32f30x_usart.c ****   {
 445:libs/STM32F30x_StdPeriph_Driver/src/stm32f30x_usart.c ****     /* Enable the USART's transfer interface by setting the TE and/or RE bits 
 446:libs/STM32F30x_StdPeriph_Driver/src/stm32f30x_usart.c ****        in the USART CR1 register */
 447:libs/STM32F30x_StdPeriph_Driver/src/stm32f30x_usart.c ****     USARTx->CR1 |= USART_DirectionMode;
 1094              		.loc 1 447 0
 1095 0088 FB68     		ldr	r3, [r7, #12]
 1096 008a 1A68     		ldr	r2, [r3, #0]
 1097 008c BB68     		ldr	r3, [r7, #8]
 1098 008e 1A43     		orrs	r2, r2, r3
 1099 0090 FB68     		ldr	r3, [r7, #12]
 1100 0092 1A60     		str	r2, [r3, #0]
 1101 0094 07E0     		b	.L74
 1102              	.L83:
 448:libs/STM32F30x_StdPeriph_Driver/src/stm32f30x_usart.c ****   }
 449:libs/STM32F30x_StdPeriph_Driver/src/stm32f30x_usart.c ****   else
 450:libs/STM32F30x_StdPeriph_Driver/src/stm32f30x_usart.c ****   {
 451:libs/STM32F30x_StdPeriph_Driver/src/stm32f30x_usart.c ****     /* Disable the USART's transfer interface by clearing the TE and/or RE bits
 452:libs/STM32F30x_StdPeriph_Driver/src/stm32f30x_usart.c ****        in the USART CR3 register */
 453:libs/STM32F30x_StdPeriph_Driver/src/stm32f30x_usart.c ****     USARTx->CR1 &= (uint32_t)~USART_DirectionMode;
 1103              		.loc 1 453 0
 1104 0096 FB68     		ldr	r3, [r7, #12]
 1105 0098 1A68     		ldr	r2, [r3, #0]
 1106 009a BB68     		ldr	r3, [r7, #8]
 1107 009c 6FEA0303 		mvn	r3, r3
 1108 00a0 1A40     		ands	r2, r2, r3
 1109 00a2 FB68     		ldr	r3, [r7, #12]
 1110 00a4 1A60     		str	r2, [r3, #0]
 1111              	.L74:
 454:libs/STM32F30x_StdPeriph_Driver/src/stm32f30x_usart.c ****   }
 455:libs/STM32F30x_StdPeriph_Driver/src/stm32f30x_usart.c **** }
 1112              		.loc 1 455 0
 1113 00a6 07F11007 		add	r7, r7, #16
 1114 00aa BD46     		mov	sp, r7
 1115 00ac 80BD     		pop	{r7, pc}
 1116              	.L86:
 1117 00ae 00BF     		.align	2
 1118              	.L85:
 1119 00b0 00380140 		.word	1073821696
 1120 00b4 00440040 		.word	1073759232
 1121 00b8 00480040 		.word	1073760256
 1122 00bc 004C0040 		.word	1073761280
 1123 00c0 00500040 		.word	1073762304
 1124              		.cfi_endproc
 1125              	.LFE116:
 1127              		.section	.text.USART_OverSampling8Cmd,"ax",%progbits
 1128              		.align	2
 1129              		.global	USART_OverSampling8Cmd
 1130              		.thumb
 1131              		.thumb_func
 1133              	USART_OverSampling8Cmd:
 1134              	.LFB117:
 456:libs/STM32F30x_StdPeriph_Driver/src/stm32f30x_usart.c **** 
 457:libs/STM32F30x_StdPeriph_Driver/src/stm32f30x_usart.c **** /**
 458:libs/STM32F30x_StdPeriph_Driver/src/stm32f30x_usart.c ****   * @brief  Enables or disables the USART's 8x oversampling mode.
 459:libs/STM32F30x_StdPeriph_Driver/src/stm32f30x_usart.c ****   * @param  USARTx: Select the USART peripheral. This parameter can be one of the 
 460:libs/STM32F30x_StdPeriph_Driver/src/stm32f30x_usart.c ****   *         following values: USART1 or USART2 or USART3 or UART4 or UART5.
 461:libs/STM32F30x_StdPeriph_Driver/src/stm32f30x_usart.c ****   * @param  NewState: new state of the USART 8x oversampling mode.
 462:libs/STM32F30x_StdPeriph_Driver/src/stm32f30x_usart.c ****   *         This parameter can be: ENABLE or DISABLE.
 463:libs/STM32F30x_StdPeriph_Driver/src/stm32f30x_usart.c ****   * @note
 464:libs/STM32F30x_StdPeriph_Driver/src/stm32f30x_usart.c ****   *   This function has to be called before calling USART_Init()
 465:libs/STM32F30x_StdPeriph_Driver/src/stm32f30x_usart.c ****   *   function in order to have correct baudrate Divider value.
 466:libs/STM32F30x_StdPeriph_Driver/src/stm32f30x_usart.c ****   * @retval None
 467:libs/STM32F30x_StdPeriph_Driver/src/stm32f30x_usart.c ****   */
 468:libs/STM32F30x_StdPeriph_Driver/src/stm32f30x_usart.c **** void USART_OverSampling8Cmd(USART_TypeDef* USARTx, FunctionalState NewState)
 469:libs/STM32F30x_StdPeriph_Driver/src/stm32f30x_usart.c **** {
 1135              		.loc 1 469 0
 1136              		.cfi_startproc
 1137              		@ args = 0, pretend = 0, frame = 8
 1138              		@ frame_needed = 1, uses_anonymous_args = 0
 1139 0000 80B5     		push	{r7, lr}
 1140              	.LCFI21:
 1141              		.cfi_def_cfa_offset 8
 1142              		.cfi_offset 7, -8
 1143              		.cfi_offset 14, -4
 1144 0002 82B0     		sub	sp, sp, #8
 1145              	.LCFI22:
 1146              		.cfi_def_cfa_offset 16
 1147 0004 00AF     		add	r7, sp, #0
 1148              	.LCFI23:
 1149              		.cfi_def_cfa_register 7
 1150 0006 7860     		str	r0, [r7, #4]
 1151 0008 0B46     		mov	r3, r1
 1152 000a FB70     		strb	r3, [r7, #3]
 470:libs/STM32F30x_StdPeriph_Driver/src/stm32f30x_usart.c ****   /* Check the parameters */
 471:libs/STM32F30x_StdPeriph_Driver/src/stm32f30x_usart.c ****   assert_param(IS_USART_ALL_PERIPH(USARTx));
 1153              		.loc 1 471 0
 1154 000c 7A68     		ldr	r2, [r7, #4]
 1155 000e 1E4B     		ldr	r3, .L96
 1156 0010 9A42     		cmp	r2, r3
 1157 0012 0FD0     		beq	.L88
 1158              		.loc 1 471 0 is_stmt 0 discriminator 2
 1159 0014 7A68     		ldr	r2, [r7, #4]
 1160 0016 1D4B     		ldr	r3, .L96+4
 1161 0018 9A42     		cmp	r2, r3
 1162 001a 0BD0     		beq	.L88
 1163              		.loc 1 471 0 discriminator 1
 1164 001c 7A68     		ldr	r2, [r7, #4]
 1165 001e 1C4B     		ldr	r3, .L96+8
 1166 0020 9A42     		cmp	r2, r3
 1167 0022 07D0     		beq	.L88
 1168              		.loc 1 471 0 discriminator 2
 1169 0024 7A68     		ldr	r2, [r7, #4]
 1170 0026 1B4B     		ldr	r3, .L96+12
 1171 0028 9A42     		cmp	r2, r3
 1172 002a 03D0     		beq	.L88
 1173              		.loc 1 471 0 discriminator 3
 1174 002c 7A68     		ldr	r2, [r7, #4]
 1175 002e 1A4B     		ldr	r3, .L96+16
 1176 0030 9A42     		cmp	r2, r3
 1177 0032 02D1     		bne	.L89
 1178              	.L88:
 1179              		.loc 1 471 0 discriminator 1
 1180 0034 4FF00103 		mov	r3, #1
 1181 0038 01E0     		b	.L90
 1182              	.L89:
 1183              		.loc 1 471 0 discriminator 3
 1184 003a 4FF00003 		mov	r3, #0
 1185              	.L90:
 1186              		.loc 1 471 0 discriminator 4
 1187 003e 1846     		mov	r0, r3
 1188 0040 FFF7FEFF 		bl	assert_param
 472:libs/STM32F30x_StdPeriph_Driver/src/stm32f30x_usart.c ****   assert_param(IS_FUNCTIONAL_STATE(NewState));
 1189              		.loc 1 472 0 is_stmt 1 discriminator 4
 1190 0044 FB78     		ldrb	r3, [r7, #3]	@ zero_extendqisi2
 1191 0046 002B     		cmp	r3, #0
 1192 0048 02D0     		beq	.L91
 1193              		.loc 1 472 0 is_stmt 0 discriminator 2
 1194 004a FB78     		ldrb	r3, [r7, #3]	@ zero_extendqisi2
 1195 004c 012B     		cmp	r3, #1
 1196 004e 02D1     		bne	.L92
 1197              	.L91:
 1198              		.loc 1 472 0 discriminator 1
 1199 0050 4FF00103 		mov	r3, #1
 1200 0054 01E0     		b	.L93
 1201              	.L92:
 1202              		.loc 1 472 0 discriminator 3
 1203 0056 4FF00003 		mov	r3, #0
 1204              	.L93:
 1205              		.loc 1 472 0 discriminator 4
 1206 005a 1846     		mov	r0, r3
 1207 005c FFF7FEFF 		bl	assert_param
 473:libs/STM32F30x_StdPeriph_Driver/src/stm32f30x_usart.c ****   
 474:libs/STM32F30x_StdPeriph_Driver/src/stm32f30x_usart.c ****   if (NewState != DISABLE)
 1208              		.loc 1 474 0 is_stmt 1 discriminator 4
 1209 0060 FB78     		ldrb	r3, [r7, #3]	@ zero_extendqisi2
 1210 0062 002B     		cmp	r3, #0
 1211 0064 06D0     		beq	.L94
 475:libs/STM32F30x_StdPeriph_Driver/src/stm32f30x_usart.c ****   {
 476:libs/STM32F30x_StdPeriph_Driver/src/stm32f30x_usart.c ****     /* Enable the 8x Oversampling mode by setting the OVER8 bit in the CR1 register */
 477:libs/STM32F30x_StdPeriph_Driver/src/stm32f30x_usart.c ****     USARTx->CR1 |= USART_CR1_OVER8;
 1212              		.loc 1 477 0
 1213 0066 7B68     		ldr	r3, [r7, #4]
 1214 0068 1B68     		ldr	r3, [r3, #0]
 1215 006a 43F40042 		orr	r2, r3, #32768
 1216 006e 7B68     		ldr	r3, [r7, #4]
 1217 0070 1A60     		str	r2, [r3, #0]
 1218 0072 05E0     		b	.L87
 1219              	.L94:
 478:libs/STM32F30x_StdPeriph_Driver/src/stm32f30x_usart.c ****   }
 479:libs/STM32F30x_StdPeriph_Driver/src/stm32f30x_usart.c ****   else
 480:libs/STM32F30x_StdPeriph_Driver/src/stm32f30x_usart.c ****   {
 481:libs/STM32F30x_StdPeriph_Driver/src/stm32f30x_usart.c ****     /* Disable the 8x Oversampling mode by clearing the OVER8 bit in the CR1 register */
 482:libs/STM32F30x_StdPeriph_Driver/src/stm32f30x_usart.c ****     USARTx->CR1 &= (uint32_t)~((uint32_t)USART_CR1_OVER8);
 1220              		.loc 1 482 0
 1221 0074 7B68     		ldr	r3, [r7, #4]
 1222 0076 1B68     		ldr	r3, [r3, #0]
 1223 0078 23F40042 		bic	r2, r3, #32768
 1224 007c 7B68     		ldr	r3, [r7, #4]
 1225 007e 1A60     		str	r2, [r3, #0]
 1226              	.L87:
 483:libs/STM32F30x_StdPeriph_Driver/src/stm32f30x_usart.c ****   }
 484:libs/STM32F30x_StdPeriph_Driver/src/stm32f30x_usart.c **** }
 1227              		.loc 1 484 0
 1228 0080 07F10807 		add	r7, r7, #8
 1229 0084 BD46     		mov	sp, r7
 1230 0086 80BD     		pop	{r7, pc}
 1231              	.L97:
 1232              		.align	2
 1233              	.L96:
 1234 0088 00380140 		.word	1073821696
 1235 008c 00440040 		.word	1073759232
 1236 0090 00480040 		.word	1073760256
 1237 0094 004C0040 		.word	1073761280
 1238 0098 00500040 		.word	1073762304
 1239              		.cfi_endproc
 1240              	.LFE117:
 1242              		.section	.text.USART_OneBitMethodCmd,"ax",%progbits
 1243              		.align	2
 1244              		.global	USART_OneBitMethodCmd
 1245              		.thumb
 1246              		.thumb_func
 1248              	USART_OneBitMethodCmd:
 1249              	.LFB118:
 485:libs/STM32F30x_StdPeriph_Driver/src/stm32f30x_usart.c **** 
 486:libs/STM32F30x_StdPeriph_Driver/src/stm32f30x_usart.c **** /**
 487:libs/STM32F30x_StdPeriph_Driver/src/stm32f30x_usart.c ****   * @brief  Enables or disables the USART's one bit sampling method.
 488:libs/STM32F30x_StdPeriph_Driver/src/stm32f30x_usart.c ****   * @param  USARTx: Select the USART peripheral. This parameter can be one of the
 489:libs/STM32F30x_StdPeriph_Driver/src/stm32f30x_usart.c ****   *         following values: USART1 or USART2 or USART3 or UART4 or UART5.
 490:libs/STM32F30x_StdPeriph_Driver/src/stm32f30x_usart.c ****   * @param  NewState: new state of the USART one bit sampling method.
 491:libs/STM32F30x_StdPeriph_Driver/src/stm32f30x_usart.c ****   *         This parameter can be: ENABLE or DISABLE.
 492:libs/STM32F30x_StdPeriph_Driver/src/stm32f30x_usart.c ****   * @note
 493:libs/STM32F30x_StdPeriph_Driver/src/stm32f30x_usart.c ****   *   This function has to be called before calling USART_Cmd() function.
 494:libs/STM32F30x_StdPeriph_Driver/src/stm32f30x_usart.c ****   * @retval None
 495:libs/STM32F30x_StdPeriph_Driver/src/stm32f30x_usart.c ****   */
 496:libs/STM32F30x_StdPeriph_Driver/src/stm32f30x_usart.c **** void USART_OneBitMethodCmd(USART_TypeDef* USARTx, FunctionalState NewState)
 497:libs/STM32F30x_StdPeriph_Driver/src/stm32f30x_usart.c **** {
 1250              		.loc 1 497 0
 1251              		.cfi_startproc
 1252              		@ args = 0, pretend = 0, frame = 8
 1253              		@ frame_needed = 1, uses_anonymous_args = 0
 1254 0000 80B5     		push	{r7, lr}
 1255              	.LCFI24:
 1256              		.cfi_def_cfa_offset 8
 1257              		.cfi_offset 7, -8
 1258              		.cfi_offset 14, -4
 1259 0002 82B0     		sub	sp, sp, #8
 1260              	.LCFI25:
 1261              		.cfi_def_cfa_offset 16
 1262 0004 00AF     		add	r7, sp, #0
 1263              	.LCFI26:
 1264              		.cfi_def_cfa_register 7
 1265 0006 7860     		str	r0, [r7, #4]
 1266 0008 0B46     		mov	r3, r1
 1267 000a FB70     		strb	r3, [r7, #3]
 498:libs/STM32F30x_StdPeriph_Driver/src/stm32f30x_usart.c ****   /* Check the parameters */
 499:libs/STM32F30x_StdPeriph_Driver/src/stm32f30x_usart.c ****   assert_param(IS_USART_ALL_PERIPH(USARTx));
 1268              		.loc 1 499 0
 1269 000c 7A68     		ldr	r2, [r7, #4]
 1270 000e 1E4B     		ldr	r3, .L107
 1271 0010 9A42     		cmp	r2, r3
 1272 0012 0FD0     		beq	.L99
 1273              		.loc 1 499 0 is_stmt 0 discriminator 2
 1274 0014 7A68     		ldr	r2, [r7, #4]
 1275 0016 1D4B     		ldr	r3, .L107+4
 1276 0018 9A42     		cmp	r2, r3
 1277 001a 0BD0     		beq	.L99
 1278              		.loc 1 499 0 discriminator 1
 1279 001c 7A68     		ldr	r2, [r7, #4]
 1280 001e 1C4B     		ldr	r3, .L107+8
 1281 0020 9A42     		cmp	r2, r3
 1282 0022 07D0     		beq	.L99
 1283              		.loc 1 499 0 discriminator 2
 1284 0024 7A68     		ldr	r2, [r7, #4]
 1285 0026 1B4B     		ldr	r3, .L107+12
 1286 0028 9A42     		cmp	r2, r3
 1287 002a 03D0     		beq	.L99
 1288              		.loc 1 499 0 discriminator 3
 1289 002c 7A68     		ldr	r2, [r7, #4]
 1290 002e 1A4B     		ldr	r3, .L107+16
 1291 0030 9A42     		cmp	r2, r3
 1292 0032 02D1     		bne	.L100
 1293              	.L99:
 1294              		.loc 1 499 0 discriminator 1
 1295 0034 4FF00103 		mov	r3, #1
 1296 0038 01E0     		b	.L101
 1297              	.L100:
 1298              		.loc 1 499 0 discriminator 3
 1299 003a 4FF00003 		mov	r3, #0
 1300              	.L101:
 1301              		.loc 1 499 0 discriminator 4
 1302 003e 1846     		mov	r0, r3
 1303 0040 FFF7FEFF 		bl	assert_param
 500:libs/STM32F30x_StdPeriph_Driver/src/stm32f30x_usart.c ****   assert_param(IS_FUNCTIONAL_STATE(NewState));
 1304              		.loc 1 500 0 is_stmt 1 discriminator 4
 1305 0044 FB78     		ldrb	r3, [r7, #3]	@ zero_extendqisi2
 1306 0046 002B     		cmp	r3, #0
 1307 0048 02D0     		beq	.L102
 1308              		.loc 1 500 0 is_stmt 0 discriminator 2
 1309 004a FB78     		ldrb	r3, [r7, #3]	@ zero_extendqisi2
 1310 004c 012B     		cmp	r3, #1
 1311 004e 02D1     		bne	.L103
 1312              	.L102:
 1313              		.loc 1 500 0 discriminator 1
 1314 0050 4FF00103 		mov	r3, #1
 1315 0054 01E0     		b	.L104
 1316              	.L103:
 1317              		.loc 1 500 0 discriminator 3
 1318 0056 4FF00003 		mov	r3, #0
 1319              	.L104:
 1320              		.loc 1 500 0 discriminator 4
 1321 005a 1846     		mov	r0, r3
 1322 005c FFF7FEFF 		bl	assert_param
 501:libs/STM32F30x_StdPeriph_Driver/src/stm32f30x_usart.c **** 
 502:libs/STM32F30x_StdPeriph_Driver/src/stm32f30x_usart.c ****   if (NewState != DISABLE)
 1323              		.loc 1 502 0 is_stmt 1 discriminator 4
 1324 0060 FB78     		ldrb	r3, [r7, #3]	@ zero_extendqisi2
 1325 0062 002B     		cmp	r3, #0
 1326 0064 06D0     		beq	.L105
 503:libs/STM32F30x_StdPeriph_Driver/src/stm32f30x_usart.c ****   {
 504:libs/STM32F30x_StdPeriph_Driver/src/stm32f30x_usart.c ****     /* Enable the one bit method by setting the ONEBITE bit in the CR3 register */
 505:libs/STM32F30x_StdPeriph_Driver/src/stm32f30x_usart.c ****     USARTx->CR3 |= USART_CR3_ONEBIT;
 1327              		.loc 1 505 0
 1328 0066 7B68     		ldr	r3, [r7, #4]
 1329 0068 9B68     		ldr	r3, [r3, #8]
 1330 006a 43F40062 		orr	r2, r3, #2048
 1331 006e 7B68     		ldr	r3, [r7, #4]
 1332 0070 9A60     		str	r2, [r3, #8]
 1333 0072 05E0     		b	.L98
 1334              	.L105:
 506:libs/STM32F30x_StdPeriph_Driver/src/stm32f30x_usart.c ****   }
 507:libs/STM32F30x_StdPeriph_Driver/src/stm32f30x_usart.c ****   else
 508:libs/STM32F30x_StdPeriph_Driver/src/stm32f30x_usart.c ****   {
 509:libs/STM32F30x_StdPeriph_Driver/src/stm32f30x_usart.c ****     /* Disable the one bit method by clearing the ONEBITE bit in the CR3 register */
 510:libs/STM32F30x_StdPeriph_Driver/src/stm32f30x_usart.c ****     USARTx->CR3 &= (uint32_t)~((uint32_t)USART_CR3_ONEBIT);
 1335              		.loc 1 510 0
 1336 0074 7B68     		ldr	r3, [r7, #4]
 1337 0076 9B68     		ldr	r3, [r3, #8]
 1338 0078 23F40062 		bic	r2, r3, #2048
 1339 007c 7B68     		ldr	r3, [r7, #4]
 1340 007e 9A60     		str	r2, [r3, #8]
 1341              	.L98:
 511:libs/STM32F30x_StdPeriph_Driver/src/stm32f30x_usart.c ****   }
 512:libs/STM32F30x_StdPeriph_Driver/src/stm32f30x_usart.c **** }
 1342              		.loc 1 512 0
 1343 0080 07F10807 		add	r7, r7, #8
 1344 0084 BD46     		mov	sp, r7
 1345 0086 80BD     		pop	{r7, pc}
 1346              	.L108:
 1347              		.align	2
 1348              	.L107:
 1349 0088 00380140 		.word	1073821696
 1350 008c 00440040 		.word	1073759232
 1351 0090 00480040 		.word	1073760256
 1352 0094 004C0040 		.word	1073761280
 1353 0098 00500040 		.word	1073762304
 1354              		.cfi_endproc
 1355              	.LFE118:
 1357              		.section	.text.USART_MSBFirstCmd,"ax",%progbits
 1358              		.align	2
 1359              		.global	USART_MSBFirstCmd
 1360              		.thumb
 1361              		.thumb_func
 1363              	USART_MSBFirstCmd:
 1364              	.LFB119:
 513:libs/STM32F30x_StdPeriph_Driver/src/stm32f30x_usart.c **** 
 514:libs/STM32F30x_StdPeriph_Driver/src/stm32f30x_usart.c **** /**
 515:libs/STM32F30x_StdPeriph_Driver/src/stm32f30x_usart.c ****   * @brief  Enables or disables the USART's most significant bit first 
 516:libs/STM32F30x_StdPeriph_Driver/src/stm32f30x_usart.c ****   *         transmitted/received following the start bit.
 517:libs/STM32F30x_StdPeriph_Driver/src/stm32f30x_usart.c ****   * @param  USARTx: Select the USART peripheral. This parameter can be one of the
 518:libs/STM32F30x_StdPeriph_Driver/src/stm32f30x_usart.c ****   *         following values: USART1 or USART2 or USART3 or UART4 or UART5.
 519:libs/STM32F30x_StdPeriph_Driver/src/stm32f30x_usart.c ****   * @param  NewState: new state of the USART most significant bit first
 520:libs/STM32F30x_StdPeriph_Driver/src/stm32f30x_usart.c ****   *         transmitted/received following the start bit.
 521:libs/STM32F30x_StdPeriph_Driver/src/stm32f30x_usart.c ****   *         This parameter can be: ENABLE or DISABLE.
 522:libs/STM32F30x_StdPeriph_Driver/src/stm32f30x_usart.c ****   * @note
 523:libs/STM32F30x_StdPeriph_Driver/src/stm32f30x_usart.c ****   *   This function has to be called before calling USART_Cmd() function. 
 524:libs/STM32F30x_StdPeriph_Driver/src/stm32f30x_usart.c ****   * @retval None
 525:libs/STM32F30x_StdPeriph_Driver/src/stm32f30x_usart.c ****   */
 526:libs/STM32F30x_StdPeriph_Driver/src/stm32f30x_usart.c **** void USART_MSBFirstCmd(USART_TypeDef* USARTx, FunctionalState NewState)
 527:libs/STM32F30x_StdPeriph_Driver/src/stm32f30x_usart.c **** {
 1365              		.loc 1 527 0
 1366              		.cfi_startproc
 1367              		@ args = 0, pretend = 0, frame = 8
 1368              		@ frame_needed = 1, uses_anonymous_args = 0
 1369 0000 80B5     		push	{r7, lr}
 1370              	.LCFI27:
 1371              		.cfi_def_cfa_offset 8
 1372              		.cfi_offset 7, -8
 1373              		.cfi_offset 14, -4
 1374 0002 82B0     		sub	sp, sp, #8
 1375              	.LCFI28:
 1376              		.cfi_def_cfa_offset 16
 1377 0004 00AF     		add	r7, sp, #0
 1378              	.LCFI29:
 1379              		.cfi_def_cfa_register 7
 1380 0006 7860     		str	r0, [r7, #4]
 1381 0008 0B46     		mov	r3, r1
 1382 000a FB70     		strb	r3, [r7, #3]
 528:libs/STM32F30x_StdPeriph_Driver/src/stm32f30x_usart.c ****   /* Check the parameters */
 529:libs/STM32F30x_StdPeriph_Driver/src/stm32f30x_usart.c ****   assert_param(IS_USART_ALL_PERIPH(USARTx));
 1383              		.loc 1 529 0
 1384 000c 7A68     		ldr	r2, [r7, #4]
 1385 000e 1E4B     		ldr	r3, .L118
 1386 0010 9A42     		cmp	r2, r3
 1387 0012 0FD0     		beq	.L110
 1388              		.loc 1 529 0 is_stmt 0 discriminator 2
 1389 0014 7A68     		ldr	r2, [r7, #4]
 1390 0016 1D4B     		ldr	r3, .L118+4
 1391 0018 9A42     		cmp	r2, r3
 1392 001a 0BD0     		beq	.L110
 1393              		.loc 1 529 0 discriminator 1
 1394 001c 7A68     		ldr	r2, [r7, #4]
 1395 001e 1C4B     		ldr	r3, .L118+8
 1396 0020 9A42     		cmp	r2, r3
 1397 0022 07D0     		beq	.L110
 1398              		.loc 1 529 0 discriminator 2
 1399 0024 7A68     		ldr	r2, [r7, #4]
 1400 0026 1B4B     		ldr	r3, .L118+12
 1401 0028 9A42     		cmp	r2, r3
 1402 002a 03D0     		beq	.L110
 1403              		.loc 1 529 0 discriminator 3
 1404 002c 7A68     		ldr	r2, [r7, #4]
 1405 002e 1A4B     		ldr	r3, .L118+16
 1406 0030 9A42     		cmp	r2, r3
 1407 0032 02D1     		bne	.L111
 1408              	.L110:
 1409              		.loc 1 529 0 discriminator 1
 1410 0034 4FF00103 		mov	r3, #1
 1411 0038 01E0     		b	.L112
 1412              	.L111:
 1413              		.loc 1 529 0 discriminator 3
 1414 003a 4FF00003 		mov	r3, #0
 1415              	.L112:
 1416              		.loc 1 529 0 discriminator 4
 1417 003e 1846     		mov	r0, r3
 1418 0040 FFF7FEFF 		bl	assert_param
 530:libs/STM32F30x_StdPeriph_Driver/src/stm32f30x_usart.c ****   assert_param(IS_FUNCTIONAL_STATE(NewState));
 1419              		.loc 1 530 0 is_stmt 1 discriminator 4
 1420 0044 FB78     		ldrb	r3, [r7, #3]	@ zero_extendqisi2
 1421 0046 002B     		cmp	r3, #0
 1422 0048 02D0     		beq	.L113
 1423              		.loc 1 530 0 is_stmt 0 discriminator 2
 1424 004a FB78     		ldrb	r3, [r7, #3]	@ zero_extendqisi2
 1425 004c 012B     		cmp	r3, #1
 1426 004e 02D1     		bne	.L114
 1427              	.L113:
 1428              		.loc 1 530 0 discriminator 1
 1429 0050 4FF00103 		mov	r3, #1
 1430 0054 01E0     		b	.L115
 1431              	.L114:
 1432              		.loc 1 530 0 discriminator 3
 1433 0056 4FF00003 		mov	r3, #0
 1434              	.L115:
 1435              		.loc 1 530 0 discriminator 4
 1436 005a 1846     		mov	r0, r3
 1437 005c FFF7FEFF 		bl	assert_param
 531:libs/STM32F30x_StdPeriph_Driver/src/stm32f30x_usart.c **** 
 532:libs/STM32F30x_StdPeriph_Driver/src/stm32f30x_usart.c ****   if (NewState != DISABLE)
 1438              		.loc 1 532 0 is_stmt 1 discriminator 4
 1439 0060 FB78     		ldrb	r3, [r7, #3]	@ zero_extendqisi2
 1440 0062 002B     		cmp	r3, #0
 1441 0064 06D0     		beq	.L116
 533:libs/STM32F30x_StdPeriph_Driver/src/stm32f30x_usart.c ****   {
 534:libs/STM32F30x_StdPeriph_Driver/src/stm32f30x_usart.c ****     /* Enable the most significant bit first transmitted/received following the
 535:libs/STM32F30x_StdPeriph_Driver/src/stm32f30x_usart.c ****        start bit by setting the MSBFIRST bit in the CR2 register */
 536:libs/STM32F30x_StdPeriph_Driver/src/stm32f30x_usart.c ****     USARTx->CR2 |= USART_CR2_MSBFIRST;
 1442              		.loc 1 536 0
 1443 0066 7B68     		ldr	r3, [r7, #4]
 1444 0068 5B68     		ldr	r3, [r3, #4]
 1445 006a 43F40022 		orr	r2, r3, #524288
 1446 006e 7B68     		ldr	r3, [r7, #4]
 1447 0070 5A60     		str	r2, [r3, #4]
 1448 0072 05E0     		b	.L109
 1449              	.L116:
 537:libs/STM32F30x_StdPeriph_Driver/src/stm32f30x_usart.c ****   }
 538:libs/STM32F30x_StdPeriph_Driver/src/stm32f30x_usart.c ****   else
 539:libs/STM32F30x_StdPeriph_Driver/src/stm32f30x_usart.c ****   {
 540:libs/STM32F30x_StdPeriph_Driver/src/stm32f30x_usart.c ****     /* Disable the most significant bit first transmitted/received following the
 541:libs/STM32F30x_StdPeriph_Driver/src/stm32f30x_usart.c ****        start bit by clearing the MSBFIRST bit in the CR2 register */
 542:libs/STM32F30x_StdPeriph_Driver/src/stm32f30x_usart.c ****     USARTx->CR2 &= (uint32_t)~((uint32_t)USART_CR2_MSBFIRST);
 1450              		.loc 1 542 0
 1451 0074 7B68     		ldr	r3, [r7, #4]
 1452 0076 5B68     		ldr	r3, [r3, #4]
 1453 0078 23F40022 		bic	r2, r3, #524288
 1454 007c 7B68     		ldr	r3, [r7, #4]
 1455 007e 5A60     		str	r2, [r3, #4]
 1456              	.L109:
 543:libs/STM32F30x_StdPeriph_Driver/src/stm32f30x_usart.c ****   }
 544:libs/STM32F30x_StdPeriph_Driver/src/stm32f30x_usart.c **** }
 1457              		.loc 1 544 0
 1458 0080 07F10807 		add	r7, r7, #8
 1459 0084 BD46     		mov	sp, r7
 1460 0086 80BD     		pop	{r7, pc}
 1461              	.L119:
 1462              		.align	2
 1463              	.L118:
 1464 0088 00380140 		.word	1073821696
 1465 008c 00440040 		.word	1073759232
 1466 0090 00480040 		.word	1073760256
 1467 0094 004C0040 		.word	1073761280
 1468 0098 00500040 		.word	1073762304
 1469              		.cfi_endproc
 1470              	.LFE119:
 1472              		.section	.text.USART_DataInvCmd,"ax",%progbits
 1473              		.align	2
 1474              		.global	USART_DataInvCmd
 1475              		.thumb
 1476              		.thumb_func
 1478              	USART_DataInvCmd:
 1479              	.LFB120:
 545:libs/STM32F30x_StdPeriph_Driver/src/stm32f30x_usart.c **** 
 546:libs/STM32F30x_StdPeriph_Driver/src/stm32f30x_usart.c **** /**
 547:libs/STM32F30x_StdPeriph_Driver/src/stm32f30x_usart.c ****   * @brief  Enables or disables the binary data inversion.
 548:libs/STM32F30x_StdPeriph_Driver/src/stm32f30x_usart.c ****   * @param  USARTx: Select the USART peripheral. This parameter can be one of the 
 549:libs/STM32F30x_StdPeriph_Driver/src/stm32f30x_usart.c ****   *         following values: USART1 or USART2 or USART3 or UART4 or UART5.
 550:libs/STM32F30x_StdPeriph_Driver/src/stm32f30x_usart.c ****   * @param  NewState: new defined levels for the USART data.
 551:libs/STM32F30x_StdPeriph_Driver/src/stm32f30x_usart.c ****   *         This parameter can be: ENABLE or DISABLE.
 552:libs/STM32F30x_StdPeriph_Driver/src/stm32f30x_usart.c ****   *   @arg  ENABLE: Logical data from the data register are send/received in negative
 553:libs/STM32F30x_StdPeriph_Driver/src/stm32f30x_usart.c ****   *         logic. (1=L, 0=H). The parity bit is also inverted.
 554:libs/STM32F30x_StdPeriph_Driver/src/stm32f30x_usart.c ****   *   @arg  DISABLE: Logical data from the data register are send/received in positive
 555:libs/STM32F30x_StdPeriph_Driver/src/stm32f30x_usart.c ****   *         logic. (1=H, 0=L) 
 556:libs/STM32F30x_StdPeriph_Driver/src/stm32f30x_usart.c ****   * @note
 557:libs/STM32F30x_StdPeriph_Driver/src/stm32f30x_usart.c ****   *   This function has to be called before calling USART_Cmd() function. 
 558:libs/STM32F30x_StdPeriph_Driver/src/stm32f30x_usart.c ****   * @retval None
 559:libs/STM32F30x_StdPeriph_Driver/src/stm32f30x_usart.c ****   */
 560:libs/STM32F30x_StdPeriph_Driver/src/stm32f30x_usart.c **** void USART_DataInvCmd(USART_TypeDef* USARTx, FunctionalState NewState)
 561:libs/STM32F30x_StdPeriph_Driver/src/stm32f30x_usart.c **** {
 1480              		.loc 1 561 0
 1481              		.cfi_startproc
 1482              		@ args = 0, pretend = 0, frame = 8
 1483              		@ frame_needed = 1, uses_anonymous_args = 0
 1484 0000 80B5     		push	{r7, lr}
 1485              	.LCFI30:
 1486              		.cfi_def_cfa_offset 8
 1487              		.cfi_offset 7, -8
 1488              		.cfi_offset 14, -4
 1489 0002 82B0     		sub	sp, sp, #8
 1490              	.LCFI31:
 1491              		.cfi_def_cfa_offset 16
 1492 0004 00AF     		add	r7, sp, #0
 1493              	.LCFI32:
 1494              		.cfi_def_cfa_register 7
 1495 0006 7860     		str	r0, [r7, #4]
 1496 0008 0B46     		mov	r3, r1
 1497 000a FB70     		strb	r3, [r7, #3]
 562:libs/STM32F30x_StdPeriph_Driver/src/stm32f30x_usart.c ****   /* Check the parameters */
 563:libs/STM32F30x_StdPeriph_Driver/src/stm32f30x_usart.c ****   assert_param(IS_USART_ALL_PERIPH(USARTx));
 1498              		.loc 1 563 0
 1499 000c 7A68     		ldr	r2, [r7, #4]
 1500 000e 1E4B     		ldr	r3, .L129
 1501 0010 9A42     		cmp	r2, r3
 1502 0012 0FD0     		beq	.L121
 1503              		.loc 1 563 0 is_stmt 0 discriminator 2
 1504 0014 7A68     		ldr	r2, [r7, #4]
 1505 0016 1D4B     		ldr	r3, .L129+4
 1506 0018 9A42     		cmp	r2, r3
 1507 001a 0BD0     		beq	.L121
 1508              		.loc 1 563 0 discriminator 1
 1509 001c 7A68     		ldr	r2, [r7, #4]
 1510 001e 1C4B     		ldr	r3, .L129+8
 1511 0020 9A42     		cmp	r2, r3
 1512 0022 07D0     		beq	.L121
 1513              		.loc 1 563 0 discriminator 2
 1514 0024 7A68     		ldr	r2, [r7, #4]
 1515 0026 1B4B     		ldr	r3, .L129+12
 1516 0028 9A42     		cmp	r2, r3
 1517 002a 03D0     		beq	.L121
 1518              		.loc 1 563 0 discriminator 3
 1519 002c 7A68     		ldr	r2, [r7, #4]
 1520 002e 1A4B     		ldr	r3, .L129+16
 1521 0030 9A42     		cmp	r2, r3
 1522 0032 02D1     		bne	.L122
 1523              	.L121:
 1524              		.loc 1 563 0 discriminator 1
 1525 0034 4FF00103 		mov	r3, #1
 1526 0038 01E0     		b	.L123
 1527              	.L122:
 1528              		.loc 1 563 0 discriminator 3
 1529 003a 4FF00003 		mov	r3, #0
 1530              	.L123:
 1531              		.loc 1 563 0 discriminator 4
 1532 003e 1846     		mov	r0, r3
 1533 0040 FFF7FEFF 		bl	assert_param
 564:libs/STM32F30x_StdPeriph_Driver/src/stm32f30x_usart.c ****   assert_param(IS_FUNCTIONAL_STATE(NewState));
 1534              		.loc 1 564 0 is_stmt 1 discriminator 4
 1535 0044 FB78     		ldrb	r3, [r7, #3]	@ zero_extendqisi2
 1536 0046 002B     		cmp	r3, #0
 1537 0048 02D0     		beq	.L124
 1538              		.loc 1 564 0 is_stmt 0 discriminator 2
 1539 004a FB78     		ldrb	r3, [r7, #3]	@ zero_extendqisi2
 1540 004c 012B     		cmp	r3, #1
 1541 004e 02D1     		bne	.L125
 1542              	.L124:
 1543              		.loc 1 564 0 discriminator 1
 1544 0050 4FF00103 		mov	r3, #1
 1545 0054 01E0     		b	.L126
 1546              	.L125:
 1547              		.loc 1 564 0 discriminator 3
 1548 0056 4FF00003 		mov	r3, #0
 1549              	.L126:
 1550              		.loc 1 564 0 discriminator 4
 1551 005a 1846     		mov	r0, r3
 1552 005c FFF7FEFF 		bl	assert_param
 565:libs/STM32F30x_StdPeriph_Driver/src/stm32f30x_usart.c **** 
 566:libs/STM32F30x_StdPeriph_Driver/src/stm32f30x_usart.c ****   if (NewState != DISABLE)
 1553              		.loc 1 566 0 is_stmt 1 discriminator 4
 1554 0060 FB78     		ldrb	r3, [r7, #3]	@ zero_extendqisi2
 1555 0062 002B     		cmp	r3, #0
 1556 0064 06D0     		beq	.L127
 567:libs/STM32F30x_StdPeriph_Driver/src/stm32f30x_usart.c ****   {
 568:libs/STM32F30x_StdPeriph_Driver/src/stm32f30x_usart.c ****     /* Enable the binary data inversion feature by setting the DATAINV bit in
 569:libs/STM32F30x_StdPeriph_Driver/src/stm32f30x_usart.c ****        the CR2 register */
 570:libs/STM32F30x_StdPeriph_Driver/src/stm32f30x_usart.c ****     USARTx->CR2 |= USART_CR2_DATAINV;
 1557              		.loc 1 570 0
 1558 0066 7B68     		ldr	r3, [r7, #4]
 1559 0068 5B68     		ldr	r3, [r3, #4]
 1560 006a 43F48022 		orr	r2, r3, #262144
 1561 006e 7B68     		ldr	r3, [r7, #4]
 1562 0070 5A60     		str	r2, [r3, #4]
 1563 0072 05E0     		b	.L120
 1564              	.L127:
 571:libs/STM32F30x_StdPeriph_Driver/src/stm32f30x_usart.c ****   }
 572:libs/STM32F30x_StdPeriph_Driver/src/stm32f30x_usart.c ****   else
 573:libs/STM32F30x_StdPeriph_Driver/src/stm32f30x_usart.c ****   {
 574:libs/STM32F30x_StdPeriph_Driver/src/stm32f30x_usart.c ****     /* Disable the binary data inversion feature by clearing the DATAINV bit in
 575:libs/STM32F30x_StdPeriph_Driver/src/stm32f30x_usart.c ****        the CR2 register */
 576:libs/STM32F30x_StdPeriph_Driver/src/stm32f30x_usart.c ****     USARTx->CR2 &= (uint32_t)~((uint32_t)USART_CR2_DATAINV);
 1565              		.loc 1 576 0
 1566 0074 7B68     		ldr	r3, [r7, #4]
 1567 0076 5B68     		ldr	r3, [r3, #4]
 1568 0078 23F48022 		bic	r2, r3, #262144
 1569 007c 7B68     		ldr	r3, [r7, #4]
 1570 007e 5A60     		str	r2, [r3, #4]
 1571              	.L120:
 577:libs/STM32F30x_StdPeriph_Driver/src/stm32f30x_usart.c ****   }
 578:libs/STM32F30x_StdPeriph_Driver/src/stm32f30x_usart.c **** }
 1572              		.loc 1 578 0
 1573 0080 07F10807 		add	r7, r7, #8
 1574 0084 BD46     		mov	sp, r7
 1575 0086 80BD     		pop	{r7, pc}
 1576              	.L130:
 1577              		.align	2
 1578              	.L129:
 1579 0088 00380140 		.word	1073821696
 1580 008c 00440040 		.word	1073759232
 1581 0090 00480040 		.word	1073760256
 1582 0094 004C0040 		.word	1073761280
 1583 0098 00500040 		.word	1073762304
 1584              		.cfi_endproc
 1585              	.LFE120:
 1587              		.section	.text.USART_InvPinCmd,"ax",%progbits
 1588              		.align	2
 1589              		.global	USART_InvPinCmd
 1590              		.thumb
 1591              		.thumb_func
 1593              	USART_InvPinCmd:
 1594              	.LFB121:
 579:libs/STM32F30x_StdPeriph_Driver/src/stm32f30x_usart.c **** 
 580:libs/STM32F30x_StdPeriph_Driver/src/stm32f30x_usart.c **** /**
 581:libs/STM32F30x_StdPeriph_Driver/src/stm32f30x_usart.c ****   * @brief  Enables or disables the Pin(s) active level inversion.
 582:libs/STM32F30x_StdPeriph_Driver/src/stm32f30x_usart.c ****   * @param  USARTx: Select the USART peripheral. This parameter can be one of the 
 583:libs/STM32F30x_StdPeriph_Driver/src/stm32f30x_usart.c ****   *         following values: USART1 or USART2 or USART3 or UART4 or UART5.
 584:libs/STM32F30x_StdPeriph_Driver/src/stm32f30x_usart.c ****   * @param  USART_InvPin: specifies the USART pin(s) to invert.
 585:libs/STM32F30x_StdPeriph_Driver/src/stm32f30x_usart.c ****   *         This parameter can be any combination of the following values:
 586:libs/STM32F30x_StdPeriph_Driver/src/stm32f30x_usart.c ****   *         @arg USART_InvPin_Tx: USART Tx pin active level inversion.
 587:libs/STM32F30x_StdPeriph_Driver/src/stm32f30x_usart.c ****   *         @arg USART_InvPin_Rx: USART Rx pin active level inversion.
 588:libs/STM32F30x_StdPeriph_Driver/src/stm32f30x_usart.c ****   * @param  NewState: new active level status for the USART pin(s).
 589:libs/STM32F30x_StdPeriph_Driver/src/stm32f30x_usart.c ****   *         This parameter can be: ENABLE or DISABLE.
 590:libs/STM32F30x_StdPeriph_Driver/src/stm32f30x_usart.c ****   *          - ENABLE: pin(s) signal values are inverted (Vdd =0, Gnd =1).
 591:libs/STM32F30x_StdPeriph_Driver/src/stm32f30x_usart.c ****   *          - DISABLE: pin(s) signal works using the standard logic levels (Vdd =1, Gnd =0).
 592:libs/STM32F30x_StdPeriph_Driver/src/stm32f30x_usart.c ****   * @note
 593:libs/STM32F30x_StdPeriph_Driver/src/stm32f30x_usart.c ****   *   This function has to be called before calling USART_Cmd() function.  
 594:libs/STM32F30x_StdPeriph_Driver/src/stm32f30x_usart.c ****   * @retval None
 595:libs/STM32F30x_StdPeriph_Driver/src/stm32f30x_usart.c ****   */
 596:libs/STM32F30x_StdPeriph_Driver/src/stm32f30x_usart.c **** void USART_InvPinCmd(USART_TypeDef* USARTx, uint32_t USART_InvPin, FunctionalState NewState)
 597:libs/STM32F30x_StdPeriph_Driver/src/stm32f30x_usart.c **** {
 1595              		.loc 1 597 0
 1596              		.cfi_startproc
 1597              		@ args = 0, pretend = 0, frame = 16
 1598              		@ frame_needed = 1, uses_anonymous_args = 0
 1599 0000 80B5     		push	{r7, lr}
 1600              	.LCFI33:
 1601              		.cfi_def_cfa_offset 8
 1602              		.cfi_offset 7, -8
 1603              		.cfi_offset 14, -4
 1604 0002 84B0     		sub	sp, sp, #16
 1605              	.LCFI34:
 1606              		.cfi_def_cfa_offset 24
 1607 0004 00AF     		add	r7, sp, #0
 1608              	.LCFI35:
 1609              		.cfi_def_cfa_register 7
 1610 0006 F860     		str	r0, [r7, #12]
 1611 0008 B960     		str	r1, [r7, #8]
 1612 000a 1346     		mov	r3, r2
 1613 000c FB71     		strb	r3, [r7, #7]
 598:libs/STM32F30x_StdPeriph_Driver/src/stm32f30x_usart.c ****   /* Check the parameters */
 599:libs/STM32F30x_StdPeriph_Driver/src/stm32f30x_usart.c ****   assert_param(IS_USART_ALL_PERIPH(USARTx));
 1614              		.loc 1 599 0
 1615 000e FA68     		ldr	r2, [r7, #12]
 1616 0010 274B     		ldr	r3, .L142
 1617 0012 9A42     		cmp	r2, r3
 1618 0014 0FD0     		beq	.L132
 1619              		.loc 1 599 0 is_stmt 0 discriminator 2
 1620 0016 FA68     		ldr	r2, [r7, #12]
 1621 0018 264B     		ldr	r3, .L142+4
 1622 001a 9A42     		cmp	r2, r3
 1623 001c 0BD0     		beq	.L132
 1624              		.loc 1 599 0 discriminator 1
 1625 001e FA68     		ldr	r2, [r7, #12]
 1626 0020 254B     		ldr	r3, .L142+8
 1627 0022 9A42     		cmp	r2, r3
 1628 0024 07D0     		beq	.L132
 1629              		.loc 1 599 0 discriminator 2
 1630 0026 FA68     		ldr	r2, [r7, #12]
 1631 0028 244B     		ldr	r3, .L142+12
 1632 002a 9A42     		cmp	r2, r3
 1633 002c 03D0     		beq	.L132
 1634              		.loc 1 599 0 discriminator 3
 1635 002e FA68     		ldr	r2, [r7, #12]
 1636 0030 234B     		ldr	r3, .L142+16
 1637 0032 9A42     		cmp	r2, r3
 1638 0034 02D1     		bne	.L133
 1639              	.L132:
 1640              		.loc 1 599 0 discriminator 1
 1641 0036 4FF00103 		mov	r3, #1
 1642 003a 01E0     		b	.L134
 1643              	.L133:
 1644              		.loc 1 599 0 discriminator 3
 1645 003c 4FF00003 		mov	r3, #0
 1646              	.L134:
 1647              		.loc 1 599 0 discriminator 4
 1648 0040 1846     		mov	r0, r3
 1649 0042 FFF7FEFF 		bl	assert_param
 600:libs/STM32F30x_StdPeriph_Driver/src/stm32f30x_usart.c ****   assert_param(IS_USART_INVERSTION_PIN(USART_InvPin));
 1650              		.loc 1 600 0 is_stmt 1 discriminator 4
 1651 0046 BB68     		ldr	r3, [r7, #8]
 1652 0048 23F44033 		bic	r3, r3, #196608
 1653 004c 002B     		cmp	r3, #0
 1654 004e 05D1     		bne	.L135
 1655              		.loc 1 600 0 is_stmt 0 discriminator 1
 1656 0050 BB68     		ldr	r3, [r7, #8]
 1657 0052 002B     		cmp	r3, #0
 1658 0054 02D0     		beq	.L135
 1659              		.loc 1 600 0 discriminator 3
 1660 0056 4FF00103 		mov	r3, #1
 1661 005a 01E0     		b	.L136
 1662              	.L135:
 1663              		.loc 1 600 0 discriminator 2
 1664 005c 4FF00003 		mov	r3, #0
 1665              	.L136:
 1666              		.loc 1 600 0 discriminator 4
 1667 0060 1846     		mov	r0, r3
 1668 0062 FFF7FEFF 		bl	assert_param
 601:libs/STM32F30x_StdPeriph_Driver/src/stm32f30x_usart.c ****   assert_param(IS_FUNCTIONAL_STATE(NewState)); 
 1669              		.loc 1 601 0 is_stmt 1 discriminator 4
 1670 0066 FB79     		ldrb	r3, [r7, #7]	@ zero_extendqisi2
 1671 0068 002B     		cmp	r3, #0
 1672 006a 02D0     		beq	.L137
 1673              		.loc 1 601 0 is_stmt 0 discriminator 2
 1674 006c FB79     		ldrb	r3, [r7, #7]	@ zero_extendqisi2
 1675 006e 012B     		cmp	r3, #1
 1676 0070 02D1     		bne	.L138
 1677              	.L137:
 1678              		.loc 1 601 0 discriminator 1
 1679 0072 4FF00103 		mov	r3, #1
 1680 0076 01E0     		b	.L139
 1681              	.L138:
 1682              		.loc 1 601 0 discriminator 3
 1683 0078 4FF00003 		mov	r3, #0
 1684              	.L139:
 1685              		.loc 1 601 0 discriminator 4
 1686 007c 1846     		mov	r0, r3
 1687 007e FFF7FEFF 		bl	assert_param
 602:libs/STM32F30x_StdPeriph_Driver/src/stm32f30x_usart.c **** 
 603:libs/STM32F30x_StdPeriph_Driver/src/stm32f30x_usart.c ****   if (NewState != DISABLE)
 1688              		.loc 1 603 0 is_stmt 1 discriminator 4
 1689 0082 FB79     		ldrb	r3, [r7, #7]	@ zero_extendqisi2
 1690 0084 002B     		cmp	r3, #0
 1691 0086 06D0     		beq	.L140
 604:libs/STM32F30x_StdPeriph_Driver/src/stm32f30x_usart.c ****   {
 605:libs/STM32F30x_StdPeriph_Driver/src/stm32f30x_usart.c ****     /* Enable the active level inversion for selected pins by setting the TXINV 
 606:libs/STM32F30x_StdPeriph_Driver/src/stm32f30x_usart.c ****        and/or RXINV bits in the USART CR2 register */
 607:libs/STM32F30x_StdPeriph_Driver/src/stm32f30x_usart.c ****     USARTx->CR2 |= USART_InvPin;
 1692              		.loc 1 607 0
 1693 0088 FB68     		ldr	r3, [r7, #12]
 1694 008a 5A68     		ldr	r2, [r3, #4]
 1695 008c BB68     		ldr	r3, [r7, #8]
 1696 008e 1A43     		orrs	r2, r2, r3
 1697 0090 FB68     		ldr	r3, [r7, #12]
 1698 0092 5A60     		str	r2, [r3, #4]
 1699 0094 07E0     		b	.L131
 1700              	.L140:
 608:libs/STM32F30x_StdPeriph_Driver/src/stm32f30x_usart.c ****   }
 609:libs/STM32F30x_StdPeriph_Driver/src/stm32f30x_usart.c ****   else
 610:libs/STM32F30x_StdPeriph_Driver/src/stm32f30x_usart.c ****   {
 611:libs/STM32F30x_StdPeriph_Driver/src/stm32f30x_usart.c ****     /* Disable the active level inversion for selected requests by clearing the 
 612:libs/STM32F30x_StdPeriph_Driver/src/stm32f30x_usart.c ****        TXINV and/or RXINV bits in the USART CR2 register */
 613:libs/STM32F30x_StdPeriph_Driver/src/stm32f30x_usart.c ****     USARTx->CR2 &= (uint32_t)~USART_InvPin;
 1701              		.loc 1 613 0
 1702 0096 FB68     		ldr	r3, [r7, #12]
 1703 0098 5A68     		ldr	r2, [r3, #4]
 1704 009a BB68     		ldr	r3, [r7, #8]
 1705 009c 6FEA0303 		mvn	r3, r3
 1706 00a0 1A40     		ands	r2, r2, r3
 1707 00a2 FB68     		ldr	r3, [r7, #12]
 1708 00a4 5A60     		str	r2, [r3, #4]
 1709              	.L131:
 614:libs/STM32F30x_StdPeriph_Driver/src/stm32f30x_usart.c ****   }
 615:libs/STM32F30x_StdPeriph_Driver/src/stm32f30x_usart.c **** }
 1710              		.loc 1 615 0
 1711 00a6 07F11007 		add	r7, r7, #16
 1712 00aa BD46     		mov	sp, r7
 1713 00ac 80BD     		pop	{r7, pc}
 1714              	.L143:
 1715 00ae 00BF     		.align	2
 1716              	.L142:
 1717 00b0 00380140 		.word	1073821696
 1718 00b4 00440040 		.word	1073759232
 1719 00b8 00480040 		.word	1073760256
 1720 00bc 004C0040 		.word	1073761280
 1721 00c0 00500040 		.word	1073762304
 1722              		.cfi_endproc
 1723              	.LFE121:
 1725              		.section	.text.USART_SWAPPinCmd,"ax",%progbits
 1726              		.align	2
 1727              		.global	USART_SWAPPinCmd
 1728              		.thumb
 1729              		.thumb_func
 1731              	USART_SWAPPinCmd:
 1732              	.LFB122:
 616:libs/STM32F30x_StdPeriph_Driver/src/stm32f30x_usart.c **** 
 617:libs/STM32F30x_StdPeriph_Driver/src/stm32f30x_usart.c **** /**
 618:libs/STM32F30x_StdPeriph_Driver/src/stm32f30x_usart.c ****   * @brief  Enables or disables the swap Tx/Rx pins.
 619:libs/STM32F30x_StdPeriph_Driver/src/stm32f30x_usart.c ****   * @param  USARTx: Select the USART peripheral. This parameter can be one of the
 620:libs/STM32F30x_StdPeriph_Driver/src/stm32f30x_usart.c ****   *         following values: USART1 or USART2 or USART3 or UART4 or UART5.
 621:libs/STM32F30x_StdPeriph_Driver/src/stm32f30x_usart.c ****   * @param  NewState: new state of the USARTx TX/RX pins pinout.
 622:libs/STM32F30x_StdPeriph_Driver/src/stm32f30x_usart.c ****   *         This parameter can be: ENABLE or DISABLE.
 623:libs/STM32F30x_StdPeriph_Driver/src/stm32f30x_usart.c ****   *         @arg ENABLE: The TX and RX pins functions are swapped.
 624:libs/STM32F30x_StdPeriph_Driver/src/stm32f30x_usart.c ****   *         @arg DISABLE: TX/RX pins are used as defined in standard pinout
 625:libs/STM32F30x_StdPeriph_Driver/src/stm32f30x_usart.c ****   * @note
 626:libs/STM32F30x_StdPeriph_Driver/src/stm32f30x_usart.c ****   *   This function has to be called before calling USART_Cmd() function.
 627:libs/STM32F30x_StdPeriph_Driver/src/stm32f30x_usart.c ****   * @retval None
 628:libs/STM32F30x_StdPeriph_Driver/src/stm32f30x_usart.c ****   */
 629:libs/STM32F30x_StdPeriph_Driver/src/stm32f30x_usart.c **** void USART_SWAPPinCmd(USART_TypeDef* USARTx, FunctionalState NewState)
 630:libs/STM32F30x_StdPeriph_Driver/src/stm32f30x_usart.c **** {
 1733              		.loc 1 630 0
 1734              		.cfi_startproc
 1735              		@ args = 0, pretend = 0, frame = 8
 1736              		@ frame_needed = 1, uses_anonymous_args = 0
 1737 0000 80B5     		push	{r7, lr}
 1738              	.LCFI36:
 1739              		.cfi_def_cfa_offset 8
 1740              		.cfi_offset 7, -8
 1741              		.cfi_offset 14, -4
 1742 0002 82B0     		sub	sp, sp, #8
 1743              	.LCFI37:
 1744              		.cfi_def_cfa_offset 16
 1745 0004 00AF     		add	r7, sp, #0
 1746              	.LCFI38:
 1747              		.cfi_def_cfa_register 7
 1748 0006 7860     		str	r0, [r7, #4]
 1749 0008 0B46     		mov	r3, r1
 1750 000a FB70     		strb	r3, [r7, #3]
 631:libs/STM32F30x_StdPeriph_Driver/src/stm32f30x_usart.c ****   /* Check the parameters */
 632:libs/STM32F30x_StdPeriph_Driver/src/stm32f30x_usart.c ****   assert_param(IS_USART_ALL_PERIPH(USARTx));
 1751              		.loc 1 632 0
 1752 000c 7A68     		ldr	r2, [r7, #4]
 1753 000e 1E4B     		ldr	r3, .L153
 1754 0010 9A42     		cmp	r2, r3
 1755 0012 0FD0     		beq	.L145
 1756              		.loc 1 632 0 is_stmt 0 discriminator 2
 1757 0014 7A68     		ldr	r2, [r7, #4]
 1758 0016 1D4B     		ldr	r3, .L153+4
 1759 0018 9A42     		cmp	r2, r3
 1760 001a 0BD0     		beq	.L145
 1761              		.loc 1 632 0 discriminator 1
 1762 001c 7A68     		ldr	r2, [r7, #4]
 1763 001e 1C4B     		ldr	r3, .L153+8
 1764 0020 9A42     		cmp	r2, r3
 1765 0022 07D0     		beq	.L145
 1766              		.loc 1 632 0 discriminator 2
 1767 0024 7A68     		ldr	r2, [r7, #4]
 1768 0026 1B4B     		ldr	r3, .L153+12
 1769 0028 9A42     		cmp	r2, r3
 1770 002a 03D0     		beq	.L145
 1771              		.loc 1 632 0 discriminator 3
 1772 002c 7A68     		ldr	r2, [r7, #4]
 1773 002e 1A4B     		ldr	r3, .L153+16
 1774 0030 9A42     		cmp	r2, r3
 1775 0032 02D1     		bne	.L146
 1776              	.L145:
 1777              		.loc 1 632 0 discriminator 1
 1778 0034 4FF00103 		mov	r3, #1
 1779 0038 01E0     		b	.L147
 1780              	.L146:
 1781              		.loc 1 632 0 discriminator 3
 1782 003a 4FF00003 		mov	r3, #0
 1783              	.L147:
 1784              		.loc 1 632 0 discriminator 4
 1785 003e 1846     		mov	r0, r3
 1786 0040 FFF7FEFF 		bl	assert_param
 633:libs/STM32F30x_StdPeriph_Driver/src/stm32f30x_usart.c ****   assert_param(IS_FUNCTIONAL_STATE(NewState));
 1787              		.loc 1 633 0 is_stmt 1 discriminator 4
 1788 0044 FB78     		ldrb	r3, [r7, #3]	@ zero_extendqisi2
 1789 0046 002B     		cmp	r3, #0
 1790 0048 02D0     		beq	.L148
 1791              		.loc 1 633 0 is_stmt 0 discriminator 2
 1792 004a FB78     		ldrb	r3, [r7, #3]	@ zero_extendqisi2
 1793 004c 012B     		cmp	r3, #1
 1794 004e 02D1     		bne	.L149
 1795              	.L148:
 1796              		.loc 1 633 0 discriminator 1
 1797 0050 4FF00103 		mov	r3, #1
 1798 0054 01E0     		b	.L150
 1799              	.L149:
 1800              		.loc 1 633 0 discriminator 3
 1801 0056 4FF00003 		mov	r3, #0
 1802              	.L150:
 1803              		.loc 1 633 0 discriminator 4
 1804 005a 1846     		mov	r0, r3
 1805 005c FFF7FEFF 		bl	assert_param
 634:libs/STM32F30x_StdPeriph_Driver/src/stm32f30x_usart.c **** 
 635:libs/STM32F30x_StdPeriph_Driver/src/stm32f30x_usart.c ****   if (NewState != DISABLE)
 1806              		.loc 1 635 0 is_stmt 1 discriminator 4
 1807 0060 FB78     		ldrb	r3, [r7, #3]	@ zero_extendqisi2
 1808 0062 002B     		cmp	r3, #0
 1809 0064 06D0     		beq	.L151
 636:libs/STM32F30x_StdPeriph_Driver/src/stm32f30x_usart.c ****   {
 637:libs/STM32F30x_StdPeriph_Driver/src/stm32f30x_usart.c ****     /* Enable the SWAP feature by setting the SWAP bit in the CR2 register */
 638:libs/STM32F30x_StdPeriph_Driver/src/stm32f30x_usart.c ****     USARTx->CR2 |= USART_CR2_SWAP;
 1810              		.loc 1 638 0
 1811 0066 7B68     		ldr	r3, [r7, #4]
 1812 0068 5B68     		ldr	r3, [r3, #4]
 1813 006a 43F40042 		orr	r2, r3, #32768
 1814 006e 7B68     		ldr	r3, [r7, #4]
 1815 0070 5A60     		str	r2, [r3, #4]
 1816 0072 05E0     		b	.L144
 1817              	.L151:
 639:libs/STM32F30x_StdPeriph_Driver/src/stm32f30x_usart.c ****   }
 640:libs/STM32F30x_StdPeriph_Driver/src/stm32f30x_usart.c ****   else
 641:libs/STM32F30x_StdPeriph_Driver/src/stm32f30x_usart.c ****   {
 642:libs/STM32F30x_StdPeriph_Driver/src/stm32f30x_usart.c ****     /* Disable the SWAP feature by clearing the SWAP bit in the CR2 register */
 643:libs/STM32F30x_StdPeriph_Driver/src/stm32f30x_usart.c ****     USARTx->CR2 &= (uint32_t)~((uint32_t)USART_CR2_SWAP);
 1818              		.loc 1 643 0
 1819 0074 7B68     		ldr	r3, [r7, #4]
 1820 0076 5B68     		ldr	r3, [r3, #4]
 1821 0078 23F40042 		bic	r2, r3, #32768
 1822 007c 7B68     		ldr	r3, [r7, #4]
 1823 007e 5A60     		str	r2, [r3, #4]
 1824              	.L144:
 644:libs/STM32F30x_StdPeriph_Driver/src/stm32f30x_usart.c ****   }
 645:libs/STM32F30x_StdPeriph_Driver/src/stm32f30x_usart.c **** }
 1825              		.loc 1 645 0
 1826 0080 07F10807 		add	r7, r7, #8
 1827 0084 BD46     		mov	sp, r7
 1828 0086 80BD     		pop	{r7, pc}
 1829              	.L154:
 1830              		.align	2
 1831              	.L153:
 1832 0088 00380140 		.word	1073821696
 1833 008c 00440040 		.word	1073759232
 1834 0090 00480040 		.word	1073760256
 1835 0094 004C0040 		.word	1073761280
 1836 0098 00500040 		.word	1073762304
 1837              		.cfi_endproc
 1838              	.LFE122:
 1840              		.section	.text.USART_ReceiverTimeOutCmd,"ax",%progbits
 1841              		.align	2
 1842              		.global	USART_ReceiverTimeOutCmd
 1843              		.thumb
 1844              		.thumb_func
 1846              	USART_ReceiverTimeOutCmd:
 1847              	.LFB123:
 646:libs/STM32F30x_StdPeriph_Driver/src/stm32f30x_usart.c **** 
 647:libs/STM32F30x_StdPeriph_Driver/src/stm32f30x_usart.c **** /**
 648:libs/STM32F30x_StdPeriph_Driver/src/stm32f30x_usart.c ****   * @brief  Enables or disables the receiver Time Out feature.
 649:libs/STM32F30x_StdPeriph_Driver/src/stm32f30x_usart.c ****   * @param  USARTx: Select the USART peripheral. This parameter can be one of the 
 650:libs/STM32F30x_StdPeriph_Driver/src/stm32f30x_usart.c ****   *         following values: USART1 or USART2 or USART3 or UART4 or UART5.
 651:libs/STM32F30x_StdPeriph_Driver/src/stm32f30x_usart.c ****   * @param  NewState: new state of the USARTx receiver Time Out.
 652:libs/STM32F30x_StdPeriph_Driver/src/stm32f30x_usart.c ****   *         This parameter can be: ENABLE or DISABLE.
 653:libs/STM32F30x_StdPeriph_Driver/src/stm32f30x_usart.c ****   * @retval None
 654:libs/STM32F30x_StdPeriph_Driver/src/stm32f30x_usart.c ****   */
 655:libs/STM32F30x_StdPeriph_Driver/src/stm32f30x_usart.c **** void USART_ReceiverTimeOutCmd(USART_TypeDef* USARTx, FunctionalState NewState)
 656:libs/STM32F30x_StdPeriph_Driver/src/stm32f30x_usart.c **** {
 1848              		.loc 1 656 0
 1849              		.cfi_startproc
 1850              		@ args = 0, pretend = 0, frame = 8
 1851              		@ frame_needed = 1, uses_anonymous_args = 0
 1852 0000 80B5     		push	{r7, lr}
 1853              	.LCFI39:
 1854              		.cfi_def_cfa_offset 8
 1855              		.cfi_offset 7, -8
 1856              		.cfi_offset 14, -4
 1857 0002 82B0     		sub	sp, sp, #8
 1858              	.LCFI40:
 1859              		.cfi_def_cfa_offset 16
 1860 0004 00AF     		add	r7, sp, #0
 1861              	.LCFI41:
 1862              		.cfi_def_cfa_register 7
 1863 0006 7860     		str	r0, [r7, #4]
 1864 0008 0B46     		mov	r3, r1
 1865 000a FB70     		strb	r3, [r7, #3]
 657:libs/STM32F30x_StdPeriph_Driver/src/stm32f30x_usart.c ****   /* Check the parameters */
 658:libs/STM32F30x_StdPeriph_Driver/src/stm32f30x_usart.c ****   assert_param(IS_USART_ALL_PERIPH(USARTx));
 1866              		.loc 1 658 0
 1867 000c 7A68     		ldr	r2, [r7, #4]
 1868 000e 1E4B     		ldr	r3, .L164
 1869 0010 9A42     		cmp	r2, r3
 1870 0012 0FD0     		beq	.L156
 1871              		.loc 1 658 0 is_stmt 0 discriminator 2
 1872 0014 7A68     		ldr	r2, [r7, #4]
 1873 0016 1D4B     		ldr	r3, .L164+4
 1874 0018 9A42     		cmp	r2, r3
 1875 001a 0BD0     		beq	.L156
 1876              		.loc 1 658 0 discriminator 1
 1877 001c 7A68     		ldr	r2, [r7, #4]
 1878 001e 1C4B     		ldr	r3, .L164+8
 1879 0020 9A42     		cmp	r2, r3
 1880 0022 07D0     		beq	.L156
 1881              		.loc 1 658 0 discriminator 2
 1882 0024 7A68     		ldr	r2, [r7, #4]
 1883 0026 1B4B     		ldr	r3, .L164+12
 1884 0028 9A42     		cmp	r2, r3
 1885 002a 03D0     		beq	.L156
 1886              		.loc 1 658 0 discriminator 3
 1887 002c 7A68     		ldr	r2, [r7, #4]
 1888 002e 1A4B     		ldr	r3, .L164+16
 1889 0030 9A42     		cmp	r2, r3
 1890 0032 02D1     		bne	.L157
 1891              	.L156:
 1892              		.loc 1 658 0 discriminator 1
 1893 0034 4FF00103 		mov	r3, #1
 1894 0038 01E0     		b	.L158
 1895              	.L157:
 1896              		.loc 1 658 0 discriminator 3
 1897 003a 4FF00003 		mov	r3, #0
 1898              	.L158:
 1899              		.loc 1 658 0 discriminator 4
 1900 003e 1846     		mov	r0, r3
 1901 0040 FFF7FEFF 		bl	assert_param
 659:libs/STM32F30x_StdPeriph_Driver/src/stm32f30x_usart.c ****   assert_param(IS_FUNCTIONAL_STATE(NewState));
 1902              		.loc 1 659 0 is_stmt 1 discriminator 4
 1903 0044 FB78     		ldrb	r3, [r7, #3]	@ zero_extendqisi2
 1904 0046 002B     		cmp	r3, #0
 1905 0048 02D0     		beq	.L159
 1906              		.loc 1 659 0 is_stmt 0 discriminator 2
 1907 004a FB78     		ldrb	r3, [r7, #3]	@ zero_extendqisi2
 1908 004c 012B     		cmp	r3, #1
 1909 004e 02D1     		bne	.L160
 1910              	.L159:
 1911              		.loc 1 659 0 discriminator 1
 1912 0050 4FF00103 		mov	r3, #1
 1913 0054 01E0     		b	.L161
 1914              	.L160:
 1915              		.loc 1 659 0 discriminator 3
 1916 0056 4FF00003 		mov	r3, #0
 1917              	.L161:
 1918              		.loc 1 659 0 discriminator 4
 1919 005a 1846     		mov	r0, r3
 1920 005c FFF7FEFF 		bl	assert_param
 660:libs/STM32F30x_StdPeriph_Driver/src/stm32f30x_usart.c **** 
 661:libs/STM32F30x_StdPeriph_Driver/src/stm32f30x_usart.c ****   if (NewState != DISABLE)
 1921              		.loc 1 661 0 is_stmt 1 discriminator 4
 1922 0060 FB78     		ldrb	r3, [r7, #3]	@ zero_extendqisi2
 1923 0062 002B     		cmp	r3, #0
 1924 0064 06D0     		beq	.L162
 662:libs/STM32F30x_StdPeriph_Driver/src/stm32f30x_usart.c ****   {
 663:libs/STM32F30x_StdPeriph_Driver/src/stm32f30x_usart.c ****     /* Enable the receiver time out feature by setting the RTOEN bit in the CR2 
 664:libs/STM32F30x_StdPeriph_Driver/src/stm32f30x_usart.c ****        register */
 665:libs/STM32F30x_StdPeriph_Driver/src/stm32f30x_usart.c ****     USARTx->CR2 |= USART_CR2_RTOEN;
 1925              		.loc 1 665 0
 1926 0066 7B68     		ldr	r3, [r7, #4]
 1927 0068 5B68     		ldr	r3, [r3, #4]
 1928 006a 43F40002 		orr	r2, r3, #8388608
 1929 006e 7B68     		ldr	r3, [r7, #4]
 1930 0070 5A60     		str	r2, [r3, #4]
 1931 0072 05E0     		b	.L155
 1932              	.L162:
 666:libs/STM32F30x_StdPeriph_Driver/src/stm32f30x_usart.c ****   }
 667:libs/STM32F30x_StdPeriph_Driver/src/stm32f30x_usart.c ****   else
 668:libs/STM32F30x_StdPeriph_Driver/src/stm32f30x_usart.c ****   {
 669:libs/STM32F30x_StdPeriph_Driver/src/stm32f30x_usart.c ****     /* Disable the receiver time out feature by clearing the RTOEN bit in the CR2 
 670:libs/STM32F30x_StdPeriph_Driver/src/stm32f30x_usart.c ****        register */
 671:libs/STM32F30x_StdPeriph_Driver/src/stm32f30x_usart.c ****     USARTx->CR2 &= (uint32_t)~((uint32_t)USART_CR2_RTOEN);
 1933              		.loc 1 671 0
 1934 0074 7B68     		ldr	r3, [r7, #4]
 1935 0076 5B68     		ldr	r3, [r3, #4]
 1936 0078 23F40002 		bic	r2, r3, #8388608
 1937 007c 7B68     		ldr	r3, [r7, #4]
 1938 007e 5A60     		str	r2, [r3, #4]
 1939              	.L155:
 672:libs/STM32F30x_StdPeriph_Driver/src/stm32f30x_usart.c ****   }
 673:libs/STM32F30x_StdPeriph_Driver/src/stm32f30x_usart.c **** }
 1940              		.loc 1 673 0
 1941 0080 07F10807 		add	r7, r7, #8
 1942 0084 BD46     		mov	sp, r7
 1943 0086 80BD     		pop	{r7, pc}
 1944              	.L165:
 1945              		.align	2
 1946              	.L164:
 1947 0088 00380140 		.word	1073821696
 1948 008c 00440040 		.word	1073759232
 1949 0090 00480040 		.word	1073760256
 1950 0094 004C0040 		.word	1073761280
 1951 0098 00500040 		.word	1073762304
 1952              		.cfi_endproc
 1953              	.LFE123:
 1955              		.section	.text.USART_SetReceiverTimeOut,"ax",%progbits
 1956              		.align	2
 1957              		.global	USART_SetReceiverTimeOut
 1958              		.thumb
 1959              		.thumb_func
 1961              	USART_SetReceiverTimeOut:
 1962              	.LFB124:
 674:libs/STM32F30x_StdPeriph_Driver/src/stm32f30x_usart.c **** 
 675:libs/STM32F30x_StdPeriph_Driver/src/stm32f30x_usart.c **** /**
 676:libs/STM32F30x_StdPeriph_Driver/src/stm32f30x_usart.c ****   * @brief  Sets the receiver Time Out value.
 677:libs/STM32F30x_StdPeriph_Driver/src/stm32f30x_usart.c ****   * @param  USARTx: Select the USART peripheral. This parameter can be one of the 
 678:libs/STM32F30x_StdPeriph_Driver/src/stm32f30x_usart.c ****   *         following values: USART1 or USART2 or USART3 or UART4 or UART5.
 679:libs/STM32F30x_StdPeriph_Driver/src/stm32f30x_usart.c ****   * @param  USART_ReceiverTimeOut: specifies the Receiver Time Out value.
 680:libs/STM32F30x_StdPeriph_Driver/src/stm32f30x_usart.c ****   * @retval None
 681:libs/STM32F30x_StdPeriph_Driver/src/stm32f30x_usart.c ****   */
 682:libs/STM32F30x_StdPeriph_Driver/src/stm32f30x_usart.c **** void USART_SetReceiverTimeOut(USART_TypeDef* USARTx, uint32_t USART_ReceiverTimeOut)
 683:libs/STM32F30x_StdPeriph_Driver/src/stm32f30x_usart.c **** {    
 1963              		.loc 1 683 0
 1964              		.cfi_startproc
 1965              		@ args = 0, pretend = 0, frame = 8
 1966              		@ frame_needed = 1, uses_anonymous_args = 0
 1967 0000 80B5     		push	{r7, lr}
 1968              	.LCFI42:
 1969              		.cfi_def_cfa_offset 8
 1970              		.cfi_offset 7, -8
 1971              		.cfi_offset 14, -4
 1972 0002 82B0     		sub	sp, sp, #8
 1973              	.LCFI43:
 1974              		.cfi_def_cfa_offset 16
 1975 0004 00AF     		add	r7, sp, #0
 1976              	.LCFI44:
 1977              		.cfi_def_cfa_register 7
 1978 0006 7860     		str	r0, [r7, #4]
 1979 0008 3960     		str	r1, [r7, #0]
 684:libs/STM32F30x_StdPeriph_Driver/src/stm32f30x_usart.c ****   /* Check the parameters */
 685:libs/STM32F30x_StdPeriph_Driver/src/stm32f30x_usart.c ****   assert_param(IS_USART_ALL_PERIPH(USARTx));
 1980              		.loc 1 685 0
 1981 000a 7A68     		ldr	r2, [r7, #4]
 1982 000c 1A4B     		ldr	r3, .L170
 1983 000e 9A42     		cmp	r2, r3
 1984 0010 0FD0     		beq	.L167
 1985              		.loc 1 685 0 is_stmt 0 discriminator 2
 1986 0012 7A68     		ldr	r2, [r7, #4]
 1987 0014 194B     		ldr	r3, .L170+4
 1988 0016 9A42     		cmp	r2, r3
 1989 0018 0BD0     		beq	.L167
 1990              		.loc 1 685 0 discriminator 1
 1991 001a 7A68     		ldr	r2, [r7, #4]
 1992 001c 184B     		ldr	r3, .L170+8
 1993 001e 9A42     		cmp	r2, r3
 1994 0020 07D0     		beq	.L167
 1995              		.loc 1 685 0 discriminator 2
 1996 0022 7A68     		ldr	r2, [r7, #4]
 1997 0024 174B     		ldr	r3, .L170+12
 1998 0026 9A42     		cmp	r2, r3
 1999 0028 03D0     		beq	.L167
 2000              		.loc 1 685 0 discriminator 3
 2001 002a 7A68     		ldr	r2, [r7, #4]
 2002 002c 164B     		ldr	r3, .L170+16
 2003 002e 9A42     		cmp	r2, r3
 2004 0030 02D1     		bne	.L168
 2005              	.L167:
 2006              		.loc 1 685 0 discriminator 1
 2007 0032 4FF00103 		mov	r3, #1
 2008 0036 01E0     		b	.L169
 2009              	.L168:
 2010              		.loc 1 685 0 discriminator 3
 2011 0038 4FF00003 		mov	r3, #0
 2012              	.L169:
 2013              		.loc 1 685 0 discriminator 4
 2014 003c 1846     		mov	r0, r3
 2015 003e FFF7FEFF 		bl	assert_param
 686:libs/STM32F30x_StdPeriph_Driver/src/stm32f30x_usart.c ****   assert_param(IS_USART_TIMEOUT(USART_ReceiverTimeOut));
 2016              		.loc 1 686 0 is_stmt 1 discriminator 4
 2017 0042 3A68     		ldr	r2, [r7, #0]
 2018 0044 6FF07F43 		mvn	r3, #-16777216
 2019 0048 9A42     		cmp	r2, r3
 2020 004a 8CBF     		ite	hi
 2021 004c 0023     		movhi	r3, #0
 2022 004e 0123     		movls	r3, #1
 2023 0050 DBB2     		uxtb	r3, r3
 2024 0052 1846     		mov	r0, r3
 2025 0054 FFF7FEFF 		bl	assert_param
 687:libs/STM32F30x_StdPeriph_Driver/src/stm32f30x_usart.c **** 
 688:libs/STM32F30x_StdPeriph_Driver/src/stm32f30x_usart.c ****   /* Clear the receiver Time Out value by clearing the RTO[23:0] bits in the RTOR
 689:libs/STM32F30x_StdPeriph_Driver/src/stm32f30x_usart.c ****      register  */
 690:libs/STM32F30x_StdPeriph_Driver/src/stm32f30x_usart.c ****   USARTx->RTOR &= (uint32_t)~((uint32_t)USART_RTOR_RTO);
 2026              		.loc 1 690 0 discriminator 4
 2027 0058 7B68     		ldr	r3, [r7, #4]
 2028 005a 5B69     		ldr	r3, [r3, #20]
 2029 005c 03F07F42 		and	r2, r3, #-16777216
 2030 0060 7B68     		ldr	r3, [r7, #4]
 2031 0062 5A61     		str	r2, [r3, #20]
 691:libs/STM32F30x_StdPeriph_Driver/src/stm32f30x_usart.c ****   /* Set the receiver Time Out value by setting the RTO[23:0] bits in the RTOR
 692:libs/STM32F30x_StdPeriph_Driver/src/stm32f30x_usart.c ****      register  */
 693:libs/STM32F30x_StdPeriph_Driver/src/stm32f30x_usart.c ****   USARTx->RTOR |= USART_ReceiverTimeOut;
 2032              		.loc 1 693 0 discriminator 4
 2033 0064 7B68     		ldr	r3, [r7, #4]
 2034 0066 5A69     		ldr	r2, [r3, #20]
 2035 0068 3B68     		ldr	r3, [r7, #0]
 2036 006a 1A43     		orrs	r2, r2, r3
 2037 006c 7B68     		ldr	r3, [r7, #4]
 2038 006e 5A61     		str	r2, [r3, #20]
 694:libs/STM32F30x_StdPeriph_Driver/src/stm32f30x_usart.c **** }
 2039              		.loc 1 694 0 discriminator 4
 2040 0070 07F10807 		add	r7, r7, #8
 2041 0074 BD46     		mov	sp, r7
 2042 0076 80BD     		pop	{r7, pc}
 2043              	.L171:
 2044              		.align	2
 2045              	.L170:
 2046 0078 00380140 		.word	1073821696
 2047 007c 00440040 		.word	1073759232
 2048 0080 00480040 		.word	1073760256
 2049 0084 004C0040 		.word	1073761280
 2050 0088 00500040 		.word	1073762304
 2051              		.cfi_endproc
 2052              	.LFE124:
 2054              		.section	.text.USART_SetPrescaler,"ax",%progbits
 2055              		.align	2
 2056              		.global	USART_SetPrescaler
 2057              		.thumb
 2058              		.thumb_func
 2060              	USART_SetPrescaler:
 2061              	.LFB125:
 695:libs/STM32F30x_StdPeriph_Driver/src/stm32f30x_usart.c **** 
 696:libs/STM32F30x_StdPeriph_Driver/src/stm32f30x_usart.c **** /**
 697:libs/STM32F30x_StdPeriph_Driver/src/stm32f30x_usart.c ****   * @brief  Sets the system clock prescaler.
 698:libs/STM32F30x_StdPeriph_Driver/src/stm32f30x_usart.c ****   * @param  USARTx: Select the USART peripheral. This parameter can be one of the
 699:libs/STM32F30x_StdPeriph_Driver/src/stm32f30x_usart.c ****   *         following values: USART1 or USART2 or USART3 or UART4 or UART5.
 700:libs/STM32F30x_StdPeriph_Driver/src/stm32f30x_usart.c ****   * @param  USART_Prescaler: specifies the prescaler clock.  
 701:libs/STM32F30x_StdPeriph_Driver/src/stm32f30x_usart.c ****   * @note
 702:libs/STM32F30x_StdPeriph_Driver/src/stm32f30x_usart.c ****   *   This function has to be called before calling USART_Cmd() function.  
 703:libs/STM32F30x_StdPeriph_Driver/src/stm32f30x_usart.c ****   * @retval None
 704:libs/STM32F30x_StdPeriph_Driver/src/stm32f30x_usart.c ****   */
 705:libs/STM32F30x_StdPeriph_Driver/src/stm32f30x_usart.c **** void USART_SetPrescaler(USART_TypeDef* USARTx, uint8_t USART_Prescaler)
 706:libs/STM32F30x_StdPeriph_Driver/src/stm32f30x_usart.c **** {
 2062              		.loc 1 706 0
 2063              		.cfi_startproc
 2064              		@ args = 0, pretend = 0, frame = 8
 2065              		@ frame_needed = 1, uses_anonymous_args = 0
 2066 0000 80B5     		push	{r7, lr}
 2067              	.LCFI45:
 2068              		.cfi_def_cfa_offset 8
 2069              		.cfi_offset 7, -8
 2070              		.cfi_offset 14, -4
 2071 0002 82B0     		sub	sp, sp, #8
 2072              	.LCFI46:
 2073              		.cfi_def_cfa_offset 16
 2074 0004 00AF     		add	r7, sp, #0
 2075              	.LCFI47:
 2076              		.cfi_def_cfa_register 7
 2077 0006 7860     		str	r0, [r7, #4]
 2078 0008 0B46     		mov	r3, r1
 2079 000a FB70     		strb	r3, [r7, #3]
 707:libs/STM32F30x_StdPeriph_Driver/src/stm32f30x_usart.c ****   /* Check the parameters */
 708:libs/STM32F30x_StdPeriph_Driver/src/stm32f30x_usart.c ****   assert_param(IS_USART_ALL_PERIPH(USARTx));
 2080              		.loc 1 708 0
 2081 000c 7A68     		ldr	r2, [r7, #4]
 2082 000e 184B     		ldr	r3, .L176
 2083 0010 9A42     		cmp	r2, r3
 2084 0012 0FD0     		beq	.L173
 2085              		.loc 1 708 0 is_stmt 0 discriminator 2
 2086 0014 7A68     		ldr	r2, [r7, #4]
 2087 0016 174B     		ldr	r3, .L176+4
 2088 0018 9A42     		cmp	r2, r3
 2089 001a 0BD0     		beq	.L173
 2090              		.loc 1 708 0 discriminator 1
 2091 001c 7A68     		ldr	r2, [r7, #4]
 2092 001e 164B     		ldr	r3, .L176+8
 2093 0020 9A42     		cmp	r2, r3
 2094 0022 07D0     		beq	.L173
 2095              		.loc 1 708 0 discriminator 2
 2096 0024 7A68     		ldr	r2, [r7, #4]
 2097 0026 154B     		ldr	r3, .L176+12
 2098 0028 9A42     		cmp	r2, r3
 2099 002a 03D0     		beq	.L173
 2100              		.loc 1 708 0 discriminator 3
 2101 002c 7A68     		ldr	r2, [r7, #4]
 2102 002e 144B     		ldr	r3, .L176+16
 2103 0030 9A42     		cmp	r2, r3
 2104 0032 02D1     		bne	.L174
 2105              	.L173:
 2106              		.loc 1 708 0 discriminator 1
 2107 0034 4FF00103 		mov	r3, #1
 2108 0038 01E0     		b	.L175
 2109              	.L174:
 2110              		.loc 1 708 0 discriminator 3
 2111 003a 4FF00003 		mov	r3, #0
 2112              	.L175:
 2113              		.loc 1 708 0 discriminator 4
 2114 003e 1846     		mov	r0, r3
 2115 0040 FFF7FEFF 		bl	assert_param
 709:libs/STM32F30x_StdPeriph_Driver/src/stm32f30x_usart.c **** 
 710:libs/STM32F30x_StdPeriph_Driver/src/stm32f30x_usart.c ****   /* Clear the USART prescaler */
 711:libs/STM32F30x_StdPeriph_Driver/src/stm32f30x_usart.c ****   USARTx->GTPR &= USART_GTPR_GT;
 2116              		.loc 1 711 0 is_stmt 1 discriminator 4
 2117 0044 7B68     		ldr	r3, [r7, #4]
 2118 0046 1B8A     		ldrh	r3, [r3, #16]	@ movhi
 2119 0048 9BB2     		uxth	r3, r3
 2120 004a 23F0FF03 		bic	r3, r3, #255
 2121 004e 9AB2     		uxth	r2, r3
 2122 0050 7B68     		ldr	r3, [r7, #4]
 2123 0052 1A82     		strh	r2, [r3, #16]	@ movhi
 712:libs/STM32F30x_StdPeriph_Driver/src/stm32f30x_usart.c ****   /* Set the USART prescaler */
 713:libs/STM32F30x_StdPeriph_Driver/src/stm32f30x_usart.c ****   USARTx->GTPR |= USART_Prescaler;
 2124              		.loc 1 713 0 discriminator 4
 2125 0054 7B68     		ldr	r3, [r7, #4]
 2126 0056 1B8A     		ldrh	r3, [r3, #16]	@ movhi
 2127 0058 9AB2     		uxth	r2, r3
 2128 005a FB78     		ldrb	r3, [r7, #3]	@ zero_extendqisi2
 2129 005c 9BB2     		uxth	r3, r3
 2130 005e 1343     		orrs	r3, r3, r2
 2131 0060 9AB2     		uxth	r2, r3
 2132 0062 7B68     		ldr	r3, [r7, #4]
 2133 0064 1A82     		strh	r2, [r3, #16]	@ movhi
 714:libs/STM32F30x_StdPeriph_Driver/src/stm32f30x_usart.c **** }
 2134              		.loc 1 714 0 discriminator 4
 2135 0066 07F10807 		add	r7, r7, #8
 2136 006a BD46     		mov	sp, r7
 2137 006c 80BD     		pop	{r7, pc}
 2138              	.L177:
 2139 006e 00BF     		.align	2
 2140              	.L176:
 2141 0070 00380140 		.word	1073821696
 2142 0074 00440040 		.word	1073759232
 2143 0078 00480040 		.word	1073760256
 2144 007c 004C0040 		.word	1073761280
 2145 0080 00500040 		.word	1073762304
 2146              		.cfi_endproc
 2147              	.LFE125:
 2149              		.section	.text.USART_STOPModeCmd,"ax",%progbits
 2150              		.align	2
 2151              		.global	USART_STOPModeCmd
 2152              		.thumb
 2153              		.thumb_func
 2155              	USART_STOPModeCmd:
 2156              	.LFB126:
 715:libs/STM32F30x_StdPeriph_Driver/src/stm32f30x_usart.c **** 
 716:libs/STM32F30x_StdPeriph_Driver/src/stm32f30x_usart.c **** /**
 717:libs/STM32F30x_StdPeriph_Driver/src/stm32f30x_usart.c ****   * @}
 718:libs/STM32F30x_StdPeriph_Driver/src/stm32f30x_usart.c ****   */
 719:libs/STM32F30x_StdPeriph_Driver/src/stm32f30x_usart.c **** 
 720:libs/STM32F30x_StdPeriph_Driver/src/stm32f30x_usart.c **** 
 721:libs/STM32F30x_StdPeriph_Driver/src/stm32f30x_usart.c **** /** @defgroup USART_Group2 STOP Mode functions
 722:libs/STM32F30x_StdPeriph_Driver/src/stm32f30x_usart.c ****  *  @brief   STOP Mode functions
 723:libs/STM32F30x_StdPeriph_Driver/src/stm32f30x_usart.c ****  *
 724:libs/STM32F30x_StdPeriph_Driver/src/stm32f30x_usart.c **** @verbatim
 725:libs/STM32F30x_StdPeriph_Driver/src/stm32f30x_usart.c ****  ===============================================================================
 726:libs/STM32F30x_StdPeriph_Driver/src/stm32f30x_usart.c ****                         ##### STOP Mode functions #####
 727:libs/STM32F30x_StdPeriph_Driver/src/stm32f30x_usart.c ****  ===============================================================================
 728:libs/STM32F30x_StdPeriph_Driver/src/stm32f30x_usart.c ****     [..] This subsection provides a set of functions allowing to manage 
 729:libs/STM32F30x_StdPeriph_Driver/src/stm32f30x_usart.c ****          WakeUp from STOP mode.
 730:libs/STM32F30x_StdPeriph_Driver/src/stm32f30x_usart.c **** 
 731:libs/STM32F30x_StdPeriph_Driver/src/stm32f30x_usart.c ****     [..] The USART is able to WakeUp from Stop Mode if USART clock is set to HSI
 732:libs/STM32F30x_StdPeriph_Driver/src/stm32f30x_usart.c ****          or LSI.
 733:libs/STM32F30x_StdPeriph_Driver/src/stm32f30x_usart.c ****          
 734:libs/STM32F30x_StdPeriph_Driver/src/stm32f30x_usart.c ****     [..] The WakeUp source is configured by calling USART_StopModeWakeUpSourceConfig()
 735:libs/STM32F30x_StdPeriph_Driver/src/stm32f30x_usart.c ****          function.
 736:libs/STM32F30x_StdPeriph_Driver/src/stm32f30x_usart.c ****          
 737:libs/STM32F30x_StdPeriph_Driver/src/stm32f30x_usart.c ****     [..] After configuring the source of WakeUp and before entering in Stop Mode 
 738:libs/STM32F30x_StdPeriph_Driver/src/stm32f30x_usart.c ****          USART_STOPModeCmd() function should be called to allow USART WakeUp.
 739:libs/STM32F30x_StdPeriph_Driver/src/stm32f30x_usart.c ****                            
 740:libs/STM32F30x_StdPeriph_Driver/src/stm32f30x_usart.c **** @endverbatim
 741:libs/STM32F30x_StdPeriph_Driver/src/stm32f30x_usart.c ****   * @{
 742:libs/STM32F30x_StdPeriph_Driver/src/stm32f30x_usart.c ****   */
 743:libs/STM32F30x_StdPeriph_Driver/src/stm32f30x_usart.c ****   
 744:libs/STM32F30x_StdPeriph_Driver/src/stm32f30x_usart.c **** /**
 745:libs/STM32F30x_StdPeriph_Driver/src/stm32f30x_usart.c ****   * @brief  Enables or disables the specified USART peripheral in STOP Mode.
 746:libs/STM32F30x_StdPeriph_Driver/src/stm32f30x_usart.c ****   * @param  USARTx: Select the USART peripheral. This parameter can be one of the
 747:libs/STM32F30x_StdPeriph_Driver/src/stm32f30x_usart.c ****   *         following values: USART1 or USART2 or USART3 or UART4 or UART5.
 748:libs/STM32F30x_StdPeriph_Driver/src/stm32f30x_usart.c ****   * @param  NewState: new state of the USARTx peripheral state in stop mode.
 749:libs/STM32F30x_StdPeriph_Driver/src/stm32f30x_usart.c ****   *         This parameter can be: ENABLE or DISABLE.
 750:libs/STM32F30x_StdPeriph_Driver/src/stm32f30x_usart.c ****   * @note
 751:libs/STM32F30x_StdPeriph_Driver/src/stm32f30x_usart.c ****   *   This function has to be called when USART clock is set to HSI or LSE.
 752:libs/STM32F30x_StdPeriph_Driver/src/stm32f30x_usart.c ****   * @retval None
 753:libs/STM32F30x_StdPeriph_Driver/src/stm32f30x_usart.c ****   */
 754:libs/STM32F30x_StdPeriph_Driver/src/stm32f30x_usart.c **** void USART_STOPModeCmd(USART_TypeDef* USARTx, FunctionalState NewState)
 755:libs/STM32F30x_StdPeriph_Driver/src/stm32f30x_usart.c **** {
 2157              		.loc 1 755 0
 2158              		.cfi_startproc
 2159              		@ args = 0, pretend = 0, frame = 8
 2160              		@ frame_needed = 1, uses_anonymous_args = 0
 2161 0000 80B5     		push	{r7, lr}
 2162              	.LCFI48:
 2163              		.cfi_def_cfa_offset 8
 2164              		.cfi_offset 7, -8
 2165              		.cfi_offset 14, -4
 2166 0002 82B0     		sub	sp, sp, #8
 2167              	.LCFI49:
 2168              		.cfi_def_cfa_offset 16
 2169 0004 00AF     		add	r7, sp, #0
 2170              	.LCFI50:
 2171              		.cfi_def_cfa_register 7
 2172 0006 7860     		str	r0, [r7, #4]
 2173 0008 0B46     		mov	r3, r1
 2174 000a FB70     		strb	r3, [r7, #3]
 756:libs/STM32F30x_StdPeriph_Driver/src/stm32f30x_usart.c ****   /* Check the parameters */
 757:libs/STM32F30x_StdPeriph_Driver/src/stm32f30x_usart.c ****   assert_param(IS_USART_ALL_PERIPH(USARTx));
 2175              		.loc 1 757 0
 2176 000c 7A68     		ldr	r2, [r7, #4]
 2177 000e 1E4B     		ldr	r3, .L187
 2178 0010 9A42     		cmp	r2, r3
 2179 0012 0FD0     		beq	.L179
 2180              		.loc 1 757 0 is_stmt 0 discriminator 2
 2181 0014 7A68     		ldr	r2, [r7, #4]
 2182 0016 1D4B     		ldr	r3, .L187+4
 2183 0018 9A42     		cmp	r2, r3
 2184 001a 0BD0     		beq	.L179
 2185              		.loc 1 757 0 discriminator 1
 2186 001c 7A68     		ldr	r2, [r7, #4]
 2187 001e 1C4B     		ldr	r3, .L187+8
 2188 0020 9A42     		cmp	r2, r3
 2189 0022 07D0     		beq	.L179
 2190              		.loc 1 757 0 discriminator 2
 2191 0024 7A68     		ldr	r2, [r7, #4]
 2192 0026 1B4B     		ldr	r3, .L187+12
 2193 0028 9A42     		cmp	r2, r3
 2194 002a 03D0     		beq	.L179
 2195              		.loc 1 757 0 discriminator 3
 2196 002c 7A68     		ldr	r2, [r7, #4]
 2197 002e 1A4B     		ldr	r3, .L187+16
 2198 0030 9A42     		cmp	r2, r3
 2199 0032 02D1     		bne	.L180
 2200              	.L179:
 2201              		.loc 1 757 0 discriminator 1
 2202 0034 4FF00103 		mov	r3, #1
 2203 0038 01E0     		b	.L181
 2204              	.L180:
 2205              		.loc 1 757 0 discriminator 3
 2206 003a 4FF00003 		mov	r3, #0
 2207              	.L181:
 2208              		.loc 1 757 0 discriminator 4
 2209 003e 1846     		mov	r0, r3
 2210 0040 FFF7FEFF 		bl	assert_param
 758:libs/STM32F30x_StdPeriph_Driver/src/stm32f30x_usart.c ****   assert_param(IS_FUNCTIONAL_STATE(NewState));
 2211              		.loc 1 758 0 is_stmt 1 discriminator 4
 2212 0044 FB78     		ldrb	r3, [r7, #3]	@ zero_extendqisi2
 2213 0046 002B     		cmp	r3, #0
 2214 0048 02D0     		beq	.L182
 2215              		.loc 1 758 0 is_stmt 0 discriminator 2
 2216 004a FB78     		ldrb	r3, [r7, #3]	@ zero_extendqisi2
 2217 004c 012B     		cmp	r3, #1
 2218 004e 02D1     		bne	.L183
 2219              	.L182:
 2220              		.loc 1 758 0 discriminator 1
 2221 0050 4FF00103 		mov	r3, #1
 2222 0054 01E0     		b	.L184
 2223              	.L183:
 2224              		.loc 1 758 0 discriminator 3
 2225 0056 4FF00003 		mov	r3, #0
 2226              	.L184:
 2227              		.loc 1 758 0 discriminator 4
 2228 005a 1846     		mov	r0, r3
 2229 005c FFF7FEFF 		bl	assert_param
 759:libs/STM32F30x_StdPeriph_Driver/src/stm32f30x_usart.c ****   
 760:libs/STM32F30x_StdPeriph_Driver/src/stm32f30x_usart.c ****   if (NewState != DISABLE)
 2230              		.loc 1 760 0 is_stmt 1 discriminator 4
 2231 0060 FB78     		ldrb	r3, [r7, #3]	@ zero_extendqisi2
 2232 0062 002B     		cmp	r3, #0
 2233 0064 06D0     		beq	.L185
 761:libs/STM32F30x_StdPeriph_Driver/src/stm32f30x_usart.c ****   {
 762:libs/STM32F30x_StdPeriph_Driver/src/stm32f30x_usart.c ****     /* Enable the selected USART in STOP mode by setting the UESM bit in the CR1
 763:libs/STM32F30x_StdPeriph_Driver/src/stm32f30x_usart.c ****        register */
 764:libs/STM32F30x_StdPeriph_Driver/src/stm32f30x_usart.c ****     USARTx->CR1 |= USART_CR1_UESM;
 2234              		.loc 1 764 0
 2235 0066 7B68     		ldr	r3, [r7, #4]
 2236 0068 1B68     		ldr	r3, [r3, #0]
 2237 006a 43F00202 		orr	r2, r3, #2
 2238 006e 7B68     		ldr	r3, [r7, #4]
 2239 0070 1A60     		str	r2, [r3, #0]
 2240 0072 05E0     		b	.L178
 2241              	.L185:
 765:libs/STM32F30x_StdPeriph_Driver/src/stm32f30x_usart.c ****   }
 766:libs/STM32F30x_StdPeriph_Driver/src/stm32f30x_usart.c ****   else
 767:libs/STM32F30x_StdPeriph_Driver/src/stm32f30x_usart.c ****   {
 768:libs/STM32F30x_StdPeriph_Driver/src/stm32f30x_usart.c ****     /* Disable the selected USART in STOP mode by clearing the UE bit in the CR1
 769:libs/STM32F30x_StdPeriph_Driver/src/stm32f30x_usart.c ****        register */
 770:libs/STM32F30x_StdPeriph_Driver/src/stm32f30x_usart.c ****     USARTx->CR1 &= (uint32_t)~((uint32_t)USART_CR1_UESM);
 2242              		.loc 1 770 0
 2243 0074 7B68     		ldr	r3, [r7, #4]
 2244 0076 1B68     		ldr	r3, [r3, #0]
 2245 0078 23F00202 		bic	r2, r3, #2
 2246 007c 7B68     		ldr	r3, [r7, #4]
 2247 007e 1A60     		str	r2, [r3, #0]
 2248              	.L178:
 771:libs/STM32F30x_StdPeriph_Driver/src/stm32f30x_usart.c ****   }
 772:libs/STM32F30x_StdPeriph_Driver/src/stm32f30x_usart.c **** }
 2249              		.loc 1 772 0
 2250 0080 07F10807 		add	r7, r7, #8
 2251 0084 BD46     		mov	sp, r7
 2252 0086 80BD     		pop	{r7, pc}
 2253              	.L188:
 2254              		.align	2
 2255              	.L187:
 2256 0088 00380140 		.word	1073821696
 2257 008c 00440040 		.word	1073759232
 2258 0090 00480040 		.word	1073760256
 2259 0094 004C0040 		.word	1073761280
 2260 0098 00500040 		.word	1073762304
 2261              		.cfi_endproc
 2262              	.LFE126:
 2264              		.section	.text.USART_StopModeWakeUpSourceConfig,"ax",%progbits
 2265              		.align	2
 2266              		.global	USART_StopModeWakeUpSourceConfig
 2267              		.thumb
 2268              		.thumb_func
 2270              	USART_StopModeWakeUpSourceConfig:
 2271              	.LFB127:
 773:libs/STM32F30x_StdPeriph_Driver/src/stm32f30x_usart.c **** 
 774:libs/STM32F30x_StdPeriph_Driver/src/stm32f30x_usart.c **** /**
 775:libs/STM32F30x_StdPeriph_Driver/src/stm32f30x_usart.c ****   * @brief  Selects the USART WakeUp method form stop mode.
 776:libs/STM32F30x_StdPeriph_Driver/src/stm32f30x_usart.c ****   * @param  USARTx: Select the USART peripheral. This parameter can be one of the 
 777:libs/STM32F30x_StdPeriph_Driver/src/stm32f30x_usart.c ****   *         following values: USART1 or USART2 or USART3 or UART4 or UART5.
 778:libs/STM32F30x_StdPeriph_Driver/src/stm32f30x_usart.c ****   * @param  USART_WakeUp: specifies the selected USART wakeup method.
 779:libs/STM32F30x_StdPeriph_Driver/src/stm32f30x_usart.c ****   *         This parameter can be one of the following values:
 780:libs/STM32F30x_StdPeriph_Driver/src/stm32f30x_usart.c ****   *         @arg USART_WakeUpSource_AddressMatch: WUF active on address match.
 781:libs/STM32F30x_StdPeriph_Driver/src/stm32f30x_usart.c ****   *         @arg USART_WakeUpSource_StartBit: WUF active on Start bit detection.
 782:libs/STM32F30x_StdPeriph_Driver/src/stm32f30x_usart.c ****   *         @arg USART_WakeUpSource_RXNE: WUF active on RXNE.
 783:libs/STM32F30x_StdPeriph_Driver/src/stm32f30x_usart.c ****   * @note
 784:libs/STM32F30x_StdPeriph_Driver/src/stm32f30x_usart.c ****   *   This function has to be called before calling USART_Cmd() function.  
 785:libs/STM32F30x_StdPeriph_Driver/src/stm32f30x_usart.c ****   * @retval None
 786:libs/STM32F30x_StdPeriph_Driver/src/stm32f30x_usart.c ****   */
 787:libs/STM32F30x_StdPeriph_Driver/src/stm32f30x_usart.c **** void USART_StopModeWakeUpSourceConfig(USART_TypeDef* USARTx, uint32_t USART_WakeUpSource)
 788:libs/STM32F30x_StdPeriph_Driver/src/stm32f30x_usart.c **** {
 2272              		.loc 1 788 0
 2273              		.cfi_startproc
 2274              		@ args = 0, pretend = 0, frame = 8
 2275              		@ frame_needed = 1, uses_anonymous_args = 0
 2276 0000 80B5     		push	{r7, lr}
 2277              	.LCFI51:
 2278              		.cfi_def_cfa_offset 8
 2279              		.cfi_offset 7, -8
 2280              		.cfi_offset 14, -4
 2281 0002 82B0     		sub	sp, sp, #8
 2282              	.LCFI52:
 2283              		.cfi_def_cfa_offset 16
 2284 0004 00AF     		add	r7, sp, #0
 2285              	.LCFI53:
 2286              		.cfi_def_cfa_register 7
 2287 0006 7860     		str	r0, [r7, #4]
 2288 0008 3960     		str	r1, [r7, #0]
 789:libs/STM32F30x_StdPeriph_Driver/src/stm32f30x_usart.c ****   /* Check the parameters */
 790:libs/STM32F30x_StdPeriph_Driver/src/stm32f30x_usart.c ****   assert_param(IS_USART_ALL_PERIPH(USARTx));
 2289              		.loc 1 790 0
 2290 000a 7A68     		ldr	r2, [r7, #4]
 2291 000c 1E4B     		ldr	r3, .L196
 2292 000e 9A42     		cmp	r2, r3
 2293 0010 0FD0     		beq	.L190
 2294              		.loc 1 790 0 is_stmt 0 discriminator 2
 2295 0012 7A68     		ldr	r2, [r7, #4]
 2296 0014 1D4B     		ldr	r3, .L196+4
 2297 0016 9A42     		cmp	r2, r3
 2298 0018 0BD0     		beq	.L190
 2299              		.loc 1 790 0 discriminator 1
 2300 001a 7A68     		ldr	r2, [r7, #4]
 2301 001c 1C4B     		ldr	r3, .L196+8
 2302 001e 9A42     		cmp	r2, r3
 2303 0020 07D0     		beq	.L190
 2304              		.loc 1 790 0 discriminator 2
 2305 0022 7A68     		ldr	r2, [r7, #4]
 2306 0024 1B4B     		ldr	r3, .L196+12
 2307 0026 9A42     		cmp	r2, r3
 2308 0028 03D0     		beq	.L190
 2309              		.loc 1 790 0 discriminator 3
 2310 002a 7A68     		ldr	r2, [r7, #4]
 2311 002c 1A4B     		ldr	r3, .L196+16
 2312 002e 9A42     		cmp	r2, r3
 2313 0030 02D1     		bne	.L191
 2314              	.L190:
 2315              		.loc 1 790 0 discriminator 1
 2316 0032 4FF00103 		mov	r3, #1
 2317 0036 01E0     		b	.L192
 2318              	.L191:
 2319              		.loc 1 790 0 discriminator 3
 2320 0038 4FF00003 		mov	r3, #0
 2321              	.L192:
 2322              		.loc 1 790 0 discriminator 4
 2323 003c 1846     		mov	r0, r3
 2324 003e FFF7FEFF 		bl	assert_param
 791:libs/STM32F30x_StdPeriph_Driver/src/stm32f30x_usart.c ****   assert_param(IS_USART_STOPMODE_WAKEUPSOURCE(USART_WakeUpSource));
 2325              		.loc 1 791 0 is_stmt 1 discriminator 4
 2326 0042 3B68     		ldr	r3, [r7, #0]
 2327 0044 002B     		cmp	r3, #0
 2328 0046 07D0     		beq	.L193
 2329              		.loc 1 791 0 is_stmt 0 discriminator 2
 2330 0048 3B68     		ldr	r3, [r7, #0]
 2331 004a B3F5001F 		cmp	r3, #2097152
 2332 004e 03D0     		beq	.L193
 2333              		.loc 1 791 0 discriminator 1
 2334 0050 3B68     		ldr	r3, [r7, #0]
 2335 0052 B3F5401F 		cmp	r3, #3145728
 2336 0056 02D1     		bne	.L194
 2337              	.L193:
 2338 0058 4FF00103 		mov	r3, #1
 2339 005c 01E0     		b	.L195
 2340              	.L194:
 2341              		.loc 1 791 0 discriminator 3
 2342 005e 4FF00003 		mov	r3, #0
 2343              	.L195:
 2344              		.loc 1 791 0 discriminator 4
 2345 0062 1846     		mov	r0, r3
 2346 0064 FFF7FEFF 		bl	assert_param
 792:libs/STM32F30x_StdPeriph_Driver/src/stm32f30x_usart.c **** 
 793:libs/STM32F30x_StdPeriph_Driver/src/stm32f30x_usart.c ****   USARTx->CR3 &= (uint32_t)~((uint32_t)USART_CR3_WUS);
 2347              		.loc 1 793 0 is_stmt 1 discriminator 4
 2348 0068 7B68     		ldr	r3, [r7, #4]
 2349 006a 9B68     		ldr	r3, [r3, #8]
 2350 006c 23F44012 		bic	r2, r3, #3145728
 2351 0070 7B68     		ldr	r3, [r7, #4]
 2352 0072 9A60     		str	r2, [r3, #8]
 794:libs/STM32F30x_StdPeriph_Driver/src/stm32f30x_usart.c ****   USARTx->CR3 |= USART_WakeUpSource;
 2353              		.loc 1 794 0 discriminator 4
 2354 0074 7B68     		ldr	r3, [r7, #4]
 2355 0076 9A68     		ldr	r2, [r3, #8]
 2356 0078 3B68     		ldr	r3, [r7, #0]
 2357 007a 1A43     		orrs	r2, r2, r3
 2358 007c 7B68     		ldr	r3, [r7, #4]
 2359 007e 9A60     		str	r2, [r3, #8]
 795:libs/STM32F30x_StdPeriph_Driver/src/stm32f30x_usart.c **** }
 2360              		.loc 1 795 0 discriminator 4
 2361 0080 07F10807 		add	r7, r7, #8
 2362 0084 BD46     		mov	sp, r7
 2363 0086 80BD     		pop	{r7, pc}
 2364              	.L197:
 2365              		.align	2
 2366              	.L196:
 2367 0088 00380140 		.word	1073821696
 2368 008c 00440040 		.word	1073759232
 2369 0090 00480040 		.word	1073760256
 2370 0094 004C0040 		.word	1073761280
 2371 0098 00500040 		.word	1073762304
 2372              		.cfi_endproc
 2373              	.LFE127:
 2375              		.section	.text.USART_AutoBaudRateCmd,"ax",%progbits
 2376              		.align	2
 2377              		.global	USART_AutoBaudRateCmd
 2378              		.thumb
 2379              		.thumb_func
 2381              	USART_AutoBaudRateCmd:
 2382              	.LFB128:
 796:libs/STM32F30x_StdPeriph_Driver/src/stm32f30x_usart.c **** 
 797:libs/STM32F30x_StdPeriph_Driver/src/stm32f30x_usart.c **** /**
 798:libs/STM32F30x_StdPeriph_Driver/src/stm32f30x_usart.c ****   * @}
 799:libs/STM32F30x_StdPeriph_Driver/src/stm32f30x_usart.c ****   */
 800:libs/STM32F30x_StdPeriph_Driver/src/stm32f30x_usart.c **** 
 801:libs/STM32F30x_StdPeriph_Driver/src/stm32f30x_usart.c **** 
 802:libs/STM32F30x_StdPeriph_Driver/src/stm32f30x_usart.c **** /** @defgroup USART_Group3 AutoBaudRate functions
 803:libs/STM32F30x_StdPeriph_Driver/src/stm32f30x_usart.c ****  *  @brief   AutoBaudRate functions 
 804:libs/STM32F30x_StdPeriph_Driver/src/stm32f30x_usart.c ****  *
 805:libs/STM32F30x_StdPeriph_Driver/src/stm32f30x_usart.c **** @verbatim
 806:libs/STM32F30x_StdPeriph_Driver/src/stm32f30x_usart.c ****  ===============================================================================
 807:libs/STM32F30x_StdPeriph_Driver/src/stm32f30x_usart.c ****                        ##### AutoBaudRate functions #####
 808:libs/STM32F30x_StdPeriph_Driver/src/stm32f30x_usart.c ****  ===============================================================================
 809:libs/STM32F30x_StdPeriph_Driver/src/stm32f30x_usart.c ****     [..] This subsection provides a set of functions allowing to manage 
 810:libs/STM32F30x_StdPeriph_Driver/src/stm32f30x_usart.c ****          the AutoBaudRate detections.
 811:libs/STM32F30x_StdPeriph_Driver/src/stm32f30x_usart.c ****          
 812:libs/STM32F30x_StdPeriph_Driver/src/stm32f30x_usart.c ****     [..] Before Enabling AutoBaudRate detection using USART_AutoBaudRateCmd ()
 813:libs/STM32F30x_StdPeriph_Driver/src/stm32f30x_usart.c ****          The character patterns used to calculate baudrate must be chosen by calling 
 814:libs/STM32F30x_StdPeriph_Driver/src/stm32f30x_usart.c ****          USART_AutoBaudRateConfig() function. These function take as parameter :
 815:libs/STM32F30x_StdPeriph_Driver/src/stm32f30x_usart.c ****         (#)USART_AutoBaudRate_StartBit : any character starting with a bit 1.
 816:libs/STM32F30x_StdPeriph_Driver/src/stm32f30x_usart.c ****         (#)USART_AutoBaudRate_FallingEdge : any character starting with a 10xx bit pattern. 
 817:libs/STM32F30x_StdPeriph_Driver/src/stm32f30x_usart.c ****                           
 818:libs/STM32F30x_StdPeriph_Driver/src/stm32f30x_usart.c ****     [..] At any later time, another request for AutoBaudRate detection can be performed
 819:libs/STM32F30x_StdPeriph_Driver/src/stm32f30x_usart.c ****          using USART_RequestCmd() function.
 820:libs/STM32F30x_StdPeriph_Driver/src/stm32f30x_usart.c ****          
 821:libs/STM32F30x_StdPeriph_Driver/src/stm32f30x_usart.c ****     [..] The AutoBaudRate detection is monitored by the status of ABRF flag which indicate
 822:libs/STM32F30x_StdPeriph_Driver/src/stm32f30x_usart.c ****          that the AutoBaudRate detection is completed. In addition to ABRF flag, the ABRE flag
 823:libs/STM32F30x_StdPeriph_Driver/src/stm32f30x_usart.c ****          indicate that this procedure is completed without success. USART_GetFlagStatus () 
 824:libs/STM32F30x_StdPeriph_Driver/src/stm32f30x_usart.c ****          function should be used to monitor the status of these flags.  
 825:libs/STM32F30x_StdPeriph_Driver/src/stm32f30x_usart.c ****              
 826:libs/STM32F30x_StdPeriph_Driver/src/stm32f30x_usart.c **** @endverbatim
 827:libs/STM32F30x_StdPeriph_Driver/src/stm32f30x_usart.c ****   * @{
 828:libs/STM32F30x_StdPeriph_Driver/src/stm32f30x_usart.c ****   */
 829:libs/STM32F30x_StdPeriph_Driver/src/stm32f30x_usart.c ****   
 830:libs/STM32F30x_StdPeriph_Driver/src/stm32f30x_usart.c **** /**
 831:libs/STM32F30x_StdPeriph_Driver/src/stm32f30x_usart.c ****   * @brief  Enables or disables the Auto Baud Rate.
 832:libs/STM32F30x_StdPeriph_Driver/src/stm32f30x_usart.c ****   * @param  USARTx: Select the USART peripheral. This parameter can be one of the 
 833:libs/STM32F30x_StdPeriph_Driver/src/stm32f30x_usart.c ****   *         following values: USART1 or USART2 or USART3 or UART4 or UART5.
 834:libs/STM32F30x_StdPeriph_Driver/src/stm32f30x_usart.c ****   * @param  NewState: new state of the USARTx auto baud rate.
 835:libs/STM32F30x_StdPeriph_Driver/src/stm32f30x_usart.c ****   *         This parameter can be: ENABLE or DISABLE.
 836:libs/STM32F30x_StdPeriph_Driver/src/stm32f30x_usart.c ****   * @retval None
 837:libs/STM32F30x_StdPeriph_Driver/src/stm32f30x_usart.c ****   */
 838:libs/STM32F30x_StdPeriph_Driver/src/stm32f30x_usart.c **** void USART_AutoBaudRateCmd(USART_TypeDef* USARTx, FunctionalState NewState)
 839:libs/STM32F30x_StdPeriph_Driver/src/stm32f30x_usart.c **** {
 2383              		.loc 1 839 0
 2384              		.cfi_startproc
 2385              		@ args = 0, pretend = 0, frame = 8
 2386              		@ frame_needed = 1, uses_anonymous_args = 0
 2387 0000 80B5     		push	{r7, lr}
 2388              	.LCFI54:
 2389              		.cfi_def_cfa_offset 8
 2390              		.cfi_offset 7, -8
 2391              		.cfi_offset 14, -4
 2392 0002 82B0     		sub	sp, sp, #8
 2393              	.LCFI55:
 2394              		.cfi_def_cfa_offset 16
 2395 0004 00AF     		add	r7, sp, #0
 2396              	.LCFI56:
 2397              		.cfi_def_cfa_register 7
 2398 0006 7860     		str	r0, [r7, #4]
 2399 0008 0B46     		mov	r3, r1
 2400 000a FB70     		strb	r3, [r7, #3]
 840:libs/STM32F30x_StdPeriph_Driver/src/stm32f30x_usart.c ****   /* Check the parameters */
 841:libs/STM32F30x_StdPeriph_Driver/src/stm32f30x_usart.c ****   assert_param(IS_USART_ALL_PERIPH(USARTx));
 2401              		.loc 1 841 0
 2402 000c 7A68     		ldr	r2, [r7, #4]
 2403 000e 1E4B     		ldr	r3, .L207
 2404 0010 9A42     		cmp	r2, r3
 2405 0012 0FD0     		beq	.L199
 2406              		.loc 1 841 0 is_stmt 0 discriminator 2
 2407 0014 7A68     		ldr	r2, [r7, #4]
 2408 0016 1D4B     		ldr	r3, .L207+4
 2409 0018 9A42     		cmp	r2, r3
 2410 001a 0BD0     		beq	.L199
 2411              		.loc 1 841 0 discriminator 1
 2412 001c 7A68     		ldr	r2, [r7, #4]
 2413 001e 1C4B     		ldr	r3, .L207+8
 2414 0020 9A42     		cmp	r2, r3
 2415 0022 07D0     		beq	.L199
 2416              		.loc 1 841 0 discriminator 2
 2417 0024 7A68     		ldr	r2, [r7, #4]
 2418 0026 1B4B     		ldr	r3, .L207+12
 2419 0028 9A42     		cmp	r2, r3
 2420 002a 03D0     		beq	.L199
 2421              		.loc 1 841 0 discriminator 3
 2422 002c 7A68     		ldr	r2, [r7, #4]
 2423 002e 1A4B     		ldr	r3, .L207+16
 2424 0030 9A42     		cmp	r2, r3
 2425 0032 02D1     		bne	.L200
 2426              	.L199:
 2427              		.loc 1 841 0 discriminator 1
 2428 0034 4FF00103 		mov	r3, #1
 2429 0038 01E0     		b	.L201
 2430              	.L200:
 2431              		.loc 1 841 0 discriminator 3
 2432 003a 4FF00003 		mov	r3, #0
 2433              	.L201:
 2434              		.loc 1 841 0 discriminator 4
 2435 003e 1846     		mov	r0, r3
 2436 0040 FFF7FEFF 		bl	assert_param
 842:libs/STM32F30x_StdPeriph_Driver/src/stm32f30x_usart.c ****   assert_param(IS_FUNCTIONAL_STATE(NewState));
 2437              		.loc 1 842 0 is_stmt 1 discriminator 4
 2438 0044 FB78     		ldrb	r3, [r7, #3]	@ zero_extendqisi2
 2439 0046 002B     		cmp	r3, #0
 2440 0048 02D0     		beq	.L202
 2441              		.loc 1 842 0 is_stmt 0 discriminator 2
 2442 004a FB78     		ldrb	r3, [r7, #3]	@ zero_extendqisi2
 2443 004c 012B     		cmp	r3, #1
 2444 004e 02D1     		bne	.L203
 2445              	.L202:
 2446              		.loc 1 842 0 discriminator 1
 2447 0050 4FF00103 		mov	r3, #1
 2448 0054 01E0     		b	.L204
 2449              	.L203:
 2450              		.loc 1 842 0 discriminator 3
 2451 0056 4FF00003 		mov	r3, #0
 2452              	.L204:
 2453              		.loc 1 842 0 discriminator 4
 2454 005a 1846     		mov	r0, r3
 2455 005c FFF7FEFF 		bl	assert_param
 843:libs/STM32F30x_StdPeriph_Driver/src/stm32f30x_usart.c **** 
 844:libs/STM32F30x_StdPeriph_Driver/src/stm32f30x_usart.c ****   if (NewState != DISABLE)
 2456              		.loc 1 844 0 is_stmt 1 discriminator 4
 2457 0060 FB78     		ldrb	r3, [r7, #3]	@ zero_extendqisi2
 2458 0062 002B     		cmp	r3, #0
 2459 0064 06D0     		beq	.L205
 845:libs/STM32F30x_StdPeriph_Driver/src/stm32f30x_usart.c ****   {
 846:libs/STM32F30x_StdPeriph_Driver/src/stm32f30x_usart.c ****     /* Enable the auto baud rate feature by setting the ABREN bit in the CR2 
 847:libs/STM32F30x_StdPeriph_Driver/src/stm32f30x_usart.c ****        register */
 848:libs/STM32F30x_StdPeriph_Driver/src/stm32f30x_usart.c ****     USARTx->CR2 |= USART_CR2_ABREN;
 2460              		.loc 1 848 0
 2461 0066 7B68     		ldr	r3, [r7, #4]
 2462 0068 5B68     		ldr	r3, [r3, #4]
 2463 006a 43F48012 		orr	r2, r3, #1048576
 2464 006e 7B68     		ldr	r3, [r7, #4]
 2465 0070 5A60     		str	r2, [r3, #4]
 2466 0072 05E0     		b	.L198
 2467              	.L205:
 849:libs/STM32F30x_StdPeriph_Driver/src/stm32f30x_usart.c ****   }
 850:libs/STM32F30x_StdPeriph_Driver/src/stm32f30x_usart.c ****   else
 851:libs/STM32F30x_StdPeriph_Driver/src/stm32f30x_usart.c ****   {
 852:libs/STM32F30x_StdPeriph_Driver/src/stm32f30x_usart.c ****     /* Disable the auto baud rate feature by clearing the ABREN bit in the CR2 
 853:libs/STM32F30x_StdPeriph_Driver/src/stm32f30x_usart.c ****        register */
 854:libs/STM32F30x_StdPeriph_Driver/src/stm32f30x_usart.c ****     USARTx->CR2 &= (uint32_t)~((uint32_t)USART_CR2_ABREN);
 2468              		.loc 1 854 0
 2469 0074 7B68     		ldr	r3, [r7, #4]
 2470 0076 5B68     		ldr	r3, [r3, #4]
 2471 0078 23F48012 		bic	r2, r3, #1048576
 2472 007c 7B68     		ldr	r3, [r7, #4]
 2473 007e 5A60     		str	r2, [r3, #4]
 2474              	.L198:
 855:libs/STM32F30x_StdPeriph_Driver/src/stm32f30x_usart.c ****   }
 856:libs/STM32F30x_StdPeriph_Driver/src/stm32f30x_usart.c **** }
 2475              		.loc 1 856 0
 2476 0080 07F10807 		add	r7, r7, #8
 2477 0084 BD46     		mov	sp, r7
 2478 0086 80BD     		pop	{r7, pc}
 2479              	.L208:
 2480              		.align	2
 2481              	.L207:
 2482 0088 00380140 		.word	1073821696
 2483 008c 00440040 		.word	1073759232
 2484 0090 00480040 		.word	1073760256
 2485 0094 004C0040 		.word	1073761280
 2486 0098 00500040 		.word	1073762304
 2487              		.cfi_endproc
 2488              	.LFE128:
 2490              		.section	.text.USART_AutoBaudRateConfig,"ax",%progbits
 2491              		.align	2
 2492              		.global	USART_AutoBaudRateConfig
 2493              		.thumb
 2494              		.thumb_func
 2496              	USART_AutoBaudRateConfig:
 2497              	.LFB129:
 857:libs/STM32F30x_StdPeriph_Driver/src/stm32f30x_usart.c **** 
 858:libs/STM32F30x_StdPeriph_Driver/src/stm32f30x_usart.c **** /**
 859:libs/STM32F30x_StdPeriph_Driver/src/stm32f30x_usart.c ****   * @brief  Selects the USART auto baud rate method.
 860:libs/STM32F30x_StdPeriph_Driver/src/stm32f30x_usart.c ****   * @param  USARTx: Select the USART peripheral. This parameter can be one of the 
 861:libs/STM32F30x_StdPeriph_Driver/src/stm32f30x_usart.c ****   *         following values: USART1 or USART2 or USART3 or UART4 or UART5.
 862:libs/STM32F30x_StdPeriph_Driver/src/stm32f30x_usart.c ****   * @param  USART_AutoBaudRate: specifies the selected USART auto baud rate method.
 863:libs/STM32F30x_StdPeriph_Driver/src/stm32f30x_usart.c ****   *         This parameter can be one of the following values:
 864:libs/STM32F30x_StdPeriph_Driver/src/stm32f30x_usart.c ****   *         @arg USART_AutoBaudRate_StartBit: Start Bit duration measurement.
 865:libs/STM32F30x_StdPeriph_Driver/src/stm32f30x_usart.c ****   *         @arg USART_AutoBaudRate_FallingEdge: Falling edge to falling edge measurement.
 866:libs/STM32F30x_StdPeriph_Driver/src/stm32f30x_usart.c ****   *         @arg USART_AutoBaudRate_0x7FFrame: 0x7F frame.
 867:libs/STM32F30x_StdPeriph_Driver/src/stm32f30x_usart.c ****   *         @arg USART_AutoBaudRate_0x55Frame: 0x55 frame.
 868:libs/STM32F30x_StdPeriph_Driver/src/stm32f30x_usart.c ****   * @note
 869:libs/STM32F30x_StdPeriph_Driver/src/stm32f30x_usart.c ****   *   This function has to be called before calling USART_Cmd() function. 
 870:libs/STM32F30x_StdPeriph_Driver/src/stm32f30x_usart.c ****   * @retval None
 871:libs/STM32F30x_StdPeriph_Driver/src/stm32f30x_usart.c ****   */
 872:libs/STM32F30x_StdPeriph_Driver/src/stm32f30x_usart.c **** void USART_AutoBaudRateConfig(USART_TypeDef* USARTx, uint32_t USART_AutoBaudRate)
 873:libs/STM32F30x_StdPeriph_Driver/src/stm32f30x_usart.c **** {
 2498              		.loc 1 873 0
 2499              		.cfi_startproc
 2500              		@ args = 0, pretend = 0, frame = 8
 2501              		@ frame_needed = 1, uses_anonymous_args = 0
 2502 0000 80B5     		push	{r7, lr}
 2503              	.LCFI57:
 2504              		.cfi_def_cfa_offset 8
 2505              		.cfi_offset 7, -8
 2506              		.cfi_offset 14, -4
 2507 0002 82B0     		sub	sp, sp, #8
 2508              	.LCFI58:
 2509              		.cfi_def_cfa_offset 16
 2510 0004 00AF     		add	r7, sp, #0
 2511              	.LCFI59:
 2512              		.cfi_def_cfa_register 7
 2513 0006 7860     		str	r0, [r7, #4]
 2514 0008 3960     		str	r1, [r7, #0]
 874:libs/STM32F30x_StdPeriph_Driver/src/stm32f30x_usart.c ****   /* Check the parameters */
 875:libs/STM32F30x_StdPeriph_Driver/src/stm32f30x_usart.c ****   assert_param(IS_USART_ALL_PERIPH(USARTx));
 2515              		.loc 1 875 0
 2516 000a 7A68     		ldr	r2, [r7, #4]
 2517 000c 204B     		ldr	r3, .L216
 2518 000e 9A42     		cmp	r2, r3
 2519 0010 0FD0     		beq	.L210
 2520              		.loc 1 875 0 is_stmt 0 discriminator 2
 2521 0012 7A68     		ldr	r2, [r7, #4]
 2522 0014 1F4B     		ldr	r3, .L216+4
 2523 0016 9A42     		cmp	r2, r3
 2524 0018 0BD0     		beq	.L210
 2525              		.loc 1 875 0 discriminator 1
 2526 001a 7A68     		ldr	r2, [r7, #4]
 2527 001c 1E4B     		ldr	r3, .L216+8
 2528 001e 9A42     		cmp	r2, r3
 2529 0020 07D0     		beq	.L210
 2530              		.loc 1 875 0 discriminator 2
 2531 0022 7A68     		ldr	r2, [r7, #4]
 2532 0024 1D4B     		ldr	r3, .L216+12
 2533 0026 9A42     		cmp	r2, r3
 2534 0028 03D0     		beq	.L210
 2535              		.loc 1 875 0 discriminator 3
 2536 002a 7A68     		ldr	r2, [r7, #4]
 2537 002c 1C4B     		ldr	r3, .L216+16
 2538 002e 9A42     		cmp	r2, r3
 2539 0030 02D1     		bne	.L211
 2540              	.L210:
 2541              		.loc 1 875 0 discriminator 1
 2542 0032 4FF00103 		mov	r3, #1
 2543 0036 01E0     		b	.L212
 2544              	.L211:
 2545              		.loc 1 875 0 discriminator 3
 2546 0038 4FF00003 		mov	r3, #0
 2547              	.L212:
 2548              		.loc 1 875 0 discriminator 4
 2549 003c 1846     		mov	r0, r3
 2550 003e FFF7FEFF 		bl	assert_param
 876:libs/STM32F30x_StdPeriph_Driver/src/stm32f30x_usart.c ****   assert_param(IS_USART_AUTOBAUDRATE_MODE(USART_AutoBaudRate));
 2551              		.loc 1 876 0 is_stmt 1 discriminator 4
 2552 0042 3B68     		ldr	r3, [r7, #0]
 2553 0044 002B     		cmp	r3, #0
 2554 0046 0BD0     		beq	.L213
 2555              		.loc 1 876 0 is_stmt 0 discriminator 2
 2556 0048 3B68     		ldr	r3, [r7, #0]
 2557 004a B3F5001F 		cmp	r3, #2097152
 2558 004e 07D0     		beq	.L213
 2559              		.loc 1 876 0 discriminator 1
 2560 0050 3B68     		ldr	r3, [r7, #0]
 2561 0052 B3F5800F 		cmp	r3, #4194304
 2562 0056 03D0     		beq	.L213
 2563              		.loc 1 876 0 discriminator 2
 2564 0058 3B68     		ldr	r3, [r7, #0]
 2565 005a B3F5C00F 		cmp	r3, #6291456
 2566 005e 02D1     		bne	.L214
 2567              	.L213:
 2568              		.loc 1 876 0 discriminator 1
 2569 0060 4FF00103 		mov	r3, #1
 2570 0064 01E0     		b	.L215
 2571              	.L214:
 2572              		.loc 1 876 0 discriminator 3
 2573 0066 4FF00003 		mov	r3, #0
 2574              	.L215:
 2575              		.loc 1 876 0 discriminator 4
 2576 006a 1846     		mov	r0, r3
 2577 006c FFF7FEFF 		bl	assert_param
 877:libs/STM32F30x_StdPeriph_Driver/src/stm32f30x_usart.c **** 
 878:libs/STM32F30x_StdPeriph_Driver/src/stm32f30x_usart.c ****   USARTx->CR2 &= (uint32_t)~((uint32_t)USART_CR2_ABRMODE);
 2578              		.loc 1 878 0 is_stmt 1 discriminator 4
 2579 0070 7B68     		ldr	r3, [r7, #4]
 2580 0072 5B68     		ldr	r3, [r3, #4]
 2581 0074 23F4C002 		bic	r2, r3, #6291456
 2582 0078 7B68     		ldr	r3, [r7, #4]
 2583 007a 5A60     		str	r2, [r3, #4]
 879:libs/STM32F30x_StdPeriph_Driver/src/stm32f30x_usart.c ****   USARTx->CR2 |= USART_AutoBaudRate;
 2584              		.loc 1 879 0 discriminator 4
 2585 007c 7B68     		ldr	r3, [r7, #4]
 2586 007e 5A68     		ldr	r2, [r3, #4]
 2587 0080 3B68     		ldr	r3, [r7, #0]
 2588 0082 1A43     		orrs	r2, r2, r3
 2589 0084 7B68     		ldr	r3, [r7, #4]
 2590 0086 5A60     		str	r2, [r3, #4]
 880:libs/STM32F30x_StdPeriph_Driver/src/stm32f30x_usart.c **** }
 2591              		.loc 1 880 0 discriminator 4
 2592 0088 07F10807 		add	r7, r7, #8
 2593 008c BD46     		mov	sp, r7
 2594 008e 80BD     		pop	{r7, pc}
 2595              	.L217:
 2596              		.align	2
 2597              	.L216:
 2598 0090 00380140 		.word	1073821696
 2599 0094 00440040 		.word	1073759232
 2600 0098 00480040 		.word	1073760256
 2601 009c 004C0040 		.word	1073761280
 2602 00a0 00500040 		.word	1073762304
 2603              		.cfi_endproc
 2604              	.LFE129:
 2606              		.section	.text.USART_SendData,"ax",%progbits
 2607              		.align	2
 2608              		.global	USART_SendData
 2609              		.thumb
 2610              		.thumb_func
 2612              	USART_SendData:
 2613              	.LFB130:
 881:libs/STM32F30x_StdPeriph_Driver/src/stm32f30x_usart.c **** 
 882:libs/STM32F30x_StdPeriph_Driver/src/stm32f30x_usart.c **** /**
 883:libs/STM32F30x_StdPeriph_Driver/src/stm32f30x_usart.c ****   * @}
 884:libs/STM32F30x_StdPeriph_Driver/src/stm32f30x_usart.c ****   */
 885:libs/STM32F30x_StdPeriph_Driver/src/stm32f30x_usart.c **** 
 886:libs/STM32F30x_StdPeriph_Driver/src/stm32f30x_usart.c **** 
 887:libs/STM32F30x_StdPeriph_Driver/src/stm32f30x_usart.c **** /** @defgroup USART_Group4 Data transfers functions
 888:libs/STM32F30x_StdPeriph_Driver/src/stm32f30x_usart.c ****  *  @brief   Data transfers functions 
 889:libs/STM32F30x_StdPeriph_Driver/src/stm32f30x_usart.c ****  *
 890:libs/STM32F30x_StdPeriph_Driver/src/stm32f30x_usart.c **** @verbatim
 891:libs/STM32F30x_StdPeriph_Driver/src/stm32f30x_usart.c ****  ===============================================================================
 892:libs/STM32F30x_StdPeriph_Driver/src/stm32f30x_usart.c ****                     ##### Data transfers functions #####
 893:libs/STM32F30x_StdPeriph_Driver/src/stm32f30x_usart.c ****  ===============================================================================
 894:libs/STM32F30x_StdPeriph_Driver/src/stm32f30x_usart.c ****     [..] This subsection provides a set of functions allowing to manage 
 895:libs/STM32F30x_StdPeriph_Driver/src/stm32f30x_usart.c ****          the USART data transfers.
 896:libs/STM32F30x_StdPeriph_Driver/src/stm32f30x_usart.c ****     [..] During an USART reception, data shifts in least significant bit first 
 897:libs/STM32F30x_StdPeriph_Driver/src/stm32f30x_usart.c ****          through the RX pin. When a transmission is taking place, a write instruction to 
 898:libs/STM32F30x_StdPeriph_Driver/src/stm32f30x_usart.c ****          the USART_TDR register stores the data in the shift register.
 899:libs/STM32F30x_StdPeriph_Driver/src/stm32f30x_usart.c ****     [..] The read access of the USART_RDR register can be done using 
 900:libs/STM32F30x_StdPeriph_Driver/src/stm32f30x_usart.c ****          the USART_ReceiveData() function and returns the RDR value.
 901:libs/STM32F30x_StdPeriph_Driver/src/stm32f30x_usart.c ****          Whereas a write access to the USART_TDR can be done using USART_SendData()
 902:libs/STM32F30x_StdPeriph_Driver/src/stm32f30x_usart.c ****          function and stores the written data into TDR.
 903:libs/STM32F30x_StdPeriph_Driver/src/stm32f30x_usart.c **** 
 904:libs/STM32F30x_StdPeriph_Driver/src/stm32f30x_usart.c **** @endverbatim
 905:libs/STM32F30x_StdPeriph_Driver/src/stm32f30x_usart.c ****   * @{
 906:libs/STM32F30x_StdPeriph_Driver/src/stm32f30x_usart.c ****   */
 907:libs/STM32F30x_StdPeriph_Driver/src/stm32f30x_usart.c **** 
 908:libs/STM32F30x_StdPeriph_Driver/src/stm32f30x_usart.c **** /**
 909:libs/STM32F30x_StdPeriph_Driver/src/stm32f30x_usart.c ****   * @brief  Transmits single data through the USARTx peripheral.
 910:libs/STM32F30x_StdPeriph_Driver/src/stm32f30x_usart.c ****   * @param  USARTx: Select the USART peripheral. This parameter can be one of the 
 911:libs/STM32F30x_StdPeriph_Driver/src/stm32f30x_usart.c ****   *         following values: USART1 or USART2 or USART3 or UART4 or UART5.
 912:libs/STM32F30x_StdPeriph_Driver/src/stm32f30x_usart.c ****   * @param  Data: the data to transmit.
 913:libs/STM32F30x_StdPeriph_Driver/src/stm32f30x_usart.c ****   * @retval None
 914:libs/STM32F30x_StdPeriph_Driver/src/stm32f30x_usart.c ****   */
 915:libs/STM32F30x_StdPeriph_Driver/src/stm32f30x_usart.c **** void USART_SendData(USART_TypeDef* USARTx, uint16_t Data)
 916:libs/STM32F30x_StdPeriph_Driver/src/stm32f30x_usart.c **** {
 2614              		.loc 1 916 0
 2615              		.cfi_startproc
 2616              		@ args = 0, pretend = 0, frame = 8
 2617              		@ frame_needed = 1, uses_anonymous_args = 0
 2618 0000 80B5     		push	{r7, lr}
 2619              	.LCFI60:
 2620              		.cfi_def_cfa_offset 8
 2621              		.cfi_offset 7, -8
 2622              		.cfi_offset 14, -4
 2623 0002 82B0     		sub	sp, sp, #8
 2624              	.LCFI61:
 2625              		.cfi_def_cfa_offset 16
 2626 0004 00AF     		add	r7, sp, #0
 2627              	.LCFI62:
 2628              		.cfi_def_cfa_register 7
 2629 0006 7860     		str	r0, [r7, #4]
 2630 0008 0B46     		mov	r3, r1
 2631 000a 7B80     		strh	r3, [r7, #2]	@ movhi
 917:libs/STM32F30x_StdPeriph_Driver/src/stm32f30x_usart.c ****   /* Check the parameters */
 918:libs/STM32F30x_StdPeriph_Driver/src/stm32f30x_usart.c ****   assert_param(IS_USART_ALL_PERIPH(USARTx));
 2632              		.loc 1 918 0
 2633 000c 7A68     		ldr	r2, [r7, #4]
 2634 000e 194B     		ldr	r3, .L222
 2635 0010 9A42     		cmp	r2, r3
 2636 0012 0FD0     		beq	.L219
 2637              		.loc 1 918 0 is_stmt 0 discriminator 2
 2638 0014 7A68     		ldr	r2, [r7, #4]
 2639 0016 184B     		ldr	r3, .L222+4
 2640 0018 9A42     		cmp	r2, r3
 2641 001a 0BD0     		beq	.L219
 2642              		.loc 1 918 0 discriminator 1
 2643 001c 7A68     		ldr	r2, [r7, #4]
 2644 001e 174B     		ldr	r3, .L222+8
 2645 0020 9A42     		cmp	r2, r3
 2646 0022 07D0     		beq	.L219
 2647              		.loc 1 918 0 discriminator 2
 2648 0024 7A68     		ldr	r2, [r7, #4]
 2649 0026 164B     		ldr	r3, .L222+12
 2650 0028 9A42     		cmp	r2, r3
 2651 002a 03D0     		beq	.L219
 2652              		.loc 1 918 0 discriminator 3
 2653 002c 7A68     		ldr	r2, [r7, #4]
 2654 002e 154B     		ldr	r3, .L222+16
 2655 0030 9A42     		cmp	r2, r3
 2656 0032 02D1     		bne	.L220
 2657              	.L219:
 2658              		.loc 1 918 0 discriminator 1
 2659 0034 4FF00103 		mov	r3, #1
 2660 0038 01E0     		b	.L221
 2661              	.L220:
 2662              		.loc 1 918 0 discriminator 3
 2663 003a 4FF00003 		mov	r3, #0
 2664              	.L221:
 2665              		.loc 1 918 0 discriminator 4
 2666 003e 1846     		mov	r0, r3
 2667 0040 FFF7FEFF 		bl	assert_param
 919:libs/STM32F30x_StdPeriph_Driver/src/stm32f30x_usart.c ****   assert_param(IS_USART_DATA(Data)); 
 2668              		.loc 1 919 0 is_stmt 1 discriminator 4
 2669 0044 7A88     		ldrh	r2, [r7, #2]
 2670 0046 40F2FF13 		movw	r3, #511
 2671 004a 9A42     		cmp	r2, r3
 2672 004c 8CBF     		ite	hi
 2673 004e 0023     		movhi	r3, #0
 2674 0050 0123     		movls	r3, #1
 2675 0052 DBB2     		uxtb	r3, r3
 2676 0054 1846     		mov	r0, r3
 2677 0056 FFF7FEFF 		bl	assert_param
 920:libs/STM32F30x_StdPeriph_Driver/src/stm32f30x_usart.c **** 
 921:libs/STM32F30x_StdPeriph_Driver/src/stm32f30x_usart.c ****   /* Transmit Data */
 922:libs/STM32F30x_StdPeriph_Driver/src/stm32f30x_usart.c ****   USARTx->TDR = (Data & (uint16_t)0x01FF);
 2678              		.loc 1 922 0 discriminator 4
 2679 005a 7B88     		ldrh	r3, [r7, #2]	@ movhi
 2680 005c 4FEAC353 		lsl	r3, r3, #23
 2681 0060 4FEAD353 		lsr	r3, r3, #23
 2682 0064 9AB2     		uxth	r2, r3
 2683 0066 7B68     		ldr	r3, [r7, #4]
 2684 0068 1A85     		strh	r2, [r3, #40]	@ movhi
 923:libs/STM32F30x_StdPeriph_Driver/src/stm32f30x_usart.c **** }
 2685              		.loc 1 923 0 discriminator 4
 2686 006a 07F10807 		add	r7, r7, #8
 2687 006e BD46     		mov	sp, r7
 2688 0070 80BD     		pop	{r7, pc}
 2689              	.L223:
 2690 0072 00BF     		.align	2
 2691              	.L222:
 2692 0074 00380140 		.word	1073821696
 2693 0078 00440040 		.word	1073759232
 2694 007c 00480040 		.word	1073760256
 2695 0080 004C0040 		.word	1073761280
 2696 0084 00500040 		.word	1073762304
 2697              		.cfi_endproc
 2698              	.LFE130:
 2700              		.section	.text.USART_ReceiveData,"ax",%progbits
 2701              		.align	2
 2702              		.global	USART_ReceiveData
 2703              		.thumb
 2704              		.thumb_func
 2706              	USART_ReceiveData:
 2707              	.LFB131:
 924:libs/STM32F30x_StdPeriph_Driver/src/stm32f30x_usart.c **** 
 925:libs/STM32F30x_StdPeriph_Driver/src/stm32f30x_usart.c **** /**
 926:libs/STM32F30x_StdPeriph_Driver/src/stm32f30x_usart.c ****   * @brief  Returns the most recent received data by the USARTx peripheral.
 927:libs/STM32F30x_StdPeriph_Driver/src/stm32f30x_usart.c ****   * @param  USARTx: Select the USART peripheral. This parameter can be one of the 
 928:libs/STM32F30x_StdPeriph_Driver/src/stm32f30x_usart.c ****   *         following values: USART1 or USART2 or USART3 or UART4 or UART5.
 929:libs/STM32F30x_StdPeriph_Driver/src/stm32f30x_usart.c ****   * @retval The received data.
 930:libs/STM32F30x_StdPeriph_Driver/src/stm32f30x_usart.c ****   */
 931:libs/STM32F30x_StdPeriph_Driver/src/stm32f30x_usart.c **** uint16_t USART_ReceiveData(USART_TypeDef* USARTx)
 932:libs/STM32F30x_StdPeriph_Driver/src/stm32f30x_usart.c **** {
 2708              		.loc 1 932 0
 2709              		.cfi_startproc
 2710              		@ args = 0, pretend = 0, frame = 8
 2711              		@ frame_needed = 1, uses_anonymous_args = 0
 2712 0000 80B5     		push	{r7, lr}
 2713              	.LCFI63:
 2714              		.cfi_def_cfa_offset 8
 2715              		.cfi_offset 7, -8
 2716              		.cfi_offset 14, -4
 2717 0002 82B0     		sub	sp, sp, #8
 2718              	.LCFI64:
 2719              		.cfi_def_cfa_offset 16
 2720 0004 00AF     		add	r7, sp, #0
 2721              	.LCFI65:
 2722              		.cfi_def_cfa_register 7
 2723 0006 7860     		str	r0, [r7, #4]
 933:libs/STM32F30x_StdPeriph_Driver/src/stm32f30x_usart.c ****   /* Check the parameters */
 934:libs/STM32F30x_StdPeriph_Driver/src/stm32f30x_usart.c ****   assert_param(IS_USART_ALL_PERIPH(USARTx));
 2724              		.loc 1 934 0
 2725 0008 7A68     		ldr	r2, [r7, #4]
 2726 000a 144B     		ldr	r3, .L229
 2727 000c 9A42     		cmp	r2, r3
 2728 000e 0FD0     		beq	.L225
 2729              		.loc 1 934 0 is_stmt 0 discriminator 2
 2730 0010 7A68     		ldr	r2, [r7, #4]
 2731 0012 134B     		ldr	r3, .L229+4
 2732 0014 9A42     		cmp	r2, r3
 2733 0016 0BD0     		beq	.L225
 2734              		.loc 1 934 0 discriminator 1
 2735 0018 7A68     		ldr	r2, [r7, #4]
 2736 001a 124B     		ldr	r3, .L229+8
 2737 001c 9A42     		cmp	r2, r3
 2738 001e 07D0     		beq	.L225
 2739              		.loc 1 934 0 discriminator 2
 2740 0020 7A68     		ldr	r2, [r7, #4]
 2741 0022 114B     		ldr	r3, .L229+12
 2742 0024 9A42     		cmp	r2, r3
 2743 0026 03D0     		beq	.L225
 2744              		.loc 1 934 0 discriminator 3
 2745 0028 7A68     		ldr	r2, [r7, #4]
 2746 002a 104B     		ldr	r3, .L229+16
 2747 002c 9A42     		cmp	r2, r3
 2748 002e 02D1     		bne	.L226
 2749              	.L225:
 2750              		.loc 1 934 0 discriminator 1
 2751 0030 4FF00103 		mov	r3, #1
 2752 0034 01E0     		b	.L227
 2753              	.L226:
 2754              		.loc 1 934 0 discriminator 3
 2755 0036 4FF00003 		mov	r3, #0
 2756              	.L227:
 2757              		.loc 1 934 0 discriminator 4
 2758 003a 1846     		mov	r0, r3
 2759 003c FFF7FEFF 		bl	assert_param
 935:libs/STM32F30x_StdPeriph_Driver/src/stm32f30x_usart.c **** 
 936:libs/STM32F30x_StdPeriph_Driver/src/stm32f30x_usart.c ****   /* Receive Data */
 937:libs/STM32F30x_StdPeriph_Driver/src/stm32f30x_usart.c ****   return (uint16_t)(USARTx->RDR & (uint16_t)0x01FF);
 2760              		.loc 1 937 0 is_stmt 1 discriminator 4
 2761 0040 7B68     		ldr	r3, [r7, #4]
 2762 0042 9B8C     		ldrh	r3, [r3, #36]	@ movhi
 2763 0044 9BB2     		uxth	r3, r3
 2764 0046 4FEAC353 		lsl	r3, r3, #23
 2765 004a 4FEAD353 		lsr	r3, r3, #23
 2766 004e 9BB2     		uxth	r3, r3
 938:libs/STM32F30x_StdPeriph_Driver/src/stm32f30x_usart.c **** }
 2767              		.loc 1 938 0 discriminator 4
 2768 0050 1846     		mov	r0, r3
 2769 0052 07F10807 		add	r7, r7, #8
 2770 0056 BD46     		mov	sp, r7
 2771 0058 80BD     		pop	{r7, pc}
 2772              	.L230:
 2773 005a 00BF     		.align	2
 2774              	.L229:
 2775 005c 00380140 		.word	1073821696
 2776 0060 00440040 		.word	1073759232
 2777 0064 00480040 		.word	1073760256
 2778 0068 004C0040 		.word	1073761280
 2779 006c 00500040 		.word	1073762304
 2780              		.cfi_endproc
 2781              	.LFE131:
 2783              		.section	.text.USART_SetAddress,"ax",%progbits
 2784              		.align	2
 2785              		.global	USART_SetAddress
 2786              		.thumb
 2787              		.thumb_func
 2789              	USART_SetAddress:
 2790              	.LFB132:
 939:libs/STM32F30x_StdPeriph_Driver/src/stm32f30x_usart.c **** 
 940:libs/STM32F30x_StdPeriph_Driver/src/stm32f30x_usart.c **** /**
 941:libs/STM32F30x_StdPeriph_Driver/src/stm32f30x_usart.c ****   * @}
 942:libs/STM32F30x_StdPeriph_Driver/src/stm32f30x_usart.c ****   */
 943:libs/STM32F30x_StdPeriph_Driver/src/stm32f30x_usart.c **** 
 944:libs/STM32F30x_StdPeriph_Driver/src/stm32f30x_usart.c **** /** @defgroup USART_Group5 MultiProcessor Communication functions
 945:libs/STM32F30x_StdPeriph_Driver/src/stm32f30x_usart.c ****  *  @brief   Multi-Processor Communication functions 
 946:libs/STM32F30x_StdPeriph_Driver/src/stm32f30x_usart.c ****  *
 947:libs/STM32F30x_StdPeriph_Driver/src/stm32f30x_usart.c **** @verbatim   
 948:libs/STM32F30x_StdPeriph_Driver/src/stm32f30x_usart.c ****  ===============================================================================
 949:libs/STM32F30x_StdPeriph_Driver/src/stm32f30x_usart.c ****              ##### Multi-Processor Communication functions #####
 950:libs/STM32F30x_StdPeriph_Driver/src/stm32f30x_usart.c ****  ===============================================================================
 951:libs/STM32F30x_StdPeriph_Driver/src/stm32f30x_usart.c ****     [..] This subsection provides a set of functions allowing to manage the USART
 952:libs/STM32F30x_StdPeriph_Driver/src/stm32f30x_usart.c ****          multiprocessor communication.
 953:libs/STM32F30x_StdPeriph_Driver/src/stm32f30x_usart.c ****     [..] For instance one of the USARTs can be the master, its TX output is
 954:libs/STM32F30x_StdPeriph_Driver/src/stm32f30x_usart.c ****          connected to the RX input of the other USART. The others are slaves,
 955:libs/STM32F30x_StdPeriph_Driver/src/stm32f30x_usart.c ****          their respective TX outputs are logically ANDed together and connected 
 956:libs/STM32F30x_StdPeriph_Driver/src/stm32f30x_usart.c ****          to the RX input of the master. USART multiprocessor communication is 
 957:libs/STM32F30x_StdPeriph_Driver/src/stm32f30x_usart.c ****          possible through the following procedure:
 958:libs/STM32F30x_StdPeriph_Driver/src/stm32f30x_usart.c ****          (#) Program the Baud rate, Word length = 9 bits, Stop bits, Parity, 
 959:libs/STM32F30x_StdPeriph_Driver/src/stm32f30x_usart.c ****              Mode transmitter or Mode receiver and hardware flow control values 
 960:libs/STM32F30x_StdPeriph_Driver/src/stm32f30x_usart.c ****              using the USART_Init() function.
 961:libs/STM32F30x_StdPeriph_Driver/src/stm32f30x_usart.c ****          (#) Configures the USART address using the USART_SetAddress() function.
 962:libs/STM32F30x_StdPeriph_Driver/src/stm32f30x_usart.c ****          (#) Configures the wake up methode (USART_WakeUp_IdleLine or 
 963:libs/STM32F30x_StdPeriph_Driver/src/stm32f30x_usart.c ****              USART_WakeUp_AddressMark) using USART_WakeUpConfig() function only 
 964:libs/STM32F30x_StdPeriph_Driver/src/stm32f30x_usart.c ****              for the slaves.
 965:libs/STM32F30x_StdPeriph_Driver/src/stm32f30x_usart.c ****          (#) Enable the USART using the USART_Cmd() function.
 966:libs/STM32F30x_StdPeriph_Driver/src/stm32f30x_usart.c ****          (#) Enter the USART slaves in mute mode using USART_ReceiverWakeUpCmd() 
 967:libs/STM32F30x_StdPeriph_Driver/src/stm32f30x_usart.c ****              function.
 968:libs/STM32F30x_StdPeriph_Driver/src/stm32f30x_usart.c ****     [..] The USART Slave exit from mute mode when receive the wake up condition.
 969:libs/STM32F30x_StdPeriph_Driver/src/stm32f30x_usart.c **** 
 970:libs/STM32F30x_StdPeriph_Driver/src/stm32f30x_usart.c **** @endverbatim
 971:libs/STM32F30x_StdPeriph_Driver/src/stm32f30x_usart.c ****   * @{
 972:libs/STM32F30x_StdPeriph_Driver/src/stm32f30x_usart.c ****   */
 973:libs/STM32F30x_StdPeriph_Driver/src/stm32f30x_usart.c **** 
 974:libs/STM32F30x_StdPeriph_Driver/src/stm32f30x_usart.c **** /**
 975:libs/STM32F30x_StdPeriph_Driver/src/stm32f30x_usart.c ****   * @brief  Sets the address of the USART node.
 976:libs/STM32F30x_StdPeriph_Driver/src/stm32f30x_usart.c ****   * @param  USARTx: Select the USART peripheral. This parameter can be one of the 
 977:libs/STM32F30x_StdPeriph_Driver/src/stm32f30x_usart.c ****   *         following values: USART1 or USART2 or USART3 or UART4 or UART5.
 978:libs/STM32F30x_StdPeriph_Driver/src/stm32f30x_usart.c ****   * @param  USART_Address: Indicates the address of the USART node.
 979:libs/STM32F30x_StdPeriph_Driver/src/stm32f30x_usart.c ****   * @retval None
 980:libs/STM32F30x_StdPeriph_Driver/src/stm32f30x_usart.c ****   */
 981:libs/STM32F30x_StdPeriph_Driver/src/stm32f30x_usart.c **** void USART_SetAddress(USART_TypeDef* USARTx, uint8_t USART_Address)
 982:libs/STM32F30x_StdPeriph_Driver/src/stm32f30x_usart.c **** {
 2791              		.loc 1 982 0
 2792              		.cfi_startproc
 2793              		@ args = 0, pretend = 0, frame = 8
 2794              		@ frame_needed = 1, uses_anonymous_args = 0
 2795 0000 80B5     		push	{r7, lr}
 2796              	.LCFI66:
 2797              		.cfi_def_cfa_offset 8
 2798              		.cfi_offset 7, -8
 2799              		.cfi_offset 14, -4
 2800 0002 82B0     		sub	sp, sp, #8
 2801              	.LCFI67:
 2802              		.cfi_def_cfa_offset 16
 2803 0004 00AF     		add	r7, sp, #0
 2804              	.LCFI68:
 2805              		.cfi_def_cfa_register 7
 2806 0006 7860     		str	r0, [r7, #4]
 2807 0008 0B46     		mov	r3, r1
 2808 000a FB70     		strb	r3, [r7, #3]
 983:libs/STM32F30x_StdPeriph_Driver/src/stm32f30x_usart.c ****   /* Check the parameters */
 984:libs/STM32F30x_StdPeriph_Driver/src/stm32f30x_usart.c ****   assert_param(IS_USART_ALL_PERIPH(USARTx));
 2809              		.loc 1 984 0
 2810 000c 7A68     		ldr	r2, [r7, #4]
 2811 000e 164B     		ldr	r3, .L235
 2812 0010 9A42     		cmp	r2, r3
 2813 0012 0FD0     		beq	.L232
 2814              		.loc 1 984 0 is_stmt 0 discriminator 2
 2815 0014 7A68     		ldr	r2, [r7, #4]
 2816 0016 154B     		ldr	r3, .L235+4
 2817 0018 9A42     		cmp	r2, r3
 2818 001a 0BD0     		beq	.L232
 2819              		.loc 1 984 0 discriminator 1
 2820 001c 7A68     		ldr	r2, [r7, #4]
 2821 001e 144B     		ldr	r3, .L235+8
 2822 0020 9A42     		cmp	r2, r3
 2823 0022 07D0     		beq	.L232
 2824              		.loc 1 984 0 discriminator 2
 2825 0024 7A68     		ldr	r2, [r7, #4]
 2826 0026 134B     		ldr	r3, .L235+12
 2827 0028 9A42     		cmp	r2, r3
 2828 002a 03D0     		beq	.L232
 2829              		.loc 1 984 0 discriminator 3
 2830 002c 7A68     		ldr	r2, [r7, #4]
 2831 002e 124B     		ldr	r3, .L235+16
 2832 0030 9A42     		cmp	r2, r3
 2833 0032 02D1     		bne	.L233
 2834              	.L232:
 2835              		.loc 1 984 0 discriminator 1
 2836 0034 4FF00103 		mov	r3, #1
 2837 0038 01E0     		b	.L234
 2838              	.L233:
 2839              		.loc 1 984 0 discriminator 3
 2840 003a 4FF00003 		mov	r3, #0
 2841              	.L234:
 2842              		.loc 1 984 0 discriminator 4
 2843 003e 1846     		mov	r0, r3
 2844 0040 FFF7FEFF 		bl	assert_param
 985:libs/STM32F30x_StdPeriph_Driver/src/stm32f30x_usart.c **** 
 986:libs/STM32F30x_StdPeriph_Driver/src/stm32f30x_usart.c ****   /* Clear the USART address */
 987:libs/STM32F30x_StdPeriph_Driver/src/stm32f30x_usart.c ****   USARTx->CR2 &= (uint32_t)~((uint32_t)USART_CR2_ADD);
 2845              		.loc 1 987 0 is_stmt 1 discriminator 4
 2846 0044 7B68     		ldr	r3, [r7, #4]
 2847 0046 5B68     		ldr	r3, [r3, #4]
 2848 0048 23F07F42 		bic	r2, r3, #-16777216
 2849 004c 7B68     		ldr	r3, [r7, #4]
 2850 004e 5A60     		str	r2, [r3, #4]
 988:libs/STM32F30x_StdPeriph_Driver/src/stm32f30x_usart.c ****   /* Set the USART address node */
 989:libs/STM32F30x_StdPeriph_Driver/src/stm32f30x_usart.c ****   USARTx->CR2 |=((uint32_t)USART_Address << (uint32_t)0x18);
 2851              		.loc 1 989 0 discriminator 4
 2852 0050 7B68     		ldr	r3, [r7, #4]
 2853 0052 5A68     		ldr	r2, [r3, #4]
 2854 0054 FB78     		ldrb	r3, [r7, #3]	@ zero_extendqisi2
 2855 0056 4FEA0363 		lsl	r3, r3, #24
 2856 005a 1A43     		orrs	r2, r2, r3
 2857 005c 7B68     		ldr	r3, [r7, #4]
 2858 005e 5A60     		str	r2, [r3, #4]
 990:libs/STM32F30x_StdPeriph_Driver/src/stm32f30x_usart.c **** }
 2859              		.loc 1 990 0 discriminator 4
 2860 0060 07F10807 		add	r7, r7, #8
 2861 0064 BD46     		mov	sp, r7
 2862 0066 80BD     		pop	{r7, pc}
 2863              	.L236:
 2864              		.align	2
 2865              	.L235:
 2866 0068 00380140 		.word	1073821696
 2867 006c 00440040 		.word	1073759232
 2868 0070 00480040 		.word	1073760256
 2869 0074 004C0040 		.word	1073761280
 2870 0078 00500040 		.word	1073762304
 2871              		.cfi_endproc
 2872              	.LFE132:
 2874              		.section	.text.USART_MuteModeCmd,"ax",%progbits
 2875              		.align	2
 2876              		.global	USART_MuteModeCmd
 2877              		.thumb
 2878              		.thumb_func
 2880              	USART_MuteModeCmd:
 2881              	.LFB133:
 991:libs/STM32F30x_StdPeriph_Driver/src/stm32f30x_usart.c **** 
 992:libs/STM32F30x_StdPeriph_Driver/src/stm32f30x_usart.c **** /**
 993:libs/STM32F30x_StdPeriph_Driver/src/stm32f30x_usart.c ****   * @brief  Enables or disables the USART's mute mode.
 994:libs/STM32F30x_StdPeriph_Driver/src/stm32f30x_usart.c ****   * @param  USARTx: Select the USART peripheral. This parameter can be one of the 
 995:libs/STM32F30x_StdPeriph_Driver/src/stm32f30x_usart.c ****   *         following values: USART1 or USART2 or USART3 or UART4 or UART5.
 996:libs/STM32F30x_StdPeriph_Driver/src/stm32f30x_usart.c ****   * @param  NewState: new state of the USART mute mode.
 997:libs/STM32F30x_StdPeriph_Driver/src/stm32f30x_usart.c ****   *         This parameter can be: ENABLE or DISABLE.
 998:libs/STM32F30x_StdPeriph_Driver/src/stm32f30x_usart.c ****   * @retval None
 999:libs/STM32F30x_StdPeriph_Driver/src/stm32f30x_usart.c ****   */
1000:libs/STM32F30x_StdPeriph_Driver/src/stm32f30x_usart.c **** void USART_MuteModeCmd(USART_TypeDef* USARTx, FunctionalState NewState)
1001:libs/STM32F30x_StdPeriph_Driver/src/stm32f30x_usart.c **** {
 2882              		.loc 1 1001 0
 2883              		.cfi_startproc
 2884              		@ args = 0, pretend = 0, frame = 8
 2885              		@ frame_needed = 1, uses_anonymous_args = 0
 2886 0000 80B5     		push	{r7, lr}
 2887              	.LCFI69:
 2888              		.cfi_def_cfa_offset 8
 2889              		.cfi_offset 7, -8
 2890              		.cfi_offset 14, -4
 2891 0002 82B0     		sub	sp, sp, #8
 2892              	.LCFI70:
 2893              		.cfi_def_cfa_offset 16
 2894 0004 00AF     		add	r7, sp, #0
 2895              	.LCFI71:
 2896              		.cfi_def_cfa_register 7
 2897 0006 7860     		str	r0, [r7, #4]
 2898 0008 0B46     		mov	r3, r1
 2899 000a FB70     		strb	r3, [r7, #3]
1002:libs/STM32F30x_StdPeriph_Driver/src/stm32f30x_usart.c ****   /* Check the parameters */
1003:libs/STM32F30x_StdPeriph_Driver/src/stm32f30x_usart.c ****   assert_param(IS_USART_ALL_PERIPH(USARTx));
 2900              		.loc 1 1003 0
 2901 000c 7A68     		ldr	r2, [r7, #4]
 2902 000e 1E4B     		ldr	r3, .L246
 2903 0010 9A42     		cmp	r2, r3
 2904 0012 0FD0     		beq	.L238
 2905              		.loc 1 1003 0 is_stmt 0 discriminator 2
 2906 0014 7A68     		ldr	r2, [r7, #4]
 2907 0016 1D4B     		ldr	r3, .L246+4
 2908 0018 9A42     		cmp	r2, r3
 2909 001a 0BD0     		beq	.L238
 2910              		.loc 1 1003 0 discriminator 1
 2911 001c 7A68     		ldr	r2, [r7, #4]
 2912 001e 1C4B     		ldr	r3, .L246+8
 2913 0020 9A42     		cmp	r2, r3
 2914 0022 07D0     		beq	.L238
 2915              		.loc 1 1003 0 discriminator 2
 2916 0024 7A68     		ldr	r2, [r7, #4]
 2917 0026 1B4B     		ldr	r3, .L246+12
 2918 0028 9A42     		cmp	r2, r3
 2919 002a 03D0     		beq	.L238
 2920              		.loc 1 1003 0 discriminator 3
 2921 002c 7A68     		ldr	r2, [r7, #4]
 2922 002e 1A4B     		ldr	r3, .L246+16
 2923 0030 9A42     		cmp	r2, r3
 2924 0032 02D1     		bne	.L239
 2925              	.L238:
 2926              		.loc 1 1003 0 discriminator 1
 2927 0034 4FF00103 		mov	r3, #1
 2928 0038 01E0     		b	.L240
 2929              	.L239:
 2930              		.loc 1 1003 0 discriminator 3
 2931 003a 4FF00003 		mov	r3, #0
 2932              	.L240:
 2933              		.loc 1 1003 0 discriminator 4
 2934 003e 1846     		mov	r0, r3
 2935 0040 FFF7FEFF 		bl	assert_param
1004:libs/STM32F30x_StdPeriph_Driver/src/stm32f30x_usart.c ****   assert_param(IS_FUNCTIONAL_STATE(NewState)); 
 2936              		.loc 1 1004 0 is_stmt 1 discriminator 4
 2937 0044 FB78     		ldrb	r3, [r7, #3]	@ zero_extendqisi2
 2938 0046 002B     		cmp	r3, #0
 2939 0048 02D0     		beq	.L241
 2940              		.loc 1 1004 0 is_stmt 0 discriminator 2
 2941 004a FB78     		ldrb	r3, [r7, #3]	@ zero_extendqisi2
 2942 004c 012B     		cmp	r3, #1
 2943 004e 02D1     		bne	.L242
 2944              	.L241:
 2945              		.loc 1 1004 0 discriminator 1
 2946 0050 4FF00103 		mov	r3, #1
 2947 0054 01E0     		b	.L243
 2948              	.L242:
 2949              		.loc 1 1004 0 discriminator 3
 2950 0056 4FF00003 		mov	r3, #0
 2951              	.L243:
 2952              		.loc 1 1004 0 discriminator 4
 2953 005a 1846     		mov	r0, r3
 2954 005c FFF7FEFF 		bl	assert_param
1005:libs/STM32F30x_StdPeriph_Driver/src/stm32f30x_usart.c **** 
1006:libs/STM32F30x_StdPeriph_Driver/src/stm32f30x_usart.c ****   if (NewState != DISABLE)
 2955              		.loc 1 1006 0 is_stmt 1 discriminator 4
 2956 0060 FB78     		ldrb	r3, [r7, #3]	@ zero_extendqisi2
 2957 0062 002B     		cmp	r3, #0
 2958 0064 06D0     		beq	.L244
1007:libs/STM32F30x_StdPeriph_Driver/src/stm32f30x_usart.c ****   {
1008:libs/STM32F30x_StdPeriph_Driver/src/stm32f30x_usart.c ****     /* Enable the USART mute mode by setting the MME bit in the CR1 register */
1009:libs/STM32F30x_StdPeriph_Driver/src/stm32f30x_usart.c ****     USARTx->CR1 |= USART_CR1_MME;
 2959              		.loc 1 1009 0
 2960 0066 7B68     		ldr	r3, [r7, #4]
 2961 0068 1B68     		ldr	r3, [r3, #0]
 2962 006a 43F40052 		orr	r2, r3, #8192
 2963 006e 7B68     		ldr	r3, [r7, #4]
 2964 0070 1A60     		str	r2, [r3, #0]
 2965 0072 05E0     		b	.L237
 2966              	.L244:
1010:libs/STM32F30x_StdPeriph_Driver/src/stm32f30x_usart.c ****   }
1011:libs/STM32F30x_StdPeriph_Driver/src/stm32f30x_usart.c ****   else
1012:libs/STM32F30x_StdPeriph_Driver/src/stm32f30x_usart.c ****   {
1013:libs/STM32F30x_StdPeriph_Driver/src/stm32f30x_usart.c ****     /* Disable the USART mute mode by clearing the MME bit in the CR1 register */
1014:libs/STM32F30x_StdPeriph_Driver/src/stm32f30x_usart.c ****     USARTx->CR1 &= (uint32_t)~((uint32_t)USART_CR1_MME);
 2967              		.loc 1 1014 0
 2968 0074 7B68     		ldr	r3, [r7, #4]
 2969 0076 1B68     		ldr	r3, [r3, #0]
 2970 0078 23F40052 		bic	r2, r3, #8192
 2971 007c 7B68     		ldr	r3, [r7, #4]
 2972 007e 1A60     		str	r2, [r3, #0]
 2973              	.L237:
1015:libs/STM32F30x_StdPeriph_Driver/src/stm32f30x_usart.c ****   }
1016:libs/STM32F30x_StdPeriph_Driver/src/stm32f30x_usart.c **** }
 2974              		.loc 1 1016 0
 2975 0080 07F10807 		add	r7, r7, #8
 2976 0084 BD46     		mov	sp, r7
 2977 0086 80BD     		pop	{r7, pc}
 2978              	.L247:
 2979              		.align	2
 2980              	.L246:
 2981 0088 00380140 		.word	1073821696
 2982 008c 00440040 		.word	1073759232
 2983 0090 00480040 		.word	1073760256
 2984 0094 004C0040 		.word	1073761280
 2985 0098 00500040 		.word	1073762304
 2986              		.cfi_endproc
 2987              	.LFE133:
 2989              		.section	.text.USART_MuteModeWakeUpConfig,"ax",%progbits
 2990              		.align	2
 2991              		.global	USART_MuteModeWakeUpConfig
 2992              		.thumb
 2993              		.thumb_func
 2995              	USART_MuteModeWakeUpConfig:
 2996              	.LFB134:
1017:libs/STM32F30x_StdPeriph_Driver/src/stm32f30x_usart.c **** 
1018:libs/STM32F30x_StdPeriph_Driver/src/stm32f30x_usart.c **** /**
1019:libs/STM32F30x_StdPeriph_Driver/src/stm32f30x_usart.c ****   * @brief  Selects the USART WakeUp method from mute mode.
1020:libs/STM32F30x_StdPeriph_Driver/src/stm32f30x_usart.c ****   * @param  USARTx: Select the USART peripheral. This parameter can be one of the 
1021:libs/STM32F30x_StdPeriph_Driver/src/stm32f30x_usart.c ****   *         following values: USART1 or USART2 or USART3 or UART4 or UART5.
1022:libs/STM32F30x_StdPeriph_Driver/src/stm32f30x_usart.c ****   * @param  USART_WakeUp: specifies the USART wakeup method.
1023:libs/STM32F30x_StdPeriph_Driver/src/stm32f30x_usart.c ****   *         This parameter can be one of the following values:
1024:libs/STM32F30x_StdPeriph_Driver/src/stm32f30x_usart.c ****   *         @arg USART_WakeUp_IdleLine: WakeUp by an idle line detection
1025:libs/STM32F30x_StdPeriph_Driver/src/stm32f30x_usart.c ****   *         @arg USART_WakeUp_AddressMark: WakeUp by an address mark
1026:libs/STM32F30x_StdPeriph_Driver/src/stm32f30x_usart.c ****   * @retval None
1027:libs/STM32F30x_StdPeriph_Driver/src/stm32f30x_usart.c ****   */
1028:libs/STM32F30x_StdPeriph_Driver/src/stm32f30x_usart.c **** void USART_MuteModeWakeUpConfig(USART_TypeDef* USARTx, uint32_t USART_WakeUp)
1029:libs/STM32F30x_StdPeriph_Driver/src/stm32f30x_usart.c **** {
 2997              		.loc 1 1029 0
 2998              		.cfi_startproc
 2999              		@ args = 0, pretend = 0, frame = 8
 3000              		@ frame_needed = 1, uses_anonymous_args = 0
 3001 0000 80B5     		push	{r7, lr}
 3002              	.LCFI72:
 3003              		.cfi_def_cfa_offset 8
 3004              		.cfi_offset 7, -8
 3005              		.cfi_offset 14, -4
 3006 0002 82B0     		sub	sp, sp, #8
 3007              	.LCFI73:
 3008              		.cfi_def_cfa_offset 16
 3009 0004 00AF     		add	r7, sp, #0
 3010              	.LCFI74:
 3011              		.cfi_def_cfa_register 7
 3012 0006 7860     		str	r0, [r7, #4]
 3013 0008 3960     		str	r1, [r7, #0]
1030:libs/STM32F30x_StdPeriph_Driver/src/stm32f30x_usart.c ****   /* Check the parameters */
1031:libs/STM32F30x_StdPeriph_Driver/src/stm32f30x_usart.c ****   assert_param(IS_USART_ALL_PERIPH(USARTx));
 3014              		.loc 1 1031 0
 3015 000a 7A68     		ldr	r2, [r7, #4]
 3016 000c 1C4B     		ldr	r3, .L255
 3017 000e 9A42     		cmp	r2, r3
 3018 0010 0FD0     		beq	.L249
 3019              		.loc 1 1031 0 is_stmt 0 discriminator 2
 3020 0012 7A68     		ldr	r2, [r7, #4]
 3021 0014 1B4B     		ldr	r3, .L255+4
 3022 0016 9A42     		cmp	r2, r3
 3023 0018 0BD0     		beq	.L249
 3024              		.loc 1 1031 0 discriminator 1
 3025 001a 7A68     		ldr	r2, [r7, #4]
 3026 001c 1A4B     		ldr	r3, .L255+8
 3027 001e 9A42     		cmp	r2, r3
 3028 0020 07D0     		beq	.L249
 3029              		.loc 1 1031 0 discriminator 2
 3030 0022 7A68     		ldr	r2, [r7, #4]
 3031 0024 194B     		ldr	r3, .L255+12
 3032 0026 9A42     		cmp	r2, r3
 3033 0028 03D0     		beq	.L249
 3034              		.loc 1 1031 0 discriminator 3
 3035 002a 7A68     		ldr	r2, [r7, #4]
 3036 002c 184B     		ldr	r3, .L255+16
 3037 002e 9A42     		cmp	r2, r3
 3038 0030 02D1     		bne	.L250
 3039              	.L249:
 3040              		.loc 1 1031 0 discriminator 1
 3041 0032 4FF00103 		mov	r3, #1
 3042 0036 01E0     		b	.L251
 3043              	.L250:
 3044              		.loc 1 1031 0 discriminator 3
 3045 0038 4FF00003 		mov	r3, #0
 3046              	.L251:
 3047              		.loc 1 1031 0 discriminator 4
 3048 003c 1846     		mov	r0, r3
 3049 003e FFF7FEFF 		bl	assert_param
1032:libs/STM32F30x_StdPeriph_Driver/src/stm32f30x_usart.c ****   assert_param(IS_USART_MUTEMODE_WAKEUP(USART_WakeUp));
 3050              		.loc 1 1032 0 is_stmt 1 discriminator 4
 3051 0042 3B68     		ldr	r3, [r7, #0]
 3052 0044 002B     		cmp	r3, #0
 3053 0046 03D0     		beq	.L252
 3054              		.loc 1 1032 0 is_stmt 0 discriminator 2
 3055 0048 3B68     		ldr	r3, [r7, #0]
 3056 004a B3F5006F 		cmp	r3, #2048
 3057 004e 02D1     		bne	.L253
 3058              	.L252:
 3059              		.loc 1 1032 0 discriminator 1
 3060 0050 4FF00103 		mov	r3, #1
 3061 0054 01E0     		b	.L254
 3062              	.L253:
 3063              		.loc 1 1032 0 discriminator 3
 3064 0056 4FF00003 		mov	r3, #0
 3065              	.L254:
 3066              		.loc 1 1032 0 discriminator 4
 3067 005a 1846     		mov	r0, r3
 3068 005c FFF7FEFF 		bl	assert_param
1033:libs/STM32F30x_StdPeriph_Driver/src/stm32f30x_usart.c **** 
1034:libs/STM32F30x_StdPeriph_Driver/src/stm32f30x_usart.c ****   USARTx->CR1 &= (uint32_t)~((uint32_t)USART_CR1_WAKE);
 3069              		.loc 1 1034 0 is_stmt 1 discriminator 4
 3070 0060 7B68     		ldr	r3, [r7, #4]
 3071 0062 1B68     		ldr	r3, [r3, #0]
 3072 0064 23F40062 		bic	r2, r3, #2048
 3073 0068 7B68     		ldr	r3, [r7, #4]
 3074 006a 1A60     		str	r2, [r3, #0]
1035:libs/STM32F30x_StdPeriph_Driver/src/stm32f30x_usart.c ****   USARTx->CR1 |= USART_WakeUp;
 3075              		.loc 1 1035 0 discriminator 4
 3076 006c 7B68     		ldr	r3, [r7, #4]
 3077 006e 1A68     		ldr	r2, [r3, #0]
 3078 0070 3B68     		ldr	r3, [r7, #0]
 3079 0072 1A43     		orrs	r2, r2, r3
 3080 0074 7B68     		ldr	r3, [r7, #4]
 3081 0076 1A60     		str	r2, [r3, #0]
1036:libs/STM32F30x_StdPeriph_Driver/src/stm32f30x_usart.c **** }
 3082              		.loc 1 1036 0 discriminator 4
 3083 0078 07F10807 		add	r7, r7, #8
 3084 007c BD46     		mov	sp, r7
 3085 007e 80BD     		pop	{r7, pc}
 3086              	.L256:
 3087              		.align	2
 3088              	.L255:
 3089 0080 00380140 		.word	1073821696
 3090 0084 00440040 		.word	1073759232
 3091 0088 00480040 		.word	1073760256
 3092 008c 004C0040 		.word	1073761280
 3093 0090 00500040 		.word	1073762304
 3094              		.cfi_endproc
 3095              	.LFE134:
 3097              		.section	.text.USART_AddressDetectionConfig,"ax",%progbits
 3098              		.align	2
 3099              		.global	USART_AddressDetectionConfig
 3100              		.thumb
 3101              		.thumb_func
 3103              	USART_AddressDetectionConfig:
 3104              	.LFB135:
1037:libs/STM32F30x_StdPeriph_Driver/src/stm32f30x_usart.c **** 
1038:libs/STM32F30x_StdPeriph_Driver/src/stm32f30x_usart.c **** /**
1039:libs/STM32F30x_StdPeriph_Driver/src/stm32f30x_usart.c ****   * @brief  Configure the the USART Address detection length.
1040:libs/STM32F30x_StdPeriph_Driver/src/stm32f30x_usart.c ****   * @param  USARTx: Select the USART peripheral. This parameter can be one of the 
1041:libs/STM32F30x_StdPeriph_Driver/src/stm32f30x_usart.c ****   *         following values: USART1 or USART2 or USART3 or UART4 or UART5.
1042:libs/STM32F30x_StdPeriph_Driver/src/stm32f30x_usart.c ****   * @param  USART_AddressLength: specifies the USART address length detection.
1043:libs/STM32F30x_StdPeriph_Driver/src/stm32f30x_usart.c ****   *         This parameter can be one of the following values:
1044:libs/STM32F30x_StdPeriph_Driver/src/stm32f30x_usart.c ****   *         @arg USART_AddressLength_4b: 4-bit address length detection 
1045:libs/STM32F30x_StdPeriph_Driver/src/stm32f30x_usart.c ****   *         @arg USART_AddressLength_7b: 7-bit address length detection 
1046:libs/STM32F30x_StdPeriph_Driver/src/stm32f30x_usart.c ****   * @retval None
1047:libs/STM32F30x_StdPeriph_Driver/src/stm32f30x_usart.c ****   */
1048:libs/STM32F30x_StdPeriph_Driver/src/stm32f30x_usart.c **** void USART_AddressDetectionConfig(USART_TypeDef* USARTx, uint32_t USART_AddressLength)
1049:libs/STM32F30x_StdPeriph_Driver/src/stm32f30x_usart.c **** {
 3105              		.loc 1 1049 0
 3106              		.cfi_startproc
 3107              		@ args = 0, pretend = 0, frame = 8
 3108              		@ frame_needed = 1, uses_anonymous_args = 0
 3109 0000 80B5     		push	{r7, lr}
 3110              	.LCFI75:
 3111              		.cfi_def_cfa_offset 8
 3112              		.cfi_offset 7, -8
 3113              		.cfi_offset 14, -4
 3114 0002 82B0     		sub	sp, sp, #8
 3115              	.LCFI76:
 3116              		.cfi_def_cfa_offset 16
 3117 0004 00AF     		add	r7, sp, #0
 3118              	.LCFI77:
 3119              		.cfi_def_cfa_register 7
 3120 0006 7860     		str	r0, [r7, #4]
 3121 0008 3960     		str	r1, [r7, #0]
1050:libs/STM32F30x_StdPeriph_Driver/src/stm32f30x_usart.c ****   /* Check the parameters */
1051:libs/STM32F30x_StdPeriph_Driver/src/stm32f30x_usart.c ****   assert_param(IS_USART_ALL_PERIPH(USARTx));
 3122              		.loc 1 1051 0
 3123 000a 7A68     		ldr	r2, [r7, #4]
 3124 000c 1C4B     		ldr	r3, .L264
 3125 000e 9A42     		cmp	r2, r3
 3126 0010 0FD0     		beq	.L258
 3127              		.loc 1 1051 0 is_stmt 0 discriminator 2
 3128 0012 7A68     		ldr	r2, [r7, #4]
 3129 0014 1B4B     		ldr	r3, .L264+4
 3130 0016 9A42     		cmp	r2, r3
 3131 0018 0BD0     		beq	.L258
 3132              		.loc 1 1051 0 discriminator 1
 3133 001a 7A68     		ldr	r2, [r7, #4]
 3134 001c 1A4B     		ldr	r3, .L264+8
 3135 001e 9A42     		cmp	r2, r3
 3136 0020 07D0     		beq	.L258
 3137              		.loc 1 1051 0 discriminator 2
 3138 0022 7A68     		ldr	r2, [r7, #4]
 3139 0024 194B     		ldr	r3, .L264+12
 3140 0026 9A42     		cmp	r2, r3
 3141 0028 03D0     		beq	.L258
 3142              		.loc 1 1051 0 discriminator 3
 3143 002a 7A68     		ldr	r2, [r7, #4]
 3144 002c 184B     		ldr	r3, .L264+16
 3145 002e 9A42     		cmp	r2, r3
 3146 0030 02D1     		bne	.L259
 3147              	.L258:
 3148              		.loc 1 1051 0 discriminator 1
 3149 0032 4FF00103 		mov	r3, #1
 3150 0036 01E0     		b	.L260
 3151              	.L259:
 3152              		.loc 1 1051 0 discriminator 3
 3153 0038 4FF00003 		mov	r3, #0
 3154              	.L260:
 3155              		.loc 1 1051 0 discriminator 4
 3156 003c 1846     		mov	r0, r3
 3157 003e FFF7FEFF 		bl	assert_param
1052:libs/STM32F30x_StdPeriph_Driver/src/stm32f30x_usart.c ****   assert_param(IS_USART_ADDRESS_DETECTION(USART_AddressLength));
 3158              		.loc 1 1052 0 is_stmt 1 discriminator 4
 3159 0042 3B68     		ldr	r3, [r7, #0]
 3160 0044 002B     		cmp	r3, #0
 3161 0046 02D0     		beq	.L261
 3162              		.loc 1 1052 0 is_stmt 0 discriminator 2
 3163 0048 3B68     		ldr	r3, [r7, #0]
 3164 004a 102B     		cmp	r3, #16
 3165 004c 02D1     		bne	.L262
 3166              	.L261:
 3167              		.loc 1 1052 0 discriminator 1
 3168 004e 4FF00103 		mov	r3, #1
 3169 0052 01E0     		b	.L263
 3170              	.L262:
 3171              		.loc 1 1052 0 discriminator 3
 3172 0054 4FF00003 		mov	r3, #0
 3173              	.L263:
 3174              		.loc 1 1052 0 discriminator 4
 3175 0058 1846     		mov	r0, r3
 3176 005a FFF7FEFF 		bl	assert_param
1053:libs/STM32F30x_StdPeriph_Driver/src/stm32f30x_usart.c **** 
1054:libs/STM32F30x_StdPeriph_Driver/src/stm32f30x_usart.c ****   USARTx->CR2 &= (uint32_t)~((uint32_t)USART_CR2_ADDM7);
 3177              		.loc 1 1054 0 is_stmt 1 discriminator 4
 3178 005e 7B68     		ldr	r3, [r7, #4]
 3179 0060 5B68     		ldr	r3, [r3, #4]
 3180 0062 23F01002 		bic	r2, r3, #16
 3181 0066 7B68     		ldr	r3, [r7, #4]
 3182 0068 5A60     		str	r2, [r3, #4]
1055:libs/STM32F30x_StdPeriph_Driver/src/stm32f30x_usart.c ****   USARTx->CR2 |= USART_AddressLength;
 3183              		.loc 1 1055 0 discriminator 4
 3184 006a 7B68     		ldr	r3, [r7, #4]
 3185 006c 5A68     		ldr	r2, [r3, #4]
 3186 006e 3B68     		ldr	r3, [r7, #0]
 3187 0070 1A43     		orrs	r2, r2, r3
 3188 0072 7B68     		ldr	r3, [r7, #4]
 3189 0074 5A60     		str	r2, [r3, #4]
1056:libs/STM32F30x_StdPeriph_Driver/src/stm32f30x_usart.c **** }
 3190              		.loc 1 1056 0 discriminator 4
 3191 0076 07F10807 		add	r7, r7, #8
 3192 007a BD46     		mov	sp, r7
 3193 007c 80BD     		pop	{r7, pc}
 3194              	.L265:
 3195 007e 00BF     		.align	2
 3196              	.L264:
 3197 0080 00380140 		.word	1073821696
 3198 0084 00440040 		.word	1073759232
 3199 0088 00480040 		.word	1073760256
 3200 008c 004C0040 		.word	1073761280
 3201 0090 00500040 		.word	1073762304
 3202              		.cfi_endproc
 3203              	.LFE135:
 3205              		.section	.text.USART_LINBreakDetectLengthConfig,"ax",%progbits
 3206              		.align	2
 3207              		.global	USART_LINBreakDetectLengthConfig
 3208              		.thumb
 3209              		.thumb_func
 3211              	USART_LINBreakDetectLengthConfig:
 3212              	.LFB136:
1057:libs/STM32F30x_StdPeriph_Driver/src/stm32f30x_usart.c **** 
1058:libs/STM32F30x_StdPeriph_Driver/src/stm32f30x_usart.c **** /**
1059:libs/STM32F30x_StdPeriph_Driver/src/stm32f30x_usart.c ****   * @}
1060:libs/STM32F30x_StdPeriph_Driver/src/stm32f30x_usart.c ****   */
1061:libs/STM32F30x_StdPeriph_Driver/src/stm32f30x_usart.c **** 
1062:libs/STM32F30x_StdPeriph_Driver/src/stm32f30x_usart.c **** /** @defgroup USART_Group6 LIN mode functions
1063:libs/STM32F30x_StdPeriph_Driver/src/stm32f30x_usart.c ****  *  @brief   LIN mode functions 
1064:libs/STM32F30x_StdPeriph_Driver/src/stm32f30x_usart.c ****  *
1065:libs/STM32F30x_StdPeriph_Driver/src/stm32f30x_usart.c **** @verbatim   
1066:libs/STM32F30x_StdPeriph_Driver/src/stm32f30x_usart.c ****  ===============================================================================
1067:libs/STM32F30x_StdPeriph_Driver/src/stm32f30x_usart.c ****                        ##### LIN mode functions #####
1068:libs/STM32F30x_StdPeriph_Driver/src/stm32f30x_usart.c ****  ===============================================================================
1069:libs/STM32F30x_StdPeriph_Driver/src/stm32f30x_usart.c ****     [..] This subsection provides a set of functions allowing to manage the USART 
1070:libs/STM32F30x_StdPeriph_Driver/src/stm32f30x_usart.c ****          LIN Mode communication.
1071:libs/STM32F30x_StdPeriph_Driver/src/stm32f30x_usart.c ****     [..] In LIN mode, 8-bit data format with 1 stop bit is required in accordance 
1072:libs/STM32F30x_StdPeriph_Driver/src/stm32f30x_usart.c ****          with the LIN standard.
1073:libs/STM32F30x_StdPeriph_Driver/src/stm32f30x_usart.c ****     [..] Only this LIN Feature is supported by the USART IP:
1074:libs/STM32F30x_StdPeriph_Driver/src/stm32f30x_usart.c ****          (+) LIN Master Synchronous Break send capability and LIN slave break 
1075:libs/STM32F30x_StdPeriph_Driver/src/stm32f30x_usart.c ****              detection capability :  13-bit break generation and 10/11 bit break 
1076:libs/STM32F30x_StdPeriph_Driver/src/stm32f30x_usart.c ****              detection.
1077:libs/STM32F30x_StdPeriph_Driver/src/stm32f30x_usart.c ****     [..] USART LIN Master transmitter communication is possible through the 
1078:libs/STM32F30x_StdPeriph_Driver/src/stm32f30x_usart.c ****          following procedure:
1079:libs/STM32F30x_StdPeriph_Driver/src/stm32f30x_usart.c ****          (#) Program the Baud rate, Word length = 8bits, Stop bits = 1bit, Parity, 
1080:libs/STM32F30x_StdPeriph_Driver/src/stm32f30x_usart.c ****              Mode transmitter or Mode receiver and hardware flow control values 
1081:libs/STM32F30x_StdPeriph_Driver/src/stm32f30x_usart.c ****              using the USART_Init() function.
1082:libs/STM32F30x_StdPeriph_Driver/src/stm32f30x_usart.c ****          (#) Enable the LIN mode using the USART_LINCmd() function.
1083:libs/STM32F30x_StdPeriph_Driver/src/stm32f30x_usart.c ****          (#) Enable the USART using the USART_Cmd() function.
1084:libs/STM32F30x_StdPeriph_Driver/src/stm32f30x_usart.c ****          (#) Send the break character using USART_SendBreak() function.
1085:libs/STM32F30x_StdPeriph_Driver/src/stm32f30x_usart.c ****     [..] USART LIN Master receiver communication is possible through the 
1086:libs/STM32F30x_StdPeriph_Driver/src/stm32f30x_usart.c ****          following procedure:
1087:libs/STM32F30x_StdPeriph_Driver/src/stm32f30x_usart.c ****          (#) Program the Baud rate, Word length = 8bits, Stop bits = 1bit, Parity, 
1088:libs/STM32F30x_StdPeriph_Driver/src/stm32f30x_usart.c ****              Mode transmitter or Mode receiver and hardware flow control values 
1089:libs/STM32F30x_StdPeriph_Driver/src/stm32f30x_usart.c ****              using the USART_Init() function.
1090:libs/STM32F30x_StdPeriph_Driver/src/stm32f30x_usart.c ****          (#) Configures the break detection length 
1091:libs/STM32F30x_StdPeriph_Driver/src/stm32f30x_usart.c ****              using the USART_LINBreakDetectLengthConfig() function.
1092:libs/STM32F30x_StdPeriph_Driver/src/stm32f30x_usart.c ****          (#) Enable the LIN mode using the USART_LINCmd() function.
1093:libs/STM32F30x_StdPeriph_Driver/src/stm32f30x_usart.c ****          (#) Enable the USART using the USART_Cmd() function.
1094:libs/STM32F30x_StdPeriph_Driver/src/stm32f30x_usart.c ****          [..]
1095:libs/STM32F30x_StdPeriph_Driver/src/stm32f30x_usart.c ****          (@) In LIN mode, the following bits must be kept cleared:
1096:libs/STM32F30x_StdPeriph_Driver/src/stm32f30x_usart.c ****              (+@) CLKEN in the USART_CR2 register.
1097:libs/STM32F30x_StdPeriph_Driver/src/stm32f30x_usart.c ****              (+@) STOP[1:0], SCEN, HDSEL and IREN in the USART_CR3 register.
1098:libs/STM32F30x_StdPeriph_Driver/src/stm32f30x_usart.c **** 
1099:libs/STM32F30x_StdPeriph_Driver/src/stm32f30x_usart.c **** @endverbatim
1100:libs/STM32F30x_StdPeriph_Driver/src/stm32f30x_usart.c ****   * @{
1101:libs/STM32F30x_StdPeriph_Driver/src/stm32f30x_usart.c ****   */
1102:libs/STM32F30x_StdPeriph_Driver/src/stm32f30x_usart.c **** 
1103:libs/STM32F30x_StdPeriph_Driver/src/stm32f30x_usart.c **** /**
1104:libs/STM32F30x_StdPeriph_Driver/src/stm32f30x_usart.c ****   * @brief  Sets the USART LIN Break detection length.
1105:libs/STM32F30x_StdPeriph_Driver/src/stm32f30x_usart.c ****   * @param  USARTx: Select the USART peripheral. This parameter can be one of the 
1106:libs/STM32F30x_StdPeriph_Driver/src/stm32f30x_usart.c ****   *         following values: USART1 or USART2 or USART3 or UART4 or UART5.
1107:libs/STM32F30x_StdPeriph_Driver/src/stm32f30x_usart.c ****   * @param  USART_LINBreakDetectLength: specifies the LIN break detection length.
1108:libs/STM32F30x_StdPeriph_Driver/src/stm32f30x_usart.c ****   *         This parameter can be one of the following values:
1109:libs/STM32F30x_StdPeriph_Driver/src/stm32f30x_usart.c ****   *         @arg USART_LINBreakDetectLength_10b: 10-bit break detection
1110:libs/STM32F30x_StdPeriph_Driver/src/stm32f30x_usart.c ****   *         @arg USART_LINBreakDetectLength_11b: 11-bit break detection
1111:libs/STM32F30x_StdPeriph_Driver/src/stm32f30x_usart.c ****   * @retval None
1112:libs/STM32F30x_StdPeriph_Driver/src/stm32f30x_usart.c ****   */
1113:libs/STM32F30x_StdPeriph_Driver/src/stm32f30x_usart.c **** void USART_LINBreakDetectLengthConfig(USART_TypeDef* USARTx, uint32_t USART_LINBreakDetectLength)
1114:libs/STM32F30x_StdPeriph_Driver/src/stm32f30x_usart.c **** {
 3213              		.loc 1 1114 0
 3214              		.cfi_startproc
 3215              		@ args = 0, pretend = 0, frame = 8
 3216              		@ frame_needed = 1, uses_anonymous_args = 0
 3217 0000 80B5     		push	{r7, lr}
 3218              	.LCFI78:
 3219              		.cfi_def_cfa_offset 8
 3220              		.cfi_offset 7, -8
 3221              		.cfi_offset 14, -4
 3222 0002 82B0     		sub	sp, sp, #8
 3223              	.LCFI79:
 3224              		.cfi_def_cfa_offset 16
 3225 0004 00AF     		add	r7, sp, #0
 3226              	.LCFI80:
 3227              		.cfi_def_cfa_register 7
 3228 0006 7860     		str	r0, [r7, #4]
 3229 0008 3960     		str	r1, [r7, #0]
1115:libs/STM32F30x_StdPeriph_Driver/src/stm32f30x_usart.c ****   /* Check the parameters */
1116:libs/STM32F30x_StdPeriph_Driver/src/stm32f30x_usart.c ****   assert_param(IS_USART_ALL_PERIPH(USARTx));
 3230              		.loc 1 1116 0
 3231 000a 7A68     		ldr	r2, [r7, #4]
 3232 000c 1C4B     		ldr	r3, .L273
 3233 000e 9A42     		cmp	r2, r3
 3234 0010 0FD0     		beq	.L267
 3235              		.loc 1 1116 0 is_stmt 0 discriminator 2
 3236 0012 7A68     		ldr	r2, [r7, #4]
 3237 0014 1B4B     		ldr	r3, .L273+4
 3238 0016 9A42     		cmp	r2, r3
 3239 0018 0BD0     		beq	.L267
 3240              		.loc 1 1116 0 discriminator 1
 3241 001a 7A68     		ldr	r2, [r7, #4]
 3242 001c 1A4B     		ldr	r3, .L273+8
 3243 001e 9A42     		cmp	r2, r3
 3244 0020 07D0     		beq	.L267
 3245              		.loc 1 1116 0 discriminator 2
 3246 0022 7A68     		ldr	r2, [r7, #4]
 3247 0024 194B     		ldr	r3, .L273+12
 3248 0026 9A42     		cmp	r2, r3
 3249 0028 03D0     		beq	.L267
 3250              		.loc 1 1116 0 discriminator 3
 3251 002a 7A68     		ldr	r2, [r7, #4]
 3252 002c 184B     		ldr	r3, .L273+16
 3253 002e 9A42     		cmp	r2, r3
 3254 0030 02D1     		bne	.L268
 3255              	.L267:
 3256              		.loc 1 1116 0 discriminator 1
 3257 0032 4FF00103 		mov	r3, #1
 3258 0036 01E0     		b	.L269
 3259              	.L268:
 3260              		.loc 1 1116 0 discriminator 3
 3261 0038 4FF00003 		mov	r3, #0
 3262              	.L269:
 3263              		.loc 1 1116 0 discriminator 4
 3264 003c 1846     		mov	r0, r3
 3265 003e FFF7FEFF 		bl	assert_param
1117:libs/STM32F30x_StdPeriph_Driver/src/stm32f30x_usart.c ****   assert_param(IS_USART_LIN_BREAK_DETECT_LENGTH(USART_LINBreakDetectLength));
 3266              		.loc 1 1117 0 is_stmt 1 discriminator 4
 3267 0042 3B68     		ldr	r3, [r7, #0]
 3268 0044 002B     		cmp	r3, #0
 3269 0046 02D0     		beq	.L270
 3270              		.loc 1 1117 0 is_stmt 0 discriminator 2
 3271 0048 3B68     		ldr	r3, [r7, #0]
 3272 004a 202B     		cmp	r3, #32
 3273 004c 02D1     		bne	.L271
 3274              	.L270:
 3275              		.loc 1 1117 0 discriminator 1
 3276 004e 4FF00103 		mov	r3, #1
 3277 0052 01E0     		b	.L272
 3278              	.L271:
 3279              		.loc 1 1117 0 discriminator 3
 3280 0054 4FF00003 		mov	r3, #0
 3281              	.L272:
 3282              		.loc 1 1117 0 discriminator 4
 3283 0058 1846     		mov	r0, r3
 3284 005a FFF7FEFF 		bl	assert_param
1118:libs/STM32F30x_StdPeriph_Driver/src/stm32f30x_usart.c **** 
1119:libs/STM32F30x_StdPeriph_Driver/src/stm32f30x_usart.c ****   USARTx->CR2 &= (uint32_t)~((uint32_t)USART_CR2_LBDL);
 3285              		.loc 1 1119 0 is_stmt 1 discriminator 4
 3286 005e 7B68     		ldr	r3, [r7, #4]
 3287 0060 5B68     		ldr	r3, [r3, #4]
 3288 0062 23F02002 		bic	r2, r3, #32
 3289 0066 7B68     		ldr	r3, [r7, #4]
 3290 0068 5A60     		str	r2, [r3, #4]
1120:libs/STM32F30x_StdPeriph_Driver/src/stm32f30x_usart.c ****   USARTx->CR2 |= USART_LINBreakDetectLength;  
 3291              		.loc 1 1120 0 discriminator 4
 3292 006a 7B68     		ldr	r3, [r7, #4]
 3293 006c 5A68     		ldr	r2, [r3, #4]
 3294 006e 3B68     		ldr	r3, [r7, #0]
 3295 0070 1A43     		orrs	r2, r2, r3
 3296 0072 7B68     		ldr	r3, [r7, #4]
 3297 0074 5A60     		str	r2, [r3, #4]
1121:libs/STM32F30x_StdPeriph_Driver/src/stm32f30x_usart.c **** }
 3298              		.loc 1 1121 0 discriminator 4
 3299 0076 07F10807 		add	r7, r7, #8
 3300 007a BD46     		mov	sp, r7
 3301 007c 80BD     		pop	{r7, pc}
 3302              	.L274:
 3303 007e 00BF     		.align	2
 3304              	.L273:
 3305 0080 00380140 		.word	1073821696
 3306 0084 00440040 		.word	1073759232
 3307 0088 00480040 		.word	1073760256
 3308 008c 004C0040 		.word	1073761280
 3309 0090 00500040 		.word	1073762304
 3310              		.cfi_endproc
 3311              	.LFE136:
 3313              		.section	.text.USART_LINCmd,"ax",%progbits
 3314              		.align	2
 3315              		.global	USART_LINCmd
 3316              		.thumb
 3317              		.thumb_func
 3319              	USART_LINCmd:
 3320              	.LFB137:
1122:libs/STM32F30x_StdPeriph_Driver/src/stm32f30x_usart.c **** 
1123:libs/STM32F30x_StdPeriph_Driver/src/stm32f30x_usart.c **** /**
1124:libs/STM32F30x_StdPeriph_Driver/src/stm32f30x_usart.c ****   * @brief  Enables or disables the USART's LIN mode.
1125:libs/STM32F30x_StdPeriph_Driver/src/stm32f30x_usart.c ****   * @param  USARTx: Select the USART peripheral. This parameter can be one of the 
1126:libs/STM32F30x_StdPeriph_Driver/src/stm32f30x_usart.c ****   *         following values: USART1 or USART2 or USART3 or UART4 or UART5.
1127:libs/STM32F30x_StdPeriph_Driver/src/stm32f30x_usart.c ****   * @param  NewState: new state of the USART LIN mode.
1128:libs/STM32F30x_StdPeriph_Driver/src/stm32f30x_usart.c ****   *         This parameter can be: ENABLE or DISABLE.
1129:libs/STM32F30x_StdPeriph_Driver/src/stm32f30x_usart.c ****   * @retval None
1130:libs/STM32F30x_StdPeriph_Driver/src/stm32f30x_usart.c ****   */
1131:libs/STM32F30x_StdPeriph_Driver/src/stm32f30x_usart.c **** void USART_LINCmd(USART_TypeDef* USARTx, FunctionalState NewState)
1132:libs/STM32F30x_StdPeriph_Driver/src/stm32f30x_usart.c **** {
 3321              		.loc 1 1132 0
 3322              		.cfi_startproc
 3323              		@ args = 0, pretend = 0, frame = 8
 3324              		@ frame_needed = 1, uses_anonymous_args = 0
 3325 0000 80B5     		push	{r7, lr}
 3326              	.LCFI81:
 3327              		.cfi_def_cfa_offset 8
 3328              		.cfi_offset 7, -8
 3329              		.cfi_offset 14, -4
 3330 0002 82B0     		sub	sp, sp, #8
 3331              	.LCFI82:
 3332              		.cfi_def_cfa_offset 16
 3333 0004 00AF     		add	r7, sp, #0
 3334              	.LCFI83:
 3335              		.cfi_def_cfa_register 7
 3336 0006 7860     		str	r0, [r7, #4]
 3337 0008 0B46     		mov	r3, r1
 3338 000a FB70     		strb	r3, [r7, #3]
1133:libs/STM32F30x_StdPeriph_Driver/src/stm32f30x_usart.c ****   /* Check the parameters */
1134:libs/STM32F30x_StdPeriph_Driver/src/stm32f30x_usart.c ****   assert_param(IS_USART_ALL_PERIPH(USARTx));
 3339              		.loc 1 1134 0
 3340 000c 7A68     		ldr	r2, [r7, #4]
 3341 000e 1E4B     		ldr	r3, .L284
 3342 0010 9A42     		cmp	r2, r3
 3343 0012 0FD0     		beq	.L276
 3344              		.loc 1 1134 0 is_stmt 0 discriminator 2
 3345 0014 7A68     		ldr	r2, [r7, #4]
 3346 0016 1D4B     		ldr	r3, .L284+4
 3347 0018 9A42     		cmp	r2, r3
 3348 001a 0BD0     		beq	.L276
 3349              		.loc 1 1134 0 discriminator 1
 3350 001c 7A68     		ldr	r2, [r7, #4]
 3351 001e 1C4B     		ldr	r3, .L284+8
 3352 0020 9A42     		cmp	r2, r3
 3353 0022 07D0     		beq	.L276
 3354              		.loc 1 1134 0 discriminator 2
 3355 0024 7A68     		ldr	r2, [r7, #4]
 3356 0026 1B4B     		ldr	r3, .L284+12
 3357 0028 9A42     		cmp	r2, r3
 3358 002a 03D0     		beq	.L276
 3359              		.loc 1 1134 0 discriminator 3
 3360 002c 7A68     		ldr	r2, [r7, #4]
 3361 002e 1A4B     		ldr	r3, .L284+16
 3362 0030 9A42     		cmp	r2, r3
 3363 0032 02D1     		bne	.L277
 3364              	.L276:
 3365              		.loc 1 1134 0 discriminator 1
 3366 0034 4FF00103 		mov	r3, #1
 3367 0038 01E0     		b	.L278
 3368              	.L277:
 3369              		.loc 1 1134 0 discriminator 3
 3370 003a 4FF00003 		mov	r3, #0
 3371              	.L278:
 3372              		.loc 1 1134 0 discriminator 4
 3373 003e 1846     		mov	r0, r3
 3374 0040 FFF7FEFF 		bl	assert_param
1135:libs/STM32F30x_StdPeriph_Driver/src/stm32f30x_usart.c ****   assert_param(IS_FUNCTIONAL_STATE(NewState));
 3375              		.loc 1 1135 0 is_stmt 1 discriminator 4
 3376 0044 FB78     		ldrb	r3, [r7, #3]	@ zero_extendqisi2
 3377 0046 002B     		cmp	r3, #0
 3378 0048 02D0     		beq	.L279
 3379              		.loc 1 1135 0 is_stmt 0 discriminator 2
 3380 004a FB78     		ldrb	r3, [r7, #3]	@ zero_extendqisi2
 3381 004c 012B     		cmp	r3, #1
 3382 004e 02D1     		bne	.L280
 3383              	.L279:
 3384              		.loc 1 1135 0 discriminator 1
 3385 0050 4FF00103 		mov	r3, #1
 3386 0054 01E0     		b	.L281
 3387              	.L280:
 3388              		.loc 1 1135 0 discriminator 3
 3389 0056 4FF00003 		mov	r3, #0
 3390              	.L281:
 3391              		.loc 1 1135 0 discriminator 4
 3392 005a 1846     		mov	r0, r3
 3393 005c FFF7FEFF 		bl	assert_param
1136:libs/STM32F30x_StdPeriph_Driver/src/stm32f30x_usart.c **** 
1137:libs/STM32F30x_StdPeriph_Driver/src/stm32f30x_usart.c ****   if (NewState != DISABLE)
 3394              		.loc 1 1137 0 is_stmt 1 discriminator 4
 3395 0060 FB78     		ldrb	r3, [r7, #3]	@ zero_extendqisi2
 3396 0062 002B     		cmp	r3, #0
 3397 0064 06D0     		beq	.L282
1138:libs/STM32F30x_StdPeriph_Driver/src/stm32f30x_usart.c ****   {
1139:libs/STM32F30x_StdPeriph_Driver/src/stm32f30x_usart.c ****     /* Enable the LIN mode by setting the LINEN bit in the CR2 register */
1140:libs/STM32F30x_StdPeriph_Driver/src/stm32f30x_usart.c ****     USARTx->CR2 |= USART_CR2_LINEN;
 3398              		.loc 1 1140 0
 3399 0066 7B68     		ldr	r3, [r7, #4]
 3400 0068 5B68     		ldr	r3, [r3, #4]
 3401 006a 43F48042 		orr	r2, r3, #16384
 3402 006e 7B68     		ldr	r3, [r7, #4]
 3403 0070 5A60     		str	r2, [r3, #4]
 3404 0072 05E0     		b	.L275
 3405              	.L282:
1141:libs/STM32F30x_StdPeriph_Driver/src/stm32f30x_usart.c ****   }
1142:libs/STM32F30x_StdPeriph_Driver/src/stm32f30x_usart.c ****   else
1143:libs/STM32F30x_StdPeriph_Driver/src/stm32f30x_usart.c ****   {
1144:libs/STM32F30x_StdPeriph_Driver/src/stm32f30x_usart.c ****     /* Disable the LIN mode by clearing the LINEN bit in the CR2 register */
1145:libs/STM32F30x_StdPeriph_Driver/src/stm32f30x_usart.c ****     USARTx->CR2 &= (uint32_t)~((uint32_t)USART_CR2_LINEN);
 3406              		.loc 1 1145 0
 3407 0074 7B68     		ldr	r3, [r7, #4]
 3408 0076 5B68     		ldr	r3, [r3, #4]
 3409 0078 23F48042 		bic	r2, r3, #16384
 3410 007c 7B68     		ldr	r3, [r7, #4]
 3411 007e 5A60     		str	r2, [r3, #4]
 3412              	.L275:
1146:libs/STM32F30x_StdPeriph_Driver/src/stm32f30x_usart.c ****   }
1147:libs/STM32F30x_StdPeriph_Driver/src/stm32f30x_usart.c **** }
 3413              		.loc 1 1147 0
 3414 0080 07F10807 		add	r7, r7, #8
 3415 0084 BD46     		mov	sp, r7
 3416 0086 80BD     		pop	{r7, pc}
 3417              	.L285:
 3418              		.align	2
 3419              	.L284:
 3420 0088 00380140 		.word	1073821696
 3421 008c 00440040 		.word	1073759232
 3422 0090 00480040 		.word	1073760256
 3423 0094 004C0040 		.word	1073761280
 3424 0098 00500040 		.word	1073762304
 3425              		.cfi_endproc
 3426              	.LFE137:
 3428              		.section	.text.USART_HalfDuplexCmd,"ax",%progbits
 3429              		.align	2
 3430              		.global	USART_HalfDuplexCmd
 3431              		.thumb
 3432              		.thumb_func
 3434              	USART_HalfDuplexCmd:
 3435              	.LFB138:
1148:libs/STM32F30x_StdPeriph_Driver/src/stm32f30x_usart.c **** 
1149:libs/STM32F30x_StdPeriph_Driver/src/stm32f30x_usart.c **** /**
1150:libs/STM32F30x_StdPeriph_Driver/src/stm32f30x_usart.c ****   * @}
1151:libs/STM32F30x_StdPeriph_Driver/src/stm32f30x_usart.c ****   */
1152:libs/STM32F30x_StdPeriph_Driver/src/stm32f30x_usart.c **** 
1153:libs/STM32F30x_StdPeriph_Driver/src/stm32f30x_usart.c **** /** @defgroup USART_Group7 Halfduplex mode function
1154:libs/STM32F30x_StdPeriph_Driver/src/stm32f30x_usart.c ****  *  @brief   Half-duplex mode function 
1155:libs/STM32F30x_StdPeriph_Driver/src/stm32f30x_usart.c ****  *
1156:libs/STM32F30x_StdPeriph_Driver/src/stm32f30x_usart.c **** @verbatim   
1157:libs/STM32F30x_StdPeriph_Driver/src/stm32f30x_usart.c ****  ===============================================================================
1158:libs/STM32F30x_StdPeriph_Driver/src/stm32f30x_usart.c ****                    ##### Half-duplex mode function #####
1159:libs/STM32F30x_StdPeriph_Driver/src/stm32f30x_usart.c ****  ===============================================================================
1160:libs/STM32F30x_StdPeriph_Driver/src/stm32f30x_usart.c ****     [..] This subsection provides a set of functions allowing to manage the USART
1161:libs/STM32F30x_StdPeriph_Driver/src/stm32f30x_usart.c ****          Half-duplex communication.
1162:libs/STM32F30x_StdPeriph_Driver/src/stm32f30x_usart.c ****     [..] The USART can be configured to follow a single-wire half-duplex protocol 
1163:libs/STM32F30x_StdPeriph_Driver/src/stm32f30x_usart.c ****          where the TX and RX lines are internally connected.
1164:libs/STM32F30x_StdPeriph_Driver/src/stm32f30x_usart.c ****     [..] USART Half duplex communication is possible through the following procedure:
1165:libs/STM32F30x_StdPeriph_Driver/src/stm32f30x_usart.c ****          (#) Program the Baud rate, Word length, Stop bits, Parity, Mode transmitter 
1166:libs/STM32F30x_StdPeriph_Driver/src/stm32f30x_usart.c ****              or Mode receiver and hardware flow control values using the USART_Init()
1167:libs/STM32F30x_StdPeriph_Driver/src/stm32f30x_usart.c ****             function.
1168:libs/STM32F30x_StdPeriph_Driver/src/stm32f30x_usart.c ****          (#) Configures the USART address using the USART_SetAddress() function.
1169:libs/STM32F30x_StdPeriph_Driver/src/stm32f30x_usart.c ****          (#) Enable the half duplex mode using USART_HalfDuplexCmd() function.
1170:libs/STM32F30x_StdPeriph_Driver/src/stm32f30x_usart.c ****          (#) Enable the USART using the USART_Cmd() function.
1171:libs/STM32F30x_StdPeriph_Driver/src/stm32f30x_usart.c ****          [..]
