   1              		.syntax unified
   2              		.cpu cortex-m3
   3              		.eabi_attribute 27, 3
   4              		.fpu fpv4-sp-d16
   5              		.eabi_attribute 20, 1
   6              		.eabi_attribute 21, 1
   7              		.eabi_attribute 23, 3
   8              		.eabi_attribute 24, 1
   9              		.eabi_attribute 25, 1
  10              		.eabi_attribute 26, 1
  11              		.eabi_attribute 30, 6
  12              		.eabi_attribute 34, 1
  13              		.eabi_attribute 18, 4
  14              		.thumb
  15              		.file	"stm32f30x_spi.c"
  16              		.text
  17              	.Ltext0:
  18              		.cfi_sections	.debug_frame
  19              		.section	.text.SPI_I2S_DeInit,"ax",%progbits
  20              		.align	2
  21              		.global	SPI_I2S_DeInit
  22              		.thumb
  23              		.thumb_func
  25              	SPI_I2S_DeInit:
  26              	.LFB110:
  27              		.file 1 "libs/STM32F30x_StdPeriph_Driver/src/stm32f30x_spi.c"
   1:libs/STM32F30x_StdPeriph_Driver/src/stm32f30x_spi.c **** /**
   2:libs/STM32F30x_StdPeriph_Driver/src/stm32f30x_spi.c ****   ******************************************************************************
   3:libs/STM32F30x_StdPeriph_Driver/src/stm32f30x_spi.c ****   * @file    stm32f30x_spi.c
   4:libs/STM32F30x_StdPeriph_Driver/src/stm32f30x_spi.c ****   * @author  MCD Application Team
   5:libs/STM32F30x_StdPeriph_Driver/src/stm32f30x_spi.c ****   * @version V1.0.1
   6:libs/STM32F30x_StdPeriph_Driver/src/stm32f30x_spi.c ****   * @date    23-October-2012
   7:libs/STM32F30x_StdPeriph_Driver/src/stm32f30x_spi.c ****   * @brief   This file provides firmware functions to manage the following 
   8:libs/STM32F30x_StdPeriph_Driver/src/stm32f30x_spi.c ****   *          functionalities of the Serial peripheral interface (SPI):
   9:libs/STM32F30x_StdPeriph_Driver/src/stm32f30x_spi.c ****   *           + Initialization and Configuration
  10:libs/STM32F30x_StdPeriph_Driver/src/stm32f30x_spi.c ****   *           + Data transfers functions
  11:libs/STM32F30x_StdPeriph_Driver/src/stm32f30x_spi.c ****   *           + Hardware CRC Calculation
  12:libs/STM32F30x_StdPeriph_Driver/src/stm32f30x_spi.c ****   *           + DMA transfers management
  13:libs/STM32F30x_StdPeriph_Driver/src/stm32f30x_spi.c ****   *           + Interrupts and flags management
  14:libs/STM32F30x_StdPeriph_Driver/src/stm32f30x_spi.c ****   *
  15:libs/STM32F30x_StdPeriph_Driver/src/stm32f30x_spi.c ****   *  @verbatim
  16:libs/STM32F30x_StdPeriph_Driver/src/stm32f30x_spi.c ****   
  17:libs/STM32F30x_StdPeriph_Driver/src/stm32f30x_spi.c ****   
  18:libs/STM32F30x_StdPeriph_Driver/src/stm32f30x_spi.c ****  ===============================================================================
  19:libs/STM32F30x_StdPeriph_Driver/src/stm32f30x_spi.c ****                       ##### How to use this driver #####
  20:libs/STM32F30x_StdPeriph_Driver/src/stm32f30x_spi.c ****  ===============================================================================
  21:libs/STM32F30x_StdPeriph_Driver/src/stm32f30x_spi.c ****     [..]
  22:libs/STM32F30x_StdPeriph_Driver/src/stm32f30x_spi.c ****         (#) Enable peripheral clock using RCC_APBPeriphClockCmd(RCC_APB2Periph_SPI1, ENABLE)
  23:libs/STM32F30x_StdPeriph_Driver/src/stm32f30x_spi.c ****             function for SPI1 or using RCC_APBPeriphClockCmd(RCC_APB1Periph_SPI2, ENABLE)
  24:libs/STM32F30x_StdPeriph_Driver/src/stm32f30x_spi.c ****             function for SPI2.
  25:libs/STM32F30x_StdPeriph_Driver/src/stm32f30x_spi.c ****         (#) Enable SCK, MOSI, MISO and NSS GPIO clocks using RCC_AHBPeriphClockCmd()
  26:libs/STM32F30x_StdPeriph_Driver/src/stm32f30x_spi.c ****             function. 
  27:libs/STM32F30x_StdPeriph_Driver/src/stm32f30x_spi.c ****         (#) Peripherals alternate function: 
  28:libs/STM32F30x_StdPeriph_Driver/src/stm32f30x_spi.c ****             (++) Connect the pin to the desired peripherals' Alternate 
  29:libs/STM32F30x_StdPeriph_Driver/src/stm32f30x_spi.c ****                  Function (AF) using GPIO_PinAFConfig() function.
  30:libs/STM32F30x_StdPeriph_Driver/src/stm32f30x_spi.c ****             (++) Configure the desired pin in alternate function by:
  31:libs/STM32F30x_StdPeriph_Driver/src/stm32f30x_spi.c ****                  GPIO_InitStruct->GPIO_Mode = GPIO_Mode_AF.
  32:libs/STM32F30x_StdPeriph_Driver/src/stm32f30x_spi.c ****             (++) Select the type, pull-up/pull-down and output speed via 
  33:libs/STM32F30x_StdPeriph_Driver/src/stm32f30x_spi.c ****                  GPIO_PuPd, GPIO_OType and GPIO_Speed members.
  34:libs/STM32F30x_StdPeriph_Driver/src/stm32f30x_spi.c ****             (++) Call GPIO_Init() function.
  35:libs/STM32F30x_StdPeriph_Driver/src/stm32f30x_spi.c ****         (#) Program the Polarity, Phase, First Data, Baud Rate Prescaler, Slave 
  36:libs/STM32F30x_StdPeriph_Driver/src/stm32f30x_spi.c ****             Management, Peripheral Mode and CRC Polynomial values using the SPI_Init()
  37:libs/STM32F30x_StdPeriph_Driver/src/stm32f30x_spi.c ****             function in SPI mode. In I2S mode, program the Mode, Standard, Data Format,
  38:libs/STM32F30x_StdPeriph_Driver/src/stm32f30x_spi.c ****             MCLK Output, Audio frequency and Polarity using I2S_Init() function.
  39:libs/STM32F30x_StdPeriph_Driver/src/stm32f30x_spi.c ****         (#) Configure the FIFO threshold using SPI_RxFIFOThresholdConfig() to select 
  40:libs/STM32F30x_StdPeriph_Driver/src/stm32f30x_spi.c ****             at which threshold the RXNE event is generated.     
  41:libs/STM32F30x_StdPeriph_Driver/src/stm32f30x_spi.c ****         (#) Enable the NVIC and the corresponding interrupt using the function 
  42:libs/STM32F30x_StdPeriph_Driver/src/stm32f30x_spi.c ****             SPI_I2S_ITConfig() if you need to use interrupt mode. 
  43:libs/STM32F30x_StdPeriph_Driver/src/stm32f30x_spi.c ****         (#) When using the DMA mode 
  44:libs/STM32F30x_StdPeriph_Driver/src/stm32f30x_spi.c ****             (++) Configure the DMA using DMA_Init() function.
  45:libs/STM32F30x_StdPeriph_Driver/src/stm32f30x_spi.c ****             (++) Active the needed channel Request using SPI_I2S_DMACmd() function.
  46:libs/STM32F30x_StdPeriph_Driver/src/stm32f30x_spi.c ****         (#) Enable the SPI using the SPI_Cmd() function or enable the I2S using
  47:libs/STM32F30x_StdPeriph_Driver/src/stm32f30x_spi.c ****             I2S_Cmd().
  48:libs/STM32F30x_StdPeriph_Driver/src/stm32f30x_spi.c ****         (#) Enable the DMA using the DMA_Cmd() function when using DMA mode. 
  49:libs/STM32F30x_StdPeriph_Driver/src/stm32f30x_spi.c ****         (#) Optionally you can enable/configure the following parameters without
  50:libs/STM32F30x_StdPeriph_Driver/src/stm32f30x_spi.c ****             re-initialization (i.e there is no need to call again SPI_Init() function):
  51:libs/STM32F30x_StdPeriph_Driver/src/stm32f30x_spi.c ****             (++) When bidirectional mode (SPI_Direction_1Line_Rx or SPI_Direction_1Line_Tx)
  52:libs/STM32F30x_StdPeriph_Driver/src/stm32f30x_spi.c ****                  is programmed as Data direction parameter using the SPI_Init() function
  53:libs/STM32F30x_StdPeriph_Driver/src/stm32f30x_spi.c ****                  it can be possible to switch between SPI_Direction_Tx or SPI_Direction_Rx
  54:libs/STM32F30x_StdPeriph_Driver/src/stm32f30x_spi.c ****                  using the SPI_BiDirectionalLineConfig() function.
  55:libs/STM32F30x_StdPeriph_Driver/src/stm32f30x_spi.c ****             (++) When SPI_NSS_Soft is selected as Slave Select Management parameter 
  56:libs/STM32F30x_StdPeriph_Driver/src/stm32f30x_spi.c ****                  using the SPI_Init() function it can be possible to manage the 
  57:libs/STM32F30x_StdPeriph_Driver/src/stm32f30x_spi.c ****                  NSS internal signal using the SPI_NSSInternalSoftwareConfig() function.
  58:libs/STM32F30x_StdPeriph_Driver/src/stm32f30x_spi.c ****             (++) Reconfigure the data size using the SPI_DataSizeConfig() function.  
  59:libs/STM32F30x_StdPeriph_Driver/src/stm32f30x_spi.c ****             (++) Enable or disable the SS output using the SPI_SSOutputCmd() function.
  60:libs/STM32F30x_StdPeriph_Driver/src/stm32f30x_spi.c ****         (#) To use the CRC Hardware calculation feature refer to the Peripheral 
  61:libs/STM32F30x_StdPeriph_Driver/src/stm32f30x_spi.c ****             CRC hardware Calculation subsection.
  62:libs/STM32F30x_StdPeriph_Driver/src/stm32f30x_spi.c ****     [..] It is possible to use SPI in I2S full duplex mode, in this case, each SPI 
  63:libs/STM32F30x_StdPeriph_Driver/src/stm32f30x_spi.c ****          peripheral is able to manage sending and receiving data simultaneously
  64:libs/STM32F30x_StdPeriph_Driver/src/stm32f30x_spi.c ****          using two data lines. Each SPI peripheral has an extended block called I2Sxext
  65:libs/STM32F30x_StdPeriph_Driver/src/stm32f30x_spi.c ****          (ie. I2S2ext for SPI2 and I2S3ext for SPI3).
  66:libs/STM32F30x_StdPeriph_Driver/src/stm32f30x_spi.c ****          The extension block is not a full SPI IP, it is used only as I2S slave to
  67:libs/STM32F30x_StdPeriph_Driver/src/stm32f30x_spi.c ****          implement full duplex mode. The extension block uses the same clock sources
  68:libs/STM32F30x_StdPeriph_Driver/src/stm32f30x_spi.c ****          as its master.          
  69:libs/STM32F30x_StdPeriph_Driver/src/stm32f30x_spi.c ****          To configure I2S full duplex you have to:
  70:libs/STM32F30x_StdPeriph_Driver/src/stm32f30x_spi.c ****         (#) Configure SPIx in I2S mode (I2S_Init() function) as described above. 
  71:libs/STM32F30x_StdPeriph_Driver/src/stm32f30x_spi.c ****         (#) Call the I2S_FullDuplexConfig() function using the same strucutre passed to  
  72:libs/STM32F30x_StdPeriph_Driver/src/stm32f30x_spi.c ****             I2S_Init() function.
  73:libs/STM32F30x_StdPeriph_Driver/src/stm32f30x_spi.c ****         (#) Call I2S_Cmd() for SPIx then for its extended block.
  74:libs/STM32F30x_StdPeriph_Driver/src/stm32f30x_spi.c ****         (#) Configure interrupts or DMA requests and to get/clear flag status, 
  75:libs/STM32F30x_StdPeriph_Driver/src/stm32f30x_spi.c ****             use I2Sxext instance for the extension block.
  76:libs/STM32F30x_StdPeriph_Driver/src/stm32f30x_spi.c ****         [..] Functions that can be called with I2Sxext instances are:
  77:libs/STM32F30x_StdPeriph_Driver/src/stm32f30x_spi.c ****              I2S_Cmd(), I2S_FullDuplexConfig(), SPI_I2S_ReceiveData16(), SPI_I2S_SendData16(), 
  78:libs/STM32F30x_StdPeriph_Driver/src/stm32f30x_spi.c ****              SPI_I2S_DMACmd(), SPI_I2S_ITConfig(), SPI_I2S_GetFlagStatus(), SPI_I2S_ClearFlag(),
  79:libs/STM32F30x_StdPeriph_Driver/src/stm32f30x_spi.c ****              SPI_I2S_GetITStatus() and SPI_I2S_ClearITPendingBit().
  80:libs/STM32F30x_StdPeriph_Driver/src/stm32f30x_spi.c ****         [..] Example: To use SPI3 in Full duplex mode (SPI3 is Master Tx, I2S3ext is Slave Rx):
  81:libs/STM32F30x_StdPeriph_Driver/src/stm32f30x_spi.c ****         [..] RCC_APB1PeriphClockCmd(RCC_APB1Periph_SPI3, ENABLE);   
  82:libs/STM32F30x_StdPeriph_Driver/src/stm32f30x_spi.c ****              I2S_StructInit(&I2SInitStruct);
  83:libs/STM32F30x_StdPeriph_Driver/src/stm32f30x_spi.c ****              I2SInitStruct.Mode = I2S_Mode_MasterTx;     
  84:libs/STM32F30x_StdPeriph_Driver/src/stm32f30x_spi.c ****              I2S_Init(SPI3, &I2SInitStruct);
  85:libs/STM32F30x_StdPeriph_Driver/src/stm32f30x_spi.c ****              I2S_FullDuplexConfig(SPI3ext, &I2SInitStruct)
  86:libs/STM32F30x_StdPeriph_Driver/src/stm32f30x_spi.c ****              I2S_Cmd(SPI3, ENABLE);
  87:libs/STM32F30x_StdPeriph_Driver/src/stm32f30x_spi.c ****              I2S_Cmd(SPI3ext, ENABLE);
  88:libs/STM32F30x_StdPeriph_Driver/src/stm32f30x_spi.c ****              ...
  89:libs/STM32F30x_StdPeriph_Driver/src/stm32f30x_spi.c ****              while (SPI_I2S_GetFlagStatus(SPI2, SPI_FLAG_TXE) == RESET)
  90:libs/STM32F30x_StdPeriph_Driver/src/stm32f30x_spi.c ****              {}
  91:libs/STM32F30x_StdPeriph_Driver/src/stm32f30x_spi.c ****              SPI_I2S_SendData16(SPI3, txdata[i]);
  92:libs/STM32F30x_StdPeriph_Driver/src/stm32f30x_spi.c ****              ...  
  93:libs/STM32F30x_StdPeriph_Driver/src/stm32f30x_spi.c ****              while (SPI_I2S_GetFlagStatus(I2S3ext, SPI_FLAG_RXNE) == RESET)
  94:libs/STM32F30x_StdPeriph_Driver/src/stm32f30x_spi.c ****              {}
  95:libs/STM32F30x_StdPeriph_Driver/src/stm32f30x_spi.c ****              rxdata[i] = SPI_I2S_ReceiveData16(I2S3ext);
  96:libs/STM32F30x_StdPeriph_Driver/src/stm32f30x_spi.c ****              ...          
  97:libs/STM32F30x_StdPeriph_Driver/src/stm32f30x_spi.c ****     [..]
  98:libs/STM32F30x_StdPeriph_Driver/src/stm32f30x_spi.c ****     (@) In SPI mode: To use the SPI TI mode, call the function SPI_TIModeCmd() 
  99:libs/STM32F30x_StdPeriph_Driver/src/stm32f30x_spi.c ****         just after calling the function SPI_Init().  
 100:libs/STM32F30x_StdPeriph_Driver/src/stm32f30x_spi.c ****               
 101:libs/STM32F30x_StdPeriph_Driver/src/stm32f30x_spi.c ****     @endverbatim
 102:libs/STM32F30x_StdPeriph_Driver/src/stm32f30x_spi.c ****   ******************************************************************************
 103:libs/STM32F30x_StdPeriph_Driver/src/stm32f30x_spi.c ****   * @attention
 104:libs/STM32F30x_StdPeriph_Driver/src/stm32f30x_spi.c ****   *
 105:libs/STM32F30x_StdPeriph_Driver/src/stm32f30x_spi.c ****   * <h2><center>&copy; COPYRIGHT 2012 STMicroelectronics</center></h2>
 106:libs/STM32F30x_StdPeriph_Driver/src/stm32f30x_spi.c ****   *
 107:libs/STM32F30x_StdPeriph_Driver/src/stm32f30x_spi.c ****   * Licensed under MCD-ST Liberty SW License Agreement V2, (the "License");
 108:libs/STM32F30x_StdPeriph_Driver/src/stm32f30x_spi.c ****   * You may not use this file except in compliance with the License.
 109:libs/STM32F30x_StdPeriph_Driver/src/stm32f30x_spi.c ****   * You may obtain a copy of the License at:
 110:libs/STM32F30x_StdPeriph_Driver/src/stm32f30x_spi.c ****   *
 111:libs/STM32F30x_StdPeriph_Driver/src/stm32f30x_spi.c ****   *        http://www.st.com/software_license_agreement_liberty_v2
 112:libs/STM32F30x_StdPeriph_Driver/src/stm32f30x_spi.c ****   *
 113:libs/STM32F30x_StdPeriph_Driver/src/stm32f30x_spi.c ****   * Unless required by applicable law or agreed to in writing, software 
 114:libs/STM32F30x_StdPeriph_Driver/src/stm32f30x_spi.c ****   * distributed under the License is distributed on an "AS IS" BASIS, 
 115:libs/STM32F30x_StdPeriph_Driver/src/stm32f30x_spi.c ****   * WITHOUT WARRANTIES OR CONDITIONS OF ANY KIND, either express or implied.
 116:libs/STM32F30x_StdPeriph_Driver/src/stm32f30x_spi.c ****   * See the License for the specific language governing permissions and
 117:libs/STM32F30x_StdPeriph_Driver/src/stm32f30x_spi.c ****   * limitations under the License.
 118:libs/STM32F30x_StdPeriph_Driver/src/stm32f30x_spi.c ****   *
 119:libs/STM32F30x_StdPeriph_Driver/src/stm32f30x_spi.c ****   ******************************************************************************
 120:libs/STM32F30x_StdPeriph_Driver/src/stm32f30x_spi.c ****   */
 121:libs/STM32F30x_StdPeriph_Driver/src/stm32f30x_spi.c **** 
 122:libs/STM32F30x_StdPeriph_Driver/src/stm32f30x_spi.c **** /* Includes ------------------------------------------------------------------*/
 123:libs/STM32F30x_StdPeriph_Driver/src/stm32f30x_spi.c **** #include "stm32f30x_spi.h"
 124:libs/STM32F30x_StdPeriph_Driver/src/stm32f30x_spi.c **** #include "stm32f30x_rcc.h"
 125:libs/STM32F30x_StdPeriph_Driver/src/stm32f30x_spi.c **** 
 126:libs/STM32F30x_StdPeriph_Driver/src/stm32f30x_spi.c **** /** @addtogroup STM32F30x_StdPeriph_Driver
 127:libs/STM32F30x_StdPeriph_Driver/src/stm32f30x_spi.c ****   * @{
 128:libs/STM32F30x_StdPeriph_Driver/src/stm32f30x_spi.c ****   */
 129:libs/STM32F30x_StdPeriph_Driver/src/stm32f30x_spi.c **** 
 130:libs/STM32F30x_StdPeriph_Driver/src/stm32f30x_spi.c **** /** @defgroup SPI
 131:libs/STM32F30x_StdPeriph_Driver/src/stm32f30x_spi.c ****   * @brief SPI driver modules
 132:libs/STM32F30x_StdPeriph_Driver/src/stm32f30x_spi.c ****   * @{
 133:libs/STM32F30x_StdPeriph_Driver/src/stm32f30x_spi.c ****   */
 134:libs/STM32F30x_StdPeriph_Driver/src/stm32f30x_spi.c **** 
 135:libs/STM32F30x_StdPeriph_Driver/src/stm32f30x_spi.c **** /* Private typedef -----------------------------------------------------------*/
 136:libs/STM32F30x_StdPeriph_Driver/src/stm32f30x_spi.c **** /* Private define ------------------------------------------------------------*/
 137:libs/STM32F30x_StdPeriph_Driver/src/stm32f30x_spi.c **** /* SPI registers Masks */
 138:libs/STM32F30x_StdPeriph_Driver/src/stm32f30x_spi.c **** #define CR1_CLEAR_MASK       ((uint16_t)0x3040)
 139:libs/STM32F30x_StdPeriph_Driver/src/stm32f30x_spi.c **** #define CR2_LDMA_MASK        ((uint16_t)0x9FFF)
 140:libs/STM32F30x_StdPeriph_Driver/src/stm32f30x_spi.c **** 
 141:libs/STM32F30x_StdPeriph_Driver/src/stm32f30x_spi.c **** #define I2SCFGR_CLEAR_MASK   ((uint16_t)0xF040)
 142:libs/STM32F30x_StdPeriph_Driver/src/stm32f30x_spi.c **** 
 143:libs/STM32F30x_StdPeriph_Driver/src/stm32f30x_spi.c **** /* Private macro -------------------------------------------------------------*/
 144:libs/STM32F30x_StdPeriph_Driver/src/stm32f30x_spi.c **** /* Private variables ---------------------------------------------------------*/
 145:libs/STM32F30x_StdPeriph_Driver/src/stm32f30x_spi.c **** /* Private function prototypes -----------------------------------------------*/
 146:libs/STM32F30x_StdPeriph_Driver/src/stm32f30x_spi.c **** /* Private functions ---------------------------------------------------------*/
 147:libs/STM32F30x_StdPeriph_Driver/src/stm32f30x_spi.c **** 
 148:libs/STM32F30x_StdPeriph_Driver/src/stm32f30x_spi.c **** /** @defgroup SPI_Private_Functions
 149:libs/STM32F30x_StdPeriph_Driver/src/stm32f30x_spi.c ****   * @{
 150:libs/STM32F30x_StdPeriph_Driver/src/stm32f30x_spi.c ****   */
 151:libs/STM32F30x_StdPeriph_Driver/src/stm32f30x_spi.c **** 
 152:libs/STM32F30x_StdPeriph_Driver/src/stm32f30x_spi.c **** /** @defgroup SPI_Group1 Initialization and Configuration functions
 153:libs/STM32F30x_StdPeriph_Driver/src/stm32f30x_spi.c ****  *  @brief   Initialization and Configuration functions 
 154:libs/STM32F30x_StdPeriph_Driver/src/stm32f30x_spi.c ****  *
 155:libs/STM32F30x_StdPeriph_Driver/src/stm32f30x_spi.c **** @verbatim   
 156:libs/STM32F30x_StdPeriph_Driver/src/stm32f30x_spi.c ****  ===============================================================================
 157:libs/STM32F30x_StdPeriph_Driver/src/stm32f30x_spi.c ****            ##### Initialization and Configuration functions #####
 158:libs/STM32F30x_StdPeriph_Driver/src/stm32f30x_spi.c ****  ===============================================================================  
 159:libs/STM32F30x_StdPeriph_Driver/src/stm32f30x_spi.c ****     [..] This section provides a set of functions allowing to initialize the SPI Direction,
 160:libs/STM32F30x_StdPeriph_Driver/src/stm32f30x_spi.c ****          SPI Mode, SPI Data Size, SPI Polarity, SPI Phase, SPI NSS Management, SPI Baud
 161:libs/STM32F30x_StdPeriph_Driver/src/stm32f30x_spi.c ****          Rate Prescaler, SPI First Bit and SPI CRC Polynomial.
 162:libs/STM32F30x_StdPeriph_Driver/src/stm32f30x_spi.c ****     [..] The SPI_Init() function follows the SPI configuration procedures for Master mode
 163:libs/STM32F30x_StdPeriph_Driver/src/stm32f30x_spi.c ****          and Slave mode (details for these procedures are available in reference manual).
 164:libs/STM32F30x_StdPeriph_Driver/src/stm32f30x_spi.c ****     [..] When the Software NSS management (SPI_InitStruct->SPI_NSS = SPI_NSS_Soft) is selected,
 165:libs/STM32F30x_StdPeriph_Driver/src/stm32f30x_spi.c ****          use the following function to manage the NSS bit:
 166:libs/STM32F30x_StdPeriph_Driver/src/stm32f30x_spi.c ****          void SPI_NSSInternalSoftwareConfig(SPI_TypeDef* SPIx, uint16_t SPI_NSSInternalSoft);
 167:libs/STM32F30x_StdPeriph_Driver/src/stm32f30x_spi.c ****     [..] In Master mode, when the Hardware NSS management (SPI_InitStruct->SPI_NSS = SPI_NSS_Hard)
 168:libs/STM32F30x_StdPeriph_Driver/src/stm32f30x_spi.c ****          is selected, use the follwoing function to enable the NSS output feature.
 169:libs/STM32F30x_StdPeriph_Driver/src/stm32f30x_spi.c ****          void SPI_SSOutputCmd(SPI_TypeDef* SPIx, FunctionalState NewState);
 170:libs/STM32F30x_StdPeriph_Driver/src/stm32f30x_spi.c ****     [..] The NSS pulse mode can be managed by the SPI TI mode when enabling it using the 
 171:libs/STM32F30x_StdPeriph_Driver/src/stm32f30x_spi.c ****          following function: void SPI_TIModeCmd(SPI_TypeDef* SPIx, FunctionalState NewState);
 172:libs/STM32F30x_StdPeriph_Driver/src/stm32f30x_spi.c ****          And it can be managed by software in the SPI Motorola mode using this function: 
 173:libs/STM32F30x_StdPeriph_Driver/src/stm32f30x_spi.c ****          void SPI_NSSPulseModeCmd(SPI_TypeDef* SPIx, FunctionalState NewState);
 174:libs/STM32F30x_StdPeriph_Driver/src/stm32f30x_spi.c ****     [..] This section provides also functions to initialize the I2S Mode, Standard, 
 175:libs/STM32F30x_StdPeriph_Driver/src/stm32f30x_spi.c ****          Data Format, MCLK Output, Audio frequency and Polarity.
 176:libs/STM32F30x_StdPeriph_Driver/src/stm32f30x_spi.c ****     [..] The I2S_Init() function follows the I2S configuration procedures for Master mode
 177:libs/STM32F30x_StdPeriph_Driver/src/stm32f30x_spi.c ****          and Slave mode.
 178:libs/STM32F30x_StdPeriph_Driver/src/stm32f30x_spi.c ****   
 179:libs/STM32F30x_StdPeriph_Driver/src/stm32f30x_spi.c **** @endverbatim
 180:libs/STM32F30x_StdPeriph_Driver/src/stm32f30x_spi.c ****   * @{
 181:libs/STM32F30x_StdPeriph_Driver/src/stm32f30x_spi.c ****   */
 182:libs/STM32F30x_StdPeriph_Driver/src/stm32f30x_spi.c **** 
 183:libs/STM32F30x_StdPeriph_Driver/src/stm32f30x_spi.c **** /**
 184:libs/STM32F30x_StdPeriph_Driver/src/stm32f30x_spi.c ****   * @brief  Deinitializes the SPIx peripheral registers to their default
 185:libs/STM32F30x_StdPeriph_Driver/src/stm32f30x_spi.c ****   *         reset values.
 186:libs/STM32F30x_StdPeriph_Driver/src/stm32f30x_spi.c ****   * @param  SPIx: To select the SPIx peripheral, where x can be: 1, 2 or 3 
 187:libs/STM32F30x_StdPeriph_Driver/src/stm32f30x_spi.c ****   *         in SPI mode.
 188:libs/STM32F30x_StdPeriph_Driver/src/stm32f30x_spi.c ****   * @retval None
 189:libs/STM32F30x_StdPeriph_Driver/src/stm32f30x_spi.c ****   */
 190:libs/STM32F30x_StdPeriph_Driver/src/stm32f30x_spi.c **** void SPI_I2S_DeInit(SPI_TypeDef* SPIx)
 191:libs/STM32F30x_StdPeriph_Driver/src/stm32f30x_spi.c **** {
  28              		.loc 1 191 0
  29              		.cfi_startproc
  30              		@ args = 0, pretend = 0, frame = 8
  31              		@ frame_needed = 1, uses_anonymous_args = 0
  32 0000 80B5     		push	{r7, lr}
  33              	.LCFI0:
  34              		.cfi_def_cfa_offset 8
  35              		.cfi_offset 7, -8
  36              		.cfi_offset 14, -4
  37 0002 82B0     		sub	sp, sp, #8
  38              	.LCFI1:
  39              		.cfi_def_cfa_offset 16
  40 0004 00AF     		add	r7, sp, #0
  41              	.LCFI2:
  42              		.cfi_def_cfa_register 7
  43 0006 7860     		str	r0, [r7, #4]
 192:libs/STM32F30x_StdPeriph_Driver/src/stm32f30x_spi.c ****   /* Check the parameters */
 193:libs/STM32F30x_StdPeriph_Driver/src/stm32f30x_spi.c ****   ////assert_param(IS_SPI_ALL_PERIPH(SPIx));
 194:libs/STM32F30x_StdPeriph_Driver/src/stm32f30x_spi.c **** 
 195:libs/STM32F30x_StdPeriph_Driver/src/stm32f30x_spi.c ****   if (SPIx == SPI1)
  44              		.loc 1 195 0
  45 0008 7A68     		ldr	r2, [r7, #4]
  46 000a 1A4B     		ldr	r3, .L5
  47 000c 9A42     		cmp	r2, r3
  48 000e 0CD1     		bne	.L2
 196:libs/STM32F30x_StdPeriph_Driver/src/stm32f30x_spi.c ****   {
 197:libs/STM32F30x_StdPeriph_Driver/src/stm32f30x_spi.c ****     /* Enable SPI1 reset state */
 198:libs/STM32F30x_StdPeriph_Driver/src/stm32f30x_spi.c ****     RCC_APB2PeriphResetCmd(RCC_APB2Periph_SPI1, ENABLE);
  49              		.loc 1 198 0
  50 0010 4FF48050 		mov	r0, #4096
  51 0014 4FF00101 		mov	r1, #1
  52 0018 FFF7FEFF 		bl	RCC_APB2PeriphResetCmd
 199:libs/STM32F30x_StdPeriph_Driver/src/stm32f30x_spi.c ****     /* Release SPI1 from reset state */
 200:libs/STM32F30x_StdPeriph_Driver/src/stm32f30x_spi.c ****     RCC_APB2PeriphResetCmd(RCC_APB2Periph_SPI1, DISABLE);
  53              		.loc 1 200 0
  54 001c 4FF48050 		mov	r0, #4096
  55 0020 4FF00001 		mov	r1, #0
  56 0024 FFF7FEFF 		bl	RCC_APB2PeriphResetCmd
  57 0028 20E0     		b	.L1
  58              	.L2:
 201:libs/STM32F30x_StdPeriph_Driver/src/stm32f30x_spi.c ****   }
 202:libs/STM32F30x_StdPeriph_Driver/src/stm32f30x_spi.c ****   else if (SPIx == SPI2)
  59              		.loc 1 202 0
  60 002a 7A68     		ldr	r2, [r7, #4]
  61 002c 124B     		ldr	r3, .L5+4
  62 002e 9A42     		cmp	r2, r3
  63 0030 0CD1     		bne	.L4
 203:libs/STM32F30x_StdPeriph_Driver/src/stm32f30x_spi.c ****   {
 204:libs/STM32F30x_StdPeriph_Driver/src/stm32f30x_spi.c ****     /* Enable SPI2 reset state */
 205:libs/STM32F30x_StdPeriph_Driver/src/stm32f30x_spi.c ****     RCC_APB1PeriphResetCmd(RCC_APB1Periph_SPI2, ENABLE);
  64              		.loc 1 205 0
  65 0032 4FF48040 		mov	r0, #16384
  66 0036 4FF00101 		mov	r1, #1
  67 003a FFF7FEFF 		bl	RCC_APB1PeriphResetCmd
 206:libs/STM32F30x_StdPeriph_Driver/src/stm32f30x_spi.c ****     /* Release SPI2 from reset state */
 207:libs/STM32F30x_StdPeriph_Driver/src/stm32f30x_spi.c ****     RCC_APB1PeriphResetCmd(RCC_APB1Periph_SPI2, DISABLE);
  68              		.loc 1 207 0
  69 003e 4FF48040 		mov	r0, #16384
  70 0042 4FF00001 		mov	r1, #0
  71 0046 FFF7FEFF 		bl	RCC_APB1PeriphResetCmd
  72 004a 0FE0     		b	.L1
  73              	.L4:
 208:libs/STM32F30x_StdPeriph_Driver/src/stm32f30x_spi.c ****   }
 209:libs/STM32F30x_StdPeriph_Driver/src/stm32f30x_spi.c ****   else
 210:libs/STM32F30x_StdPeriph_Driver/src/stm32f30x_spi.c ****   {
 211:libs/STM32F30x_StdPeriph_Driver/src/stm32f30x_spi.c ****     if (SPIx == SPI3)
  74              		.loc 1 211 0
  75 004c 7A68     		ldr	r2, [r7, #4]
  76 004e 0B4B     		ldr	r3, .L5+8
  77 0050 9A42     		cmp	r2, r3
  78 0052 0BD1     		bne	.L1
 212:libs/STM32F30x_StdPeriph_Driver/src/stm32f30x_spi.c ****     {
 213:libs/STM32F30x_StdPeriph_Driver/src/stm32f30x_spi.c ****       /* Enable SPI3 reset state */
 214:libs/STM32F30x_StdPeriph_Driver/src/stm32f30x_spi.c ****       RCC_APB1PeriphResetCmd(RCC_APB1Periph_SPI3, ENABLE);
  79              		.loc 1 214 0
  80 0054 4FF40040 		mov	r0, #32768
  81 0058 4FF00101 		mov	r1, #1
  82 005c FFF7FEFF 		bl	RCC_APB1PeriphResetCmd
 215:libs/STM32F30x_StdPeriph_Driver/src/stm32f30x_spi.c ****       /* Release SPI3 from reset state */
 216:libs/STM32F30x_StdPeriph_Driver/src/stm32f30x_spi.c ****       RCC_APB1PeriphResetCmd(RCC_APB1Periph_SPI3, DISABLE);
  83              		.loc 1 216 0
  84 0060 4FF40040 		mov	r0, #32768
  85 0064 4FF00001 		mov	r1, #0
  86 0068 FFF7FEFF 		bl	RCC_APB1PeriphResetCmd
  87              	.L1:
 217:libs/STM32F30x_StdPeriph_Driver/src/stm32f30x_spi.c ****     }
 218:libs/STM32F30x_StdPeriph_Driver/src/stm32f30x_spi.c ****   }
 219:libs/STM32F30x_StdPeriph_Driver/src/stm32f30x_spi.c **** }
  88              		.loc 1 219 0
  89 006c 07F10807 		add	r7, r7, #8
  90 0070 BD46     		mov	sp, r7
  91 0072 80BD     		pop	{r7, pc}
  92              	.L6:
  93              		.align	2
  94              	.L5:
  95 0074 00300140 		.word	1073819648
  96 0078 00380040 		.word	1073756160
  97 007c 003C0040 		.word	1073757184
  98              		.cfi_endproc
  99              	.LFE110:
 101              		.section	.text.SPI_StructInit,"ax",%progbits
 102              		.align	2
 103              		.global	SPI_StructInit
 104              		.thumb
 105              		.thumb_func
 107              	SPI_StructInit:
 108              	.LFB111:
 220:libs/STM32F30x_StdPeriph_Driver/src/stm32f30x_spi.c **** 
 221:libs/STM32F30x_StdPeriph_Driver/src/stm32f30x_spi.c **** /**
 222:libs/STM32F30x_StdPeriph_Driver/src/stm32f30x_spi.c ****   * @brief  Fills each SPI_InitStruct member with its default value.
 223:libs/STM32F30x_StdPeriph_Driver/src/stm32f30x_spi.c ****   * @param  SPI_InitStruct: pointer to a SPI_InitTypeDef structure which will be initialized.
 224:libs/STM32F30x_StdPeriph_Driver/src/stm32f30x_spi.c ****   * @retval None
 225:libs/STM32F30x_StdPeriph_Driver/src/stm32f30x_spi.c ****   */
 226:libs/STM32F30x_StdPeriph_Driver/src/stm32f30x_spi.c **** void SPI_StructInit(SPI_InitTypeDef* SPI_InitStruct)
 227:libs/STM32F30x_StdPeriph_Driver/src/stm32f30x_spi.c **** {
 109              		.loc 1 227 0
 110              		.cfi_startproc
 111              		@ args = 0, pretend = 0, frame = 8
 112              		@ frame_needed = 1, uses_anonymous_args = 0
 113              		@ link register save eliminated.
 114 0000 80B4     		push	{r7}
 115              	.LCFI3:
 116              		.cfi_def_cfa_offset 4
 117              		.cfi_offset 7, -4
 118 0002 83B0     		sub	sp, sp, #12
 119              	.LCFI4:
 120              		.cfi_def_cfa_offset 16
 121 0004 00AF     		add	r7, sp, #0
 122              	.LCFI5:
 123              		.cfi_def_cfa_register 7
 124 0006 7860     		str	r0, [r7, #4]
 228:libs/STM32F30x_StdPeriph_Driver/src/stm32f30x_spi.c **** /*--------------- Reset SPI init structure parameters values -----------------*/
 229:libs/STM32F30x_StdPeriph_Driver/src/stm32f30x_spi.c ****   /* Initialize the SPI_Direction member */
 230:libs/STM32F30x_StdPeriph_Driver/src/stm32f30x_spi.c ****   SPI_InitStruct->SPI_Direction = SPI_Direction_2Lines_FullDuplex;
 125              		.loc 1 230 0
 126 0008 7B68     		ldr	r3, [r7, #4]
 127 000a 4FF00002 		mov	r2, #0
 128 000e 1A80     		strh	r2, [r3, #0]	@ movhi
 231:libs/STM32F30x_StdPeriph_Driver/src/stm32f30x_spi.c ****   /* Initialize the SPI_Mode member */
 232:libs/STM32F30x_StdPeriph_Driver/src/stm32f30x_spi.c ****   SPI_InitStruct->SPI_Mode = SPI_Mode_Slave;
 129              		.loc 1 232 0
 130 0010 7B68     		ldr	r3, [r7, #4]
 131 0012 4FF00002 		mov	r2, #0
 132 0016 5A80     		strh	r2, [r3, #2]	@ movhi
 233:libs/STM32F30x_StdPeriph_Driver/src/stm32f30x_spi.c ****   /* Initialize the SPI_DataSize member */
 234:libs/STM32F30x_StdPeriph_Driver/src/stm32f30x_spi.c ****   SPI_InitStruct->SPI_DataSize = SPI_DataSize_8b;
 133              		.loc 1 234 0
 134 0018 7B68     		ldr	r3, [r7, #4]
 135 001a 4FF4E062 		mov	r2, #1792
 136 001e 9A80     		strh	r2, [r3, #4]	@ movhi
 235:libs/STM32F30x_StdPeriph_Driver/src/stm32f30x_spi.c ****   /* Initialize the SPI_CPOL member */
 236:libs/STM32F30x_StdPeriph_Driver/src/stm32f30x_spi.c ****   SPI_InitStruct->SPI_CPOL = SPI_CPOL_Low;
 137              		.loc 1 236 0
 138 0020 7B68     		ldr	r3, [r7, #4]
 139 0022 4FF00002 		mov	r2, #0
 140 0026 DA80     		strh	r2, [r3, #6]	@ movhi
 237:libs/STM32F30x_StdPeriph_Driver/src/stm32f30x_spi.c ****   /* Initialize the SPI_CPHA member */
 238:libs/STM32F30x_StdPeriph_Driver/src/stm32f30x_spi.c ****   SPI_InitStruct->SPI_CPHA = SPI_CPHA_1Edge;
 141              		.loc 1 238 0
 142 0028 7B68     		ldr	r3, [r7, #4]
 143 002a 4FF00002 		mov	r2, #0
 144 002e 1A81     		strh	r2, [r3, #8]	@ movhi
 239:libs/STM32F30x_StdPeriph_Driver/src/stm32f30x_spi.c ****   /* Initialize the SPI_NSS member */
 240:libs/STM32F30x_StdPeriph_Driver/src/stm32f30x_spi.c ****   SPI_InitStruct->SPI_NSS = SPI_NSS_Hard;
 145              		.loc 1 240 0
 146 0030 7B68     		ldr	r3, [r7, #4]
 147 0032 4FF00002 		mov	r2, #0
 148 0036 5A81     		strh	r2, [r3, #10]	@ movhi
 241:libs/STM32F30x_StdPeriph_Driver/src/stm32f30x_spi.c ****   /* Initialize the SPI_BaudRatePrescaler member */
 242:libs/STM32F30x_StdPeriph_Driver/src/stm32f30x_spi.c ****   SPI_InitStruct->SPI_BaudRatePrescaler = SPI_BaudRatePrescaler_2;
 149              		.loc 1 242 0
 150 0038 7B68     		ldr	r3, [r7, #4]
 151 003a 4FF00002 		mov	r2, #0
 152 003e 9A81     		strh	r2, [r3, #12]	@ movhi
 243:libs/STM32F30x_StdPeriph_Driver/src/stm32f30x_spi.c ****   /* Initialize the SPI_FirstBit member */
 244:libs/STM32F30x_StdPeriph_Driver/src/stm32f30x_spi.c ****   SPI_InitStruct->SPI_FirstBit = SPI_FirstBit_MSB;
 153              		.loc 1 244 0
 154 0040 7B68     		ldr	r3, [r7, #4]
 155 0042 4FF00002 		mov	r2, #0
 156 0046 DA81     		strh	r2, [r3, #14]	@ movhi
 245:libs/STM32F30x_StdPeriph_Driver/src/stm32f30x_spi.c ****   /* Initialize the SPI_CRCPolynomial member */
 246:libs/STM32F30x_StdPeriph_Driver/src/stm32f30x_spi.c ****   SPI_InitStruct->SPI_CRCPolynomial = 7;
 157              		.loc 1 246 0
 158 0048 7B68     		ldr	r3, [r7, #4]
 159 004a 4FF00702 		mov	r2, #7
 160 004e 1A82     		strh	r2, [r3, #16]	@ movhi
 247:libs/STM32F30x_StdPeriph_Driver/src/stm32f30x_spi.c **** }
 161              		.loc 1 247 0
 162 0050 07F10C07 		add	r7, r7, #12
 163 0054 BD46     		mov	sp, r7
 164 0056 80BC     		pop	{r7}
 165 0058 7047     		bx	lr
 166              		.cfi_endproc
 167              	.LFE111:
 169 005a 00BF     		.section	.text.SPI_Init,"ax",%progbits
 170              		.align	2
 171              		.global	SPI_Init
 172              		.thumb
 173              		.thumb_func
 175              	SPI_Init:
 176              	.LFB112:
 248:libs/STM32F30x_StdPeriph_Driver/src/stm32f30x_spi.c **** 
 249:libs/STM32F30x_StdPeriph_Driver/src/stm32f30x_spi.c **** /**
 250:libs/STM32F30x_StdPeriph_Driver/src/stm32f30x_spi.c ****   * @brief  Initializes the SPIx peripheral according to the specified 
 251:libs/STM32F30x_StdPeriph_Driver/src/stm32f30x_spi.c ****   *         parameters in the SPI_InitStruct.
 252:libs/STM32F30x_StdPeriph_Driver/src/stm32f30x_spi.c ****   * @param  SPIx: where x can be 1, 2 or 3 to select the SPI peripheral.
 253:libs/STM32F30x_StdPeriph_Driver/src/stm32f30x_spi.c ****   * @param  SPI_InitStruct: pointer to a SPI_InitTypeDef structure that
 254:libs/STM32F30x_StdPeriph_Driver/src/stm32f30x_spi.c ****   *         contains the configuration information for the specified SPI peripheral.
 255:libs/STM32F30x_StdPeriph_Driver/src/stm32f30x_spi.c ****   * @retval None
 256:libs/STM32F30x_StdPeriph_Driver/src/stm32f30x_spi.c ****   */
 257:libs/STM32F30x_StdPeriph_Driver/src/stm32f30x_spi.c **** void SPI_Init(SPI_TypeDef* SPIx, SPI_InitTypeDef* SPI_InitStruct)
 258:libs/STM32F30x_StdPeriph_Driver/src/stm32f30x_spi.c **** {
 177              		.loc 1 258 0
 178              		.cfi_startproc
 179              		@ args = 0, pretend = 0, frame = 16
 180              		@ frame_needed = 1, uses_anonymous_args = 0
 181              		@ link register save eliminated.
 182 0000 80B4     		push	{r7}
 183              	.LCFI6:
 184              		.cfi_def_cfa_offset 4
 185              		.cfi_offset 7, -4
 186 0002 85B0     		sub	sp, sp, #20
 187              	.LCFI7:
 188              		.cfi_def_cfa_offset 24
 189 0004 00AF     		add	r7, sp, #0
 190              	.LCFI8:
 191              		.cfi_def_cfa_register 7
 192 0006 7860     		str	r0, [r7, #4]
 193 0008 3960     		str	r1, [r7, #0]
 259:libs/STM32F30x_StdPeriph_Driver/src/stm32f30x_spi.c ****   uint16_t tmpreg = 0;
 194              		.loc 1 259 0
 195 000a 4FF00003 		mov	r3, #0
 196 000e FB81     		strh	r3, [r7, #14]	@ movhi
 260:libs/STM32F30x_StdPeriph_Driver/src/stm32f30x_spi.c **** 
 261:libs/STM32F30x_StdPeriph_Driver/src/stm32f30x_spi.c ****   /* check the parameters */
 262:libs/STM32F30x_StdPeriph_Driver/src/stm32f30x_spi.c ****   ////assert_param(IS_SPI_ALL_PERIPH(SPIx));
 263:libs/STM32F30x_StdPeriph_Driver/src/stm32f30x_spi.c **** 
 264:libs/STM32F30x_StdPeriph_Driver/src/stm32f30x_spi.c ****   /* Check the SPI parameters */
 265:libs/STM32F30x_StdPeriph_Driver/src/stm32f30x_spi.c ****  // //assert_param(IS_SPI_DIRECTION_MODE(SPI_InitStruct->SPI_Direction));
 266:libs/STM32F30x_StdPeriph_Driver/src/stm32f30x_spi.c ****   ////assert_param(IS_SPI_MODE(SPI_InitStruct->SPI_Mode));
 267:libs/STM32F30x_StdPeriph_Driver/src/stm32f30x_spi.c ****   ////assert_param(IS_SPI_DATA_SIZE(SPI_InitStruct->SPI_DataSize));
 268:libs/STM32F30x_StdPeriph_Driver/src/stm32f30x_spi.c ****   ////assert_param(IS_SPI_CPOL(SPI_InitStruct->SPI_CPOL));
 269:libs/STM32F30x_StdPeriph_Driver/src/stm32f30x_spi.c ****   ////assert_param(IS_SPI_CPHA(SPI_InitStruct->SPI_CPHA));
 270:libs/STM32F30x_StdPeriph_Driver/src/stm32f30x_spi.c ****   ////assert_param(IS_SPI_NSS(SPI_InitStruct->SPI_NSS));
 271:libs/STM32F30x_StdPeriph_Driver/src/stm32f30x_spi.c ****   ////assert_param(IS_SPI_BAUDRATE_PRESCALER(SPI_InitStruct->SPI_BaudRatePrescaler));
 272:libs/STM32F30x_StdPeriph_Driver/src/stm32f30x_spi.c ****   ////assert_param(IS_SPI_FIRST_BIT(SPI_InitStruct->SPI_FirstBit));
 273:libs/STM32F30x_StdPeriph_Driver/src/stm32f30x_spi.c ****   ////assert_param(IS_SPI_CRC_POLYNOMIAL(SPI_InitStruct->SPI_CRCPolynomial));
 274:libs/STM32F30x_StdPeriph_Driver/src/stm32f30x_spi.c **** 
 275:libs/STM32F30x_StdPeriph_Driver/src/stm32f30x_spi.c ****   /* Configuring the SPI in master mode */
 276:libs/STM32F30x_StdPeriph_Driver/src/stm32f30x_spi.c ****   if(SPI_InitStruct->SPI_Mode == SPI_Mode_Master)
 197              		.loc 1 276 0
 198 0010 3B68     		ldr	r3, [r7, #0]
 199 0012 5B88     		ldrh	r3, [r3, #2]
 200 0014 B3F5827F 		cmp	r3, #260
 201 0018 36D1     		bne	.L9
 277:libs/STM32F30x_StdPeriph_Driver/src/stm32f30x_spi.c ****   {
 278:libs/STM32F30x_StdPeriph_Driver/src/stm32f30x_spi.c **** /*---------------------------- SPIx CR1 Configuration ------------------------*/
 279:libs/STM32F30x_StdPeriph_Driver/src/stm32f30x_spi.c ****     /* Get the SPIx CR1 value */
 280:libs/STM32F30x_StdPeriph_Driver/src/stm32f30x_spi.c ****     tmpreg = SPIx->CR1;
 202              		.loc 1 280 0
 203 001a 7B68     		ldr	r3, [r7, #4]
 204 001c 1B88     		ldrh	r3, [r3, #0]	@ movhi
 205 001e FB81     		strh	r3, [r7, #14]	@ movhi
 281:libs/STM32F30x_StdPeriph_Driver/src/stm32f30x_spi.c ****     /* Clear BIDIMode, BIDIOE, RxONLY, SSM, SSI, LSBFirst, BR, MSTR, CPOL and CPHA bits */
 282:libs/STM32F30x_StdPeriph_Driver/src/stm32f30x_spi.c ****     tmpreg &= CR1_CLEAR_MASK;
 206              		.loc 1 282 0
 207 0020 FB89     		ldrh	r3, [r7, #14]	@ movhi
 208 0022 03F44153 		and	r3, r3, #12352
 209 0026 FB81     		strh	r3, [r7, #14]	@ movhi
 283:libs/STM32F30x_StdPeriph_Driver/src/stm32f30x_spi.c ****     /* Configure SPIx: direction, NSS management, first transmitted bit, BaudRate prescaler
 284:libs/STM32F30x_StdPeriph_Driver/src/stm32f30x_spi.c ****        master/slave mode, CPOL and CPHA */
 285:libs/STM32F30x_StdPeriph_Driver/src/stm32f30x_spi.c ****     /* Set BIDImode, BIDIOE and RxONLY bits according to SPI_Direction value */
 286:libs/STM32F30x_StdPeriph_Driver/src/stm32f30x_spi.c ****     /* Set SSM, SSI and MSTR bits according to SPI_Mode and SPI_NSS values */
 287:libs/STM32F30x_StdPeriph_Driver/src/stm32f30x_spi.c ****     /* Set LSBFirst bit according to SPI_FirstBit value */
 288:libs/STM32F30x_StdPeriph_Driver/src/stm32f30x_spi.c ****     /* Set BR bits according to SPI_BaudRatePrescaler value */
 289:libs/STM32F30x_StdPeriph_Driver/src/stm32f30x_spi.c ****     /* Set CPOL bit according to SPI_CPOL value */
 290:libs/STM32F30x_StdPeriph_Driver/src/stm32f30x_spi.c ****     /* Set CPHA bit according to SPI_CPHA value */
 291:libs/STM32F30x_StdPeriph_Driver/src/stm32f30x_spi.c ****     tmpreg |= (uint16_t)((uint16_t)(SPI_InitStruct->SPI_Direction | SPI_InitStruct->SPI_Mode) |
 210              		.loc 1 291 0
 211 0028 3B68     		ldr	r3, [r7, #0]
 212 002a 1A88     		ldrh	r2, [r3, #0]
 213 002c 3B68     		ldr	r3, [r7, #0]
 214 002e 5B88     		ldrh	r3, [r3, #2]
 215 0030 1343     		orrs	r3, r3, r2
 216 0032 9AB2     		uxth	r2, r3
 292:libs/STM32F30x_StdPeriph_Driver/src/stm32f30x_spi.c ****                          (uint16_t)((uint16_t)(SPI_InitStruct->SPI_CPOL | SPI_InitStruct->SPI_CPHA)
 217              		.loc 1 292 0
 218 0034 3B68     		ldr	r3, [r7, #0]
 219 0036 D988     		ldrh	r1, [r3, #6]
 220 0038 3B68     		ldr	r3, [r7, #0]
 221 003a 1B89     		ldrh	r3, [r3, #8]
 222 003c 0B43     		orrs	r3, r3, r1
 223 003e 99B2     		uxth	r1, r3
 293:libs/STM32F30x_StdPeriph_Driver/src/stm32f30x_spi.c ****                          (uint16_t)((uint16_t)(SPI_InitStruct->SPI_NSS | SPI_InitStruct->SPI_BaudRa
 224              		.loc 1 293 0
 225 0040 3B68     		ldr	r3, [r7, #0]
 226 0042 5889     		ldrh	r0, [r3, #10]
 227 0044 3B68     		ldr	r3, [r7, #0]
 228 0046 9B89     		ldrh	r3, [r3, #12]
 229 0048 0343     		orrs	r3, r3, r0
 230 004a 98B2     		uxth	r0, r3
 294:libs/STM32F30x_StdPeriph_Driver/src/stm32f30x_spi.c ****                          SPI_InitStruct->SPI_FirstBit)));
 231              		.loc 1 294 0
 232 004c 3B68     		ldr	r3, [r7, #0]
 233 004e DB89     		ldrh	r3, [r3, #14]
 293:libs/STM32F30x_StdPeriph_Driver/src/stm32f30x_spi.c ****                          (uint16_t)((uint16_t)(SPI_InitStruct->SPI_NSS | SPI_InitStruct->SPI_BaudRa
 234              		.loc 1 293 0
 235 0050 0343     		orrs	r3, r3, r0
 236 0052 9BB2     		uxth	r3, r3
 292:libs/STM32F30x_StdPeriph_Driver/src/stm32f30x_spi.c ****                          (uint16_t)((uint16_t)(SPI_InitStruct->SPI_CPOL | SPI_InitStruct->SPI_CPHA)
 237              		.loc 1 292 0
 238 0054 0B43     		orrs	r3, r3, r1
 239 0056 9BB2     		uxth	r3, r3
 291:libs/STM32F30x_StdPeriph_Driver/src/stm32f30x_spi.c ****     tmpreg |= (uint16_t)((uint16_t)(SPI_InitStruct->SPI_Direction | SPI_InitStruct->SPI_Mode) |
 240              		.loc 1 291 0
 241 0058 1343     		orrs	r3, r3, r2
 242 005a 9AB2     		uxth	r2, r3
 243 005c FB89     		ldrh	r3, [r7, #14]	@ movhi
 244 005e 1343     		orrs	r3, r3, r2
 245 0060 FB81     		strh	r3, [r7, #14]	@ movhi
 295:libs/STM32F30x_StdPeriph_Driver/src/stm32f30x_spi.c ****     /* Write to SPIx CR1 */
 296:libs/STM32F30x_StdPeriph_Driver/src/stm32f30x_spi.c ****     SPIx->CR1 = tmpreg;
 246              		.loc 1 296 0
 247 0062 7B68     		ldr	r3, [r7, #4]
 248 0064 FA89     		ldrh	r2, [r7, #14]	@ movhi
 249 0066 1A80     		strh	r2, [r3, #0]	@ movhi
 297:libs/STM32F30x_StdPeriph_Driver/src/stm32f30x_spi.c ****     /*-------------------------Data Size Configuration -----------------------*/
 298:libs/STM32F30x_StdPeriph_Driver/src/stm32f30x_spi.c ****     /* Get the SPIx CR2 value */
 299:libs/STM32F30x_StdPeriph_Driver/src/stm32f30x_spi.c ****     tmpreg = SPIx->CR2;
 250              		.loc 1 299 0
 251 0068 7B68     		ldr	r3, [r7, #4]
 252 006a 9B88     		ldrh	r3, [r3, #4]	@ movhi
 253 006c FB81     		strh	r3, [r7, #14]	@ movhi
 300:libs/STM32F30x_StdPeriph_Driver/src/stm32f30x_spi.c ****     /* Clear DS[3:0] bits */
 301:libs/STM32F30x_StdPeriph_Driver/src/stm32f30x_spi.c ****     tmpreg &= (uint16_t)~SPI_CR2_DS;
 254              		.loc 1 301 0
 255 006e FB89     		ldrh	r3, [r7, #14]	@ movhi
 256 0070 23F47063 		bic	r3, r3, #3840
 257 0074 FB81     		strh	r3, [r7, #14]	@ movhi
 302:libs/STM32F30x_StdPeriph_Driver/src/stm32f30x_spi.c ****     /* Configure SPIx: Data Size */
 303:libs/STM32F30x_StdPeriph_Driver/src/stm32f30x_spi.c ****     tmpreg |= (uint16_t)(SPI_InitStruct->SPI_DataSize);
 258              		.loc 1 303 0
 259 0076 3B68     		ldr	r3, [r7, #0]
 260 0078 9A88     		ldrh	r2, [r3, #4]
 261 007a FB89     		ldrh	r3, [r7, #14]	@ movhi
 262 007c 1343     		orrs	r3, r3, r2
 263 007e FB81     		strh	r3, [r7, #14]	@ movhi
 304:libs/STM32F30x_StdPeriph_Driver/src/stm32f30x_spi.c ****     /* Write to SPIx CR2 */
 305:libs/STM32F30x_StdPeriph_Driver/src/stm32f30x_spi.c ****     SPIx->CR2 = tmpreg;
 264              		.loc 1 305 0
 265 0080 7B68     		ldr	r3, [r7, #4]
 266 0082 FA89     		ldrh	r2, [r7, #14]	@ movhi
 267 0084 9A80     		strh	r2, [r3, #4]	@ movhi
 268 0086 35E0     		b	.L10
 269              	.L9:
 306:libs/STM32F30x_StdPeriph_Driver/src/stm32f30x_spi.c ****   }
 307:libs/STM32F30x_StdPeriph_Driver/src/stm32f30x_spi.c ****   /* Configuring the SPI in slave mode */
 308:libs/STM32F30x_StdPeriph_Driver/src/stm32f30x_spi.c ****   else
 309:libs/STM32F30x_StdPeriph_Driver/src/stm32f30x_spi.c ****   {
 310:libs/STM32F30x_StdPeriph_Driver/src/stm32f30x_spi.c **** /*---------------------------- Data size Configuration -----------------------*/
 311:libs/STM32F30x_StdPeriph_Driver/src/stm32f30x_spi.c ****     /* Get the SPIx CR2 value */
 312:libs/STM32F30x_StdPeriph_Driver/src/stm32f30x_spi.c ****     tmpreg = SPIx->CR2;
 270              		.loc 1 312 0
 271 0088 7B68     		ldr	r3, [r7, #4]
 272 008a 9B88     		ldrh	r3, [r3, #4]	@ movhi
 273 008c FB81     		strh	r3, [r7, #14]	@ movhi
 313:libs/STM32F30x_StdPeriph_Driver/src/stm32f30x_spi.c ****     /* Clear DS[3:0] bits */
 314:libs/STM32F30x_StdPeriph_Driver/src/stm32f30x_spi.c ****     tmpreg &= (uint16_t)~SPI_CR2_DS;
 274              		.loc 1 314 0
 275 008e FB89     		ldrh	r3, [r7, #14]	@ movhi
 276 0090 23F47063 		bic	r3, r3, #3840
 277 0094 FB81     		strh	r3, [r7, #14]	@ movhi
 315:libs/STM32F30x_StdPeriph_Driver/src/stm32f30x_spi.c ****     /* Configure SPIx: Data Size */
 316:libs/STM32F30x_StdPeriph_Driver/src/stm32f30x_spi.c ****     tmpreg |= (uint16_t)(SPI_InitStruct->SPI_DataSize);
 278              		.loc 1 316 0
 279 0096 3B68     		ldr	r3, [r7, #0]
 280 0098 9A88     		ldrh	r2, [r3, #4]
 281 009a FB89     		ldrh	r3, [r7, #14]	@ movhi
 282 009c 1343     		orrs	r3, r3, r2
 283 009e FB81     		strh	r3, [r7, #14]	@ movhi
 317:libs/STM32F30x_StdPeriph_Driver/src/stm32f30x_spi.c ****     /* Write to SPIx CR2 */
 318:libs/STM32F30x_StdPeriph_Driver/src/stm32f30x_spi.c ****     SPIx->CR2 = tmpreg;
 284              		.loc 1 318 0
 285 00a0 7B68     		ldr	r3, [r7, #4]
 286 00a2 FA89     		ldrh	r2, [r7, #14]	@ movhi
 287 00a4 9A80     		strh	r2, [r3, #4]	@ movhi
 319:libs/STM32F30x_StdPeriph_Driver/src/stm32f30x_spi.c **** /*---------------------------- SPIx CR1 Configuration ------------------------*/
 320:libs/STM32F30x_StdPeriph_Driver/src/stm32f30x_spi.c ****     /* Get the SPIx CR1 value */
 321:libs/STM32F30x_StdPeriph_Driver/src/stm32f30x_spi.c ****     tmpreg = SPIx->CR1;
 288              		.loc 1 321 0
 289 00a6 7B68     		ldr	r3, [r7, #4]
 290 00a8 1B88     		ldrh	r3, [r3, #0]	@ movhi
 291 00aa FB81     		strh	r3, [r7, #14]	@ movhi
 322:libs/STM32F30x_StdPeriph_Driver/src/stm32f30x_spi.c ****     /* Clear BIDIMode, BIDIOE, RxONLY, SSM, SSI, LSBFirst, BR, MSTR, CPOL and CPHA bits */
 323:libs/STM32F30x_StdPeriph_Driver/src/stm32f30x_spi.c ****     tmpreg &= CR1_CLEAR_MASK;
 292              		.loc 1 323 0
 293 00ac FB89     		ldrh	r3, [r7, #14]	@ movhi
 294 00ae 03F44153 		and	r3, r3, #12352
 295 00b2 FB81     		strh	r3, [r7, #14]	@ movhi
 324:libs/STM32F30x_StdPeriph_Driver/src/stm32f30x_spi.c ****     /* Configure SPIx: direction, NSS management, first transmitted bit, BaudRate prescaler
 325:libs/STM32F30x_StdPeriph_Driver/src/stm32f30x_spi.c ****        master/salve mode, CPOL and CPHA */
 326:libs/STM32F30x_StdPeriph_Driver/src/stm32f30x_spi.c ****     /* Set BIDImode, BIDIOE and RxONLY bits according to SPI_Direction value */
 327:libs/STM32F30x_StdPeriph_Driver/src/stm32f30x_spi.c ****     /* Set SSM, SSI and MSTR bits according to SPI_Mode and SPI_NSS values */
 328:libs/STM32F30x_StdPeriph_Driver/src/stm32f30x_spi.c ****     /* Set LSBFirst bit according to SPI_FirstBit value */
 329:libs/STM32F30x_StdPeriph_Driver/src/stm32f30x_spi.c ****     /* Set BR bits according to SPI_BaudRatePrescaler value */
 330:libs/STM32F30x_StdPeriph_Driver/src/stm32f30x_spi.c ****     /* Set CPOL bit according to SPI_CPOL value */
 331:libs/STM32F30x_StdPeriph_Driver/src/stm32f30x_spi.c ****     /* Set CPHA bit according to SPI_CPHA value */
 332:libs/STM32F30x_StdPeriph_Driver/src/stm32f30x_spi.c ****     tmpreg |= (uint16_t)((uint16_t)(SPI_InitStruct->SPI_Direction | SPI_InitStruct->SPI_Mode) | 
 296              		.loc 1 332 0
 297 00b4 3B68     		ldr	r3, [r7, #0]
 298 00b6 1A88     		ldrh	r2, [r3, #0]
 299 00b8 3B68     		ldr	r3, [r7, #0]
 300 00ba 5B88     		ldrh	r3, [r3, #2]
 301 00bc 1343     		orrs	r3, r3, r2
 302 00be 9AB2     		uxth	r2, r3
 333:libs/STM32F30x_StdPeriph_Driver/src/stm32f30x_spi.c ****                          (uint16_t)((uint16_t)(SPI_InitStruct->SPI_CPOL | SPI_InitStruct->SPI_CPHA)
 303              		.loc 1 333 0
 304 00c0 3B68     		ldr	r3, [r7, #0]
 305 00c2 D988     		ldrh	r1, [r3, #6]
 306 00c4 3B68     		ldr	r3, [r7, #0]
 307 00c6 1B89     		ldrh	r3, [r3, #8]
 308 00c8 0B43     		orrs	r3, r3, r1
 309 00ca 99B2     		uxth	r1, r3
 334:libs/STM32F30x_StdPeriph_Driver/src/stm32f30x_spi.c ****                          (uint16_t)((uint16_t)(SPI_InitStruct->SPI_NSS | SPI_InitStruct->SPI_BaudRa
 310              		.loc 1 334 0
 311 00cc 3B68     		ldr	r3, [r7, #0]
 312 00ce 5889     		ldrh	r0, [r3, #10]
 313 00d0 3B68     		ldr	r3, [r7, #0]
 314 00d2 9B89     		ldrh	r3, [r3, #12]
 315 00d4 0343     		orrs	r3, r3, r0
 316 00d6 98B2     		uxth	r0, r3
 335:libs/STM32F30x_StdPeriph_Driver/src/stm32f30x_spi.c ****                          SPI_InitStruct->SPI_FirstBit)));
 317              		.loc 1 335 0
 318 00d8 3B68     		ldr	r3, [r7, #0]
 319 00da DB89     		ldrh	r3, [r3, #14]
 334:libs/STM32F30x_StdPeriph_Driver/src/stm32f30x_spi.c ****                          (uint16_t)((uint16_t)(SPI_InitStruct->SPI_NSS | SPI_InitStruct->SPI_BaudRa
 320              		.loc 1 334 0
 321 00dc 0343     		orrs	r3, r3, r0
 322 00de 9BB2     		uxth	r3, r3
 333:libs/STM32F30x_StdPeriph_Driver/src/stm32f30x_spi.c ****                          (uint16_t)((uint16_t)(SPI_InitStruct->SPI_CPOL | SPI_InitStruct->SPI_CPHA)
 323              		.loc 1 333 0
 324 00e0 0B43     		orrs	r3, r3, r1
 325 00e2 9BB2     		uxth	r3, r3
 332:libs/STM32F30x_StdPeriph_Driver/src/stm32f30x_spi.c ****     tmpreg |= (uint16_t)((uint16_t)(SPI_InitStruct->SPI_Direction | SPI_InitStruct->SPI_Mode) | 
 326              		.loc 1 332 0
 327 00e4 1343     		orrs	r3, r3, r2
 328 00e6 9AB2     		uxth	r2, r3
 329 00e8 FB89     		ldrh	r3, [r7, #14]	@ movhi
 330 00ea 1343     		orrs	r3, r3, r2
 331 00ec FB81     		strh	r3, [r7, #14]	@ movhi
 336:libs/STM32F30x_StdPeriph_Driver/src/stm32f30x_spi.c **** 
 337:libs/STM32F30x_StdPeriph_Driver/src/stm32f30x_spi.c ****     /* Write to SPIx CR1 */
 338:libs/STM32F30x_StdPeriph_Driver/src/stm32f30x_spi.c ****     SPIx->CR1 = tmpreg;
 332              		.loc 1 338 0
 333 00ee 7B68     		ldr	r3, [r7, #4]
 334 00f0 FA89     		ldrh	r2, [r7, #14]	@ movhi
 335 00f2 1A80     		strh	r2, [r3, #0]	@ movhi
 336              	.L10:
 339:libs/STM32F30x_StdPeriph_Driver/src/stm32f30x_spi.c ****   }
 340:libs/STM32F30x_StdPeriph_Driver/src/stm32f30x_spi.c **** 
 341:libs/STM32F30x_StdPeriph_Driver/src/stm32f30x_spi.c ****   /* Activate the SPI mode (Reset I2SMOD bit in I2SCFGR register) */
 342:libs/STM32F30x_StdPeriph_Driver/src/stm32f30x_spi.c ****   SPIx->I2SCFGR &= (uint16_t)~((uint16_t)SPI_I2SCFGR_I2SMOD);
 337              		.loc 1 342 0
 338 00f4 7B68     		ldr	r3, [r7, #4]
 339 00f6 9B8B     		ldrh	r3, [r3, #28]	@ movhi
 340 00f8 9BB2     		uxth	r3, r3
 341 00fa 23F40063 		bic	r3, r3, #2048
 342 00fe 9AB2     		uxth	r2, r3
 343 0100 7B68     		ldr	r3, [r7, #4]
 344 0102 9A83     		strh	r2, [r3, #28]	@ movhi
 343:libs/STM32F30x_StdPeriph_Driver/src/stm32f30x_spi.c **** 
 344:libs/STM32F30x_StdPeriph_Driver/src/stm32f30x_spi.c **** /*---------------------------- SPIx CRCPOLY Configuration --------------------*/
 345:libs/STM32F30x_StdPeriph_Driver/src/stm32f30x_spi.c ****   /* Write to SPIx CRCPOLY */
 346:libs/STM32F30x_StdPeriph_Driver/src/stm32f30x_spi.c ****   SPIx->CRCPR = SPI_InitStruct->SPI_CRCPolynomial;
 345              		.loc 1 346 0
 346 0104 3B68     		ldr	r3, [r7, #0]
 347 0106 1A8A     		ldrh	r2, [r3, #16]
 348 0108 7B68     		ldr	r3, [r7, #4]
 349 010a 1A82     		strh	r2, [r3, #16]	@ movhi
 347:libs/STM32F30x_StdPeriph_Driver/src/stm32f30x_spi.c **** }
 350              		.loc 1 347 0
 351 010c 07F11407 		add	r7, r7, #20
 352 0110 BD46     		mov	sp, r7
 353 0112 80BC     		pop	{r7}
 354 0114 7047     		bx	lr
 355              		.cfi_endproc
 356              	.LFE112:
 358 0116 00BF     		.section	.text.I2S_StructInit,"ax",%progbits
 359              		.align	2
 360              		.global	I2S_StructInit
 361              		.thumb
 362              		.thumb_func
 364              	I2S_StructInit:
 365              	.LFB113:
 348:libs/STM32F30x_StdPeriph_Driver/src/stm32f30x_spi.c **** 
 349:libs/STM32F30x_StdPeriph_Driver/src/stm32f30x_spi.c **** /**
 350:libs/STM32F30x_StdPeriph_Driver/src/stm32f30x_spi.c ****   * @brief  Fills each I2S_InitStruct member with its default value.
 351:libs/STM32F30x_StdPeriph_Driver/src/stm32f30x_spi.c ****   * @param  I2S_InitStruct : pointer to a I2S_InitTypeDef structure which will be initialized.
 352:libs/STM32F30x_StdPeriph_Driver/src/stm32f30x_spi.c ****   * @retval None
 353:libs/STM32F30x_StdPeriph_Driver/src/stm32f30x_spi.c ****   */
 354:libs/STM32F30x_StdPeriph_Driver/src/stm32f30x_spi.c **** void I2S_StructInit(I2S_InitTypeDef* I2S_InitStruct)
 355:libs/STM32F30x_StdPeriph_Driver/src/stm32f30x_spi.c **** {
 366              		.loc 1 355 0
 367              		.cfi_startproc
 368              		@ args = 0, pretend = 0, frame = 8
 369              		@ frame_needed = 1, uses_anonymous_args = 0
 370              		@ link register save eliminated.
 371 0000 80B4     		push	{r7}
 372              	.LCFI9:
 373              		.cfi_def_cfa_offset 4
 374              		.cfi_offset 7, -4
 375 0002 83B0     		sub	sp, sp, #12
 376              	.LCFI10:
 377              		.cfi_def_cfa_offset 16
 378 0004 00AF     		add	r7, sp, #0
 379              	.LCFI11:
 380              		.cfi_def_cfa_register 7
 381 0006 7860     		str	r0, [r7, #4]
 356:libs/STM32F30x_StdPeriph_Driver/src/stm32f30x_spi.c **** /*--------------- Reset I2S init structure parameters values -----------------*/
 357:libs/STM32F30x_StdPeriph_Driver/src/stm32f30x_spi.c ****   /* Initialize the I2S_Mode member */
 358:libs/STM32F30x_StdPeriph_Driver/src/stm32f30x_spi.c ****   I2S_InitStruct->I2S_Mode = I2S_Mode_SlaveTx;
 382              		.loc 1 358 0
 383 0008 7B68     		ldr	r3, [r7, #4]
 384 000a 4FF00002 		mov	r2, #0
 385 000e 1A80     		strh	r2, [r3, #0]	@ movhi
 359:libs/STM32F30x_StdPeriph_Driver/src/stm32f30x_spi.c **** 
 360:libs/STM32F30x_StdPeriph_Driver/src/stm32f30x_spi.c ****   /* Initialize the I2S_Standard member */
 361:libs/STM32F30x_StdPeriph_Driver/src/stm32f30x_spi.c ****   I2S_InitStruct->I2S_Standard = I2S_Standard_Phillips;
 386              		.loc 1 361 0
 387 0010 7B68     		ldr	r3, [r7, #4]
 388 0012 4FF00002 		mov	r2, #0
 389 0016 5A80     		strh	r2, [r3, #2]	@ movhi
 362:libs/STM32F30x_StdPeriph_Driver/src/stm32f30x_spi.c **** 
 363:libs/STM32F30x_StdPeriph_Driver/src/stm32f30x_spi.c ****   /* Initialize the I2S_DataFormat member */
 364:libs/STM32F30x_StdPeriph_Driver/src/stm32f30x_spi.c ****   I2S_InitStruct->I2S_DataFormat = I2S_DataFormat_16b;
 390              		.loc 1 364 0
 391 0018 7B68     		ldr	r3, [r7, #4]
 392 001a 4FF00002 		mov	r2, #0
 393 001e 9A80     		strh	r2, [r3, #4]	@ movhi
 365:libs/STM32F30x_StdPeriph_Driver/src/stm32f30x_spi.c **** 
 366:libs/STM32F30x_StdPeriph_Driver/src/stm32f30x_spi.c ****   /* Initialize the I2S_MCLKOutput member */
 367:libs/STM32F30x_StdPeriph_Driver/src/stm32f30x_spi.c ****   I2S_InitStruct->I2S_MCLKOutput = I2S_MCLKOutput_Disable;
 394              		.loc 1 367 0
 395 0020 7B68     		ldr	r3, [r7, #4]
 396 0022 4FF00002 		mov	r2, #0
 397 0026 DA80     		strh	r2, [r3, #6]	@ movhi
 368:libs/STM32F30x_StdPeriph_Driver/src/stm32f30x_spi.c **** 
 369:libs/STM32F30x_StdPeriph_Driver/src/stm32f30x_spi.c ****   /* Initialize the I2S_AudioFreq member */
 370:libs/STM32F30x_StdPeriph_Driver/src/stm32f30x_spi.c ****   I2S_InitStruct->I2S_AudioFreq = I2S_AudioFreq_Default;
 398              		.loc 1 370 0
 399 0028 7B68     		ldr	r3, [r7, #4]
 400 002a 4FF00202 		mov	r2, #2
 401 002e 9A60     		str	r2, [r3, #8]
 371:libs/STM32F30x_StdPeriph_Driver/src/stm32f30x_spi.c **** 
 372:libs/STM32F30x_StdPeriph_Driver/src/stm32f30x_spi.c ****   /* Initialize the I2S_CPOL member */
 373:libs/STM32F30x_StdPeriph_Driver/src/stm32f30x_spi.c ****   I2S_InitStruct->I2S_CPOL = I2S_CPOL_Low;
 402              		.loc 1 373 0
 403 0030 7B68     		ldr	r3, [r7, #4]
 404 0032 4FF00002 		mov	r2, #0
 405 0036 9A81     		strh	r2, [r3, #12]	@ movhi
 374:libs/STM32F30x_StdPeriph_Driver/src/stm32f30x_spi.c **** }
 406              		.loc 1 374 0
 407 0038 07F10C07 		add	r7, r7, #12
 408 003c BD46     		mov	sp, r7
 409 003e 80BC     		pop	{r7}
 410 0040 7047     		bx	lr
 411              		.cfi_endproc
 412              	.LFE113:
 414 0042 00BF     		.section	.text.I2S_Init,"ax",%progbits
 415              		.align	2
 416              		.global	I2S_Init
 417              		.thumb
 418              		.thumb_func
 420              	I2S_Init:
 421              	.LFB114:
 375:libs/STM32F30x_StdPeriph_Driver/src/stm32f30x_spi.c **** 
 376:libs/STM32F30x_StdPeriph_Driver/src/stm32f30x_spi.c **** /**
 377:libs/STM32F30x_StdPeriph_Driver/src/stm32f30x_spi.c ****   * @brief  Initializes the SPIx peripheral according to the specified 
 378:libs/STM32F30x_StdPeriph_Driver/src/stm32f30x_spi.c ****   *   parameters in the I2S_InitStruct.
 379:libs/STM32F30x_StdPeriph_Driver/src/stm32f30x_spi.c ****   * @param  SPIx:To select the SPIx peripheral, where x can be: 2 or 3 
 380:libs/STM32F30x_StdPeriph_Driver/src/stm32f30x_spi.c ****   *         in I2S mode. 
 381:libs/STM32F30x_StdPeriph_Driver/src/stm32f30x_spi.c ****   * @param  I2S_InitStruct: pointer to an I2S_InitTypeDef structure that
 382:libs/STM32F30x_StdPeriph_Driver/src/stm32f30x_spi.c ****   *   contains the configuration information for the specified SPI peripheral
 383:libs/STM32F30x_StdPeriph_Driver/src/stm32f30x_spi.c ****   *   configured in I2S mode.
 384:libs/STM32F30x_StdPeriph_Driver/src/stm32f30x_spi.c ****   * @note
 385:libs/STM32F30x_StdPeriph_Driver/src/stm32f30x_spi.c ****   *  The function calculates the optimal prescaler needed to obtain the most 
 386:libs/STM32F30x_StdPeriph_Driver/src/stm32f30x_spi.c ****   *  accurate audio frequency (depending on the I2S clock source, the PLL values 
 387:libs/STM32F30x_StdPeriph_Driver/src/stm32f30x_spi.c ****   *  and the product configuration). But in case the prescaler value is greater 
 388:libs/STM32F30x_StdPeriph_Driver/src/stm32f30x_spi.c ****   *  than 511, the default value (0x02) will be configured instead.     
 389:libs/STM32F30x_StdPeriph_Driver/src/stm32f30x_spi.c ****   * @retval None
 390:libs/STM32F30x_StdPeriph_Driver/src/stm32f30x_spi.c ****   */
 391:libs/STM32F30x_StdPeriph_Driver/src/stm32f30x_spi.c **** void I2S_Init(SPI_TypeDef* SPIx, I2S_InitTypeDef* I2S_InitStruct)
 392:libs/STM32F30x_StdPeriph_Driver/src/stm32f30x_spi.c **** {
 422              		.loc 1 392 0
 423              		.cfi_startproc
 424              		@ args = 0, pretend = 0, frame = 88
 425              		@ frame_needed = 1, uses_anonymous_args = 0
 426 0000 80B5     		push	{r7, lr}
 427              	.LCFI12:
 428              		.cfi_def_cfa_offset 8
 429              		.cfi_offset 7, -8
 430              		.cfi_offset 14, -4
 431 0002 96B0     		sub	sp, sp, #88
 432              	.LCFI13:
 433              		.cfi_def_cfa_offset 96
 434 0004 00AF     		add	r7, sp, #0
 435              	.LCFI14:
 436              		.cfi_def_cfa_register 7
 437 0006 7860     		str	r0, [r7, #4]
 438 0008 3960     		str	r1, [r7, #0]
 393:libs/STM32F30x_StdPeriph_Driver/src/stm32f30x_spi.c ****   uint16_t tmpreg = 0, i2sdiv = 2, i2sodd = 0, packetlength = 1;
 439              		.loc 1 393 0
 440 000a 4FF00003 		mov	r3, #0
 441 000e A7F84A30 		strh	r3, [r7, #74]	@ movhi
 442 0012 4FF00203 		mov	r3, #2
 443 0016 A7F85630 		strh	r3, [r7, #86]	@ movhi
 444 001a 4FF00003 		mov	r3, #0
 445 001e A7F85430 		strh	r3, [r7, #84]	@ movhi
 446 0022 4FF00103 		mov	r3, #1
 447 0026 A7F85230 		strh	r3, [r7, #82]	@ movhi
 394:libs/STM32F30x_StdPeriph_Driver/src/stm32f30x_spi.c ****   uint32_t tmp = 0;
 448              		.loc 1 394 0
 449 002a 4FF00003 		mov	r3, #0
 450 002e FB64     		str	r3, [r7, #76]
 395:libs/STM32F30x_StdPeriph_Driver/src/stm32f30x_spi.c ****   RCC_ClocksTypeDef RCC_Clocks;
 396:libs/STM32F30x_StdPeriph_Driver/src/stm32f30x_spi.c ****   uint32_t sourceclock = 0;
 451              		.loc 1 396 0
 452 0030 4FF00003 		mov	r3, #0
 453 0034 7B64     		str	r3, [r7, #68]
 397:libs/STM32F30x_StdPeriph_Driver/src/stm32f30x_spi.c **** 
 398:libs/STM32F30x_StdPeriph_Driver/src/stm32f30x_spi.c ****   /* Check the I2S parameters */
 399:libs/STM32F30x_StdPeriph_Driver/src/stm32f30x_spi.c ****   ////assert_param(IS_SPI_23_PERIPH(SPIx));
 400:libs/STM32F30x_StdPeriph_Driver/src/stm32f30x_spi.c ****   ////assert_param(IS_I2S_MODE(I2S_InitStruct->I2S_Mode));
 401:libs/STM32F30x_StdPeriph_Driver/src/stm32f30x_spi.c ****   ////assert_param(IS_I2S_STANDARD(I2S_InitStruct->I2S_Standard));
 402:libs/STM32F30x_StdPeriph_Driver/src/stm32f30x_spi.c ****   ////assert_param(IS_I2S_DATA_FORMAT(I2S_InitStruct->I2S_DataFormat));
 403:libs/STM32F30x_StdPeriph_Driver/src/stm32f30x_spi.c ****   ////assert_param(IS_I2S_MCLK_OUTPUT(I2S_InitStruct->I2S_MCLKOutput));
 404:libs/STM32F30x_StdPeriph_Driver/src/stm32f30x_spi.c ****   ////assert_param(IS_I2S_AUDIO_FREQ(I2S_InitStruct->I2S_AudioFreq));
 405:libs/STM32F30x_StdPeriph_Driver/src/stm32f30x_spi.c ****   ////assert_param(IS_I2S_CPOL(I2S_InitStruct->I2S_CPOL));  
 406:libs/STM32F30x_StdPeriph_Driver/src/stm32f30x_spi.c **** 
 407:libs/STM32F30x_StdPeriph_Driver/src/stm32f30x_spi.c **** /*----------------------- SPIx I2SCFGR & I2SPR Configuration -----------------*/
 408:libs/STM32F30x_StdPeriph_Driver/src/stm32f30x_spi.c ****   /* Clear I2SMOD, I2SE, I2SCFG, PCMSYNC, I2SSTD, CKPOL, DATLEN and CHLEN bits */
 409:libs/STM32F30x_StdPeriph_Driver/src/stm32f30x_spi.c ****   SPIx->I2SCFGR &= I2SCFGR_CLEAR_MASK; 
 454              		.loc 1 409 0
 455 0036 7B68     		ldr	r3, [r7, #4]
 456 0038 9B8B     		ldrh	r3, [r3, #28]	@ movhi
 457 003a 9BB2     		uxth	r3, r3
 458 003c 23F47B63 		bic	r3, r3, #4016
 459 0040 23F00F03 		bic	r3, r3, #15
 460 0044 9AB2     		uxth	r2, r3
 461 0046 7B68     		ldr	r3, [r7, #4]
 462 0048 9A83     		strh	r2, [r3, #28]	@ movhi
 410:libs/STM32F30x_StdPeriph_Driver/src/stm32f30x_spi.c ****   SPIx->I2SPR = 0x0002;
 463              		.loc 1 410 0
 464 004a 7B68     		ldr	r3, [r7, #4]
 465 004c 4FF00202 		mov	r2, #2
 466 0050 1A84     		strh	r2, [r3, #32]	@ movhi
 411:libs/STM32F30x_StdPeriph_Driver/src/stm32f30x_spi.c **** 
 412:libs/STM32F30x_StdPeriph_Driver/src/stm32f30x_spi.c ****   /* Get the I2SCFGR register value */
 413:libs/STM32F30x_StdPeriph_Driver/src/stm32f30x_spi.c ****   tmpreg = SPIx->I2SCFGR;
 467              		.loc 1 413 0
 468 0052 7B68     		ldr	r3, [r7, #4]
 469 0054 9B8B     		ldrh	r3, [r3, #28]	@ movhi
 470 0056 A7F84A30 		strh	r3, [r7, #74]	@ movhi
 414:libs/STM32F30x_StdPeriph_Driver/src/stm32f30x_spi.c **** 
 415:libs/STM32F30x_StdPeriph_Driver/src/stm32f30x_spi.c ****   /* If the default value has to be written, reinitialize i2sdiv and i2sodd*/
 416:libs/STM32F30x_StdPeriph_Driver/src/stm32f30x_spi.c ****   if(I2S_InitStruct->I2S_AudioFreq == I2S_AudioFreq_Default)
 471              		.loc 1 416 0
 472 005a 3B68     		ldr	r3, [r7, #0]
 473 005c 9B68     		ldr	r3, [r3, #8]
 474 005e 022B     		cmp	r3, #2
 475 0060 08D1     		bne	.L13
 417:libs/STM32F30x_StdPeriph_Driver/src/stm32f30x_spi.c ****   {
 418:libs/STM32F30x_StdPeriph_Driver/src/stm32f30x_spi.c ****     i2sodd = (uint16_t)0;
 476              		.loc 1 418 0
 477 0062 4FF00003 		mov	r3, #0
 478 0066 A7F85430 		strh	r3, [r7, #84]	@ movhi
 419:libs/STM32F30x_StdPeriph_Driver/src/stm32f30x_spi.c ****     i2sdiv = (uint16_t)2;   
 479              		.loc 1 419 0
 480 006a 4FF00203 		mov	r3, #2
 481 006e A7F85630 		strh	r3, [r7, #86]	@ movhi
 482 0072 5EE0     		b	.L14
 483              	.L13:
 420:libs/STM32F30x_StdPeriph_Driver/src/stm32f30x_spi.c ****   }
 421:libs/STM32F30x_StdPeriph_Driver/src/stm32f30x_spi.c ****   /* If the requested audio frequency is not the default, compute the prescaler */
 422:libs/STM32F30x_StdPeriph_Driver/src/stm32f30x_spi.c ****   else
 423:libs/STM32F30x_StdPeriph_Driver/src/stm32f30x_spi.c ****   {
 424:libs/STM32F30x_StdPeriph_Driver/src/stm32f30x_spi.c ****     /* Check the frame length (For the Prescaler computing) */
 425:libs/STM32F30x_StdPeriph_Driver/src/stm32f30x_spi.c ****     if(I2S_InitStruct->I2S_DataFormat == I2S_DataFormat_16b)
 484              		.loc 1 425 0
 485 0074 3B68     		ldr	r3, [r7, #0]
 486 0076 9B88     		ldrh	r3, [r3, #4]
 487 0078 002B     		cmp	r3, #0
 488 007a 04D1     		bne	.L15
 426:libs/STM32F30x_StdPeriph_Driver/src/stm32f30x_spi.c ****     {
 427:libs/STM32F30x_StdPeriph_Driver/src/stm32f30x_spi.c ****       /* Packet length is 16 bits */
 428:libs/STM32F30x_StdPeriph_Driver/src/stm32f30x_spi.c ****       packetlength = 1;
 489              		.loc 1 428 0
 490 007c 4FF00103 		mov	r3, #1
 491 0080 A7F85230 		strh	r3, [r7, #82]	@ movhi
 492 0084 03E0     		b	.L16
 493              	.L15:
 429:libs/STM32F30x_StdPeriph_Driver/src/stm32f30x_spi.c ****     }
 430:libs/STM32F30x_StdPeriph_Driver/src/stm32f30x_spi.c ****     else
 431:libs/STM32F30x_StdPeriph_Driver/src/stm32f30x_spi.c ****     {
 432:libs/STM32F30x_StdPeriph_Driver/src/stm32f30x_spi.c ****       /* Packet length is 32 bits */
 433:libs/STM32F30x_StdPeriph_Driver/src/stm32f30x_spi.c ****       packetlength = 2;
 494              		.loc 1 433 0
 495 0086 4FF00203 		mov	r3, #2
 496 008a A7F85230 		strh	r3, [r7, #82]	@ movhi
 497              	.L16:
 434:libs/STM32F30x_StdPeriph_Driver/src/stm32f30x_spi.c ****     }
 435:libs/STM32F30x_StdPeriph_Driver/src/stm32f30x_spi.c **** 
 436:libs/STM32F30x_StdPeriph_Driver/src/stm32f30x_spi.c ****     /* I2S Clock source is System clock: Get System Clock frequency */
 437:libs/STM32F30x_StdPeriph_Driver/src/stm32f30x_spi.c ****     RCC_GetClocksFreq(&RCC_Clocks);      
 498              		.loc 1 437 0
 499 008e 07F10803 		add	r3, r7, #8
 500 0092 1846     		mov	r0, r3
 501 0094 FFF7FEFF 		bl	RCC_GetClocksFreq
 438:libs/STM32F30x_StdPeriph_Driver/src/stm32f30x_spi.c **** 
 439:libs/STM32F30x_StdPeriph_Driver/src/stm32f30x_spi.c ****     /* Get the source clock value: based on System Clock value */
 440:libs/STM32F30x_StdPeriph_Driver/src/stm32f30x_spi.c ****     sourceclock = RCC_Clocks.SYSCLK_Frequency;    
 502              		.loc 1 440 0
 503 0098 BB68     		ldr	r3, [r7, #8]
 504 009a 7B64     		str	r3, [r7, #68]
 441:libs/STM32F30x_StdPeriph_Driver/src/stm32f30x_spi.c **** 
 442:libs/STM32F30x_StdPeriph_Driver/src/stm32f30x_spi.c ****     /* Compute the Real divider depending on the MCLK output state with a floating point */
 443:libs/STM32F30x_StdPeriph_Driver/src/stm32f30x_spi.c ****     if(I2S_InitStruct->I2S_MCLKOutput == I2S_MCLKOutput_Enable)
 505              		.loc 1 443 0
 506 009c 3B68     		ldr	r3, [r7, #0]
 507 009e DB88     		ldrh	r3, [r3, #6]
 508 00a0 B3F5007F 		cmp	r3, #512
 509 00a4 13D1     		bne	.L17
 444:libs/STM32F30x_StdPeriph_Driver/src/stm32f30x_spi.c ****     {
 445:libs/STM32F30x_StdPeriph_Driver/src/stm32f30x_spi.c ****       /* MCLK output is enabled */
 446:libs/STM32F30x_StdPeriph_Driver/src/stm32f30x_spi.c ****       tmp = (uint16_t)(((((sourceclock / 256) * 10) / I2S_InitStruct->I2S_AudioFreq)) + 5);
 510              		.loc 1 446 0
 511 00a6 7B6C     		ldr	r3, [r7, #68]
 512 00a8 4FEA1322 		lsr	r2, r3, #8
 513 00ac 1346     		mov	r3, r2
 514 00ae 4FEA8303 		lsl	r3, r3, #2
 515 00b2 9B18     		adds	r3, r3, r2
 516 00b4 4FEA4303 		lsl	r3, r3, #1
 517 00b8 1A46     		mov	r2, r3
 518 00ba 3B68     		ldr	r3, [r7, #0]
 519 00bc 9B68     		ldr	r3, [r3, #8]
 520 00be B2FBF3F3 		udiv	r3, r2, r3
 521 00c2 9BB2     		uxth	r3, r3
 522 00c4 03F10503 		add	r3, r3, #5
 523 00c8 9BB2     		uxth	r3, r3
 524 00ca FB64     		str	r3, [r7, #76]
 525 00cc 16E0     		b	.L18
 526              	.L17:
 447:libs/STM32F30x_StdPeriph_Driver/src/stm32f30x_spi.c ****     }
 448:libs/STM32F30x_StdPeriph_Driver/src/stm32f30x_spi.c ****     else
 449:libs/STM32F30x_StdPeriph_Driver/src/stm32f30x_spi.c ****     {
 450:libs/STM32F30x_StdPeriph_Driver/src/stm32f30x_spi.c ****       /* MCLK output is disabled */
 451:libs/STM32F30x_StdPeriph_Driver/src/stm32f30x_spi.c ****       tmp = (uint16_t)(((((sourceclock / (32 * packetlength)) *10 ) / I2S_InitStruct->I2S_AudioFreq
 527              		.loc 1 451 0
 528 00ce B7F85230 		ldrh	r3, [r7, #82]
 529 00d2 4FEA4313 		lsl	r3, r3, #5
 530 00d6 7A6C     		ldr	r2, [r7, #68]
 531 00d8 B2FBF3F2 		udiv	r2, r2, r3
 532 00dc 1346     		mov	r3, r2
 533 00de 4FEA8303 		lsl	r3, r3, #2
 534 00e2 9B18     		adds	r3, r3, r2
 535 00e4 4FEA4303 		lsl	r3, r3, #1
 536 00e8 1A46     		mov	r2, r3
 537 00ea 3B68     		ldr	r3, [r7, #0]
 538 00ec 9B68     		ldr	r3, [r3, #8]
 539 00ee B2FBF3F3 		udiv	r3, r2, r3
 540 00f2 9BB2     		uxth	r3, r3
 541 00f4 03F10503 		add	r3, r3, #5
 542 00f8 9BB2     		uxth	r3, r3
 543 00fa FB64     		str	r3, [r7, #76]
 544              	.L18:
 452:libs/STM32F30x_StdPeriph_Driver/src/stm32f30x_spi.c ****     }
 453:libs/STM32F30x_StdPeriph_Driver/src/stm32f30x_spi.c ****     
 454:libs/STM32F30x_StdPeriph_Driver/src/stm32f30x_spi.c ****     /* Remove the floating point */
 455:libs/STM32F30x_StdPeriph_Driver/src/stm32f30x_spi.c ****     tmp = tmp / 10;
 545              		.loc 1 455 0
 546 00fc FA6C     		ldr	r2, [r7, #76]
 547 00fe 2A4B     		ldr	r3, .L21
 548 0100 A3FB0213 		umull	r1, r3, r3, r2
 549 0104 4FEAD303 		lsr	r3, r3, #3
 550 0108 FB64     		str	r3, [r7, #76]
 456:libs/STM32F30x_StdPeriph_Driver/src/stm32f30x_spi.c **** 
 457:libs/STM32F30x_StdPeriph_Driver/src/stm32f30x_spi.c ****     /* Check the parity of the divider */
 458:libs/STM32F30x_StdPeriph_Driver/src/stm32f30x_spi.c ****     i2sodd = (uint16_t)(tmp & (uint16_t)0x0001);
 551              		.loc 1 458 0
 552 010a FB6C     		ldr	r3, [r7, #76]
 553 010c 9BB2     		uxth	r3, r3
 554 010e 03F00103 		and	r3, r3, #1
 555 0112 A7F85430 		strh	r3, [r7, #84]	@ movhi
 459:libs/STM32F30x_StdPeriph_Driver/src/stm32f30x_spi.c **** 
 460:libs/STM32F30x_StdPeriph_Driver/src/stm32f30x_spi.c ****     /* Compute the i2sdiv prescaler */
 461:libs/STM32F30x_StdPeriph_Driver/src/stm32f30x_spi.c ****     i2sdiv = (uint16_t)((tmp - i2sodd) / 2);
 556              		.loc 1 461 0
 557 0116 B7F85430 		ldrh	r3, [r7, #84]
 558 011a FA6C     		ldr	r2, [r7, #76]
 559 011c D31A     		subs	r3, r2, r3
 560 011e 4FEA5303 		lsr	r3, r3, #1
 561 0122 A7F85630 		strh	r3, [r7, #86]	@ movhi
 462:libs/STM32F30x_StdPeriph_Driver/src/stm32f30x_spi.c **** 
 463:libs/STM32F30x_StdPeriph_Driver/src/stm32f30x_spi.c ****     /* Get the Mask for the Odd bit (SPI_I2SPR[8]) register */
 464:libs/STM32F30x_StdPeriph_Driver/src/stm32f30x_spi.c ****     i2sodd = (uint16_t) (i2sodd << 8);
 562              		.loc 1 464 0
 563 0126 B7F85430 		ldrh	r3, [r7, #84]	@ movhi
 564 012a 4FEA0323 		lsl	r3, r3, #8
 565 012e A7F85430 		strh	r3, [r7, #84]	@ movhi
 566              	.L14:
 465:libs/STM32F30x_StdPeriph_Driver/src/stm32f30x_spi.c ****   }
 466:libs/STM32F30x_StdPeriph_Driver/src/stm32f30x_spi.c **** 
 467:libs/STM32F30x_StdPeriph_Driver/src/stm32f30x_spi.c ****   /* Test if the divider is 1 or 0 or greater than 0xFF */
 468:libs/STM32F30x_StdPeriph_Driver/src/stm32f30x_spi.c ****   if ((i2sdiv < 2) || (i2sdiv > 0xFF))
 567              		.loc 1 468 0
 568 0132 B7F85630 		ldrh	r3, [r7, #86]
 569 0136 012B     		cmp	r3, #1
 570 0138 03D9     		bls	.L19
 571              		.loc 1 468 0 is_stmt 0 discriminator 1
 572 013a B7F85630 		ldrh	r3, [r7, #86]
 573 013e FF2B     		cmp	r3, #255
 574 0140 07D9     		bls	.L20
 575              	.L19:
 469:libs/STM32F30x_StdPeriph_Driver/src/stm32f30x_spi.c ****   {
 470:libs/STM32F30x_StdPeriph_Driver/src/stm32f30x_spi.c ****     /* Set the default values */
 471:libs/STM32F30x_StdPeriph_Driver/src/stm32f30x_spi.c ****     i2sdiv = 2;
 576              		.loc 1 471 0 is_stmt 1
 577 0142 4FF00203 		mov	r3, #2
 578 0146 A7F85630 		strh	r3, [r7, #86]	@ movhi
 472:libs/STM32F30x_StdPeriph_Driver/src/stm32f30x_spi.c ****     i2sodd = 0;
 579              		.loc 1 472 0
 580 014a 4FF00003 		mov	r3, #0
 581 014e A7F85430 		strh	r3, [r7, #84]	@ movhi
 582              	.L20:
 473:libs/STM32F30x_StdPeriph_Driver/src/stm32f30x_spi.c ****   }
 474:libs/STM32F30x_StdPeriph_Driver/src/stm32f30x_spi.c **** 
 475:libs/STM32F30x_StdPeriph_Driver/src/stm32f30x_spi.c ****   /* Write to SPIx I2SPR register the computed value */
 476:libs/STM32F30x_StdPeriph_Driver/src/stm32f30x_spi.c ****   SPIx->I2SPR = (uint16_t)(i2sdiv | (uint16_t)(i2sodd | (uint16_t)I2S_InitStruct->I2S_MCLKOutput));
 583              		.loc 1 476 0
 584 0152 3B68     		ldr	r3, [r7, #0]
 585 0154 DA88     		ldrh	r2, [r3, #6]
 586 0156 B7F85430 		ldrh	r3, [r7, #84]	@ movhi
 587 015a 1343     		orrs	r3, r3, r2
 588 015c 9AB2     		uxth	r2, r3
 589 015e B7F85630 		ldrh	r3, [r7, #86]	@ movhi
 590 0162 1343     		orrs	r3, r3, r2
 591 0164 9AB2     		uxth	r2, r3
 592 0166 7B68     		ldr	r3, [r7, #4]
 593 0168 1A84     		strh	r2, [r3, #32]	@ movhi
 477:libs/STM32F30x_StdPeriph_Driver/src/stm32f30x_spi.c **** 
 478:libs/STM32F30x_StdPeriph_Driver/src/stm32f30x_spi.c ****   /* Configure the I2S with the SPI_InitStruct values */
 479:libs/STM32F30x_StdPeriph_Driver/src/stm32f30x_spi.c ****   tmpreg |= (uint16_t)((uint16_t)(SPI_I2SCFGR_I2SMOD | I2S_InitStruct->I2S_Mode) | \
 594              		.loc 1 479 0
 595 016a 3B68     		ldr	r3, [r7, #0]
 596 016c 1A88     		ldrh	r2, [r3, #0]
 480:libs/STM32F30x_StdPeriph_Driver/src/stm32f30x_spi.c ****                        (uint16_t)((uint16_t)((uint16_t)(I2S_InitStruct->I2S_Standard |I2S_InitStruc
 597              		.loc 1 480 0
 598 016e 3B68     		ldr	r3, [r7, #0]
 599 0170 5988     		ldrh	r1, [r3, #2]
 600 0172 3B68     		ldr	r3, [r7, #0]
 601 0174 9B88     		ldrh	r3, [r3, #4]
 602 0176 0B43     		orrs	r3, r3, r1
 603 0178 99B2     		uxth	r1, r3
 481:libs/STM32F30x_StdPeriph_Driver/src/stm32f30x_spi.c ****                        I2S_InitStruct->I2S_CPOL)));
 604              		.loc 1 481 0
 605 017a 3B68     		ldr	r3, [r7, #0]
 606 017c 9B89     		ldrh	r3, [r3, #12]
 480:libs/STM32F30x_StdPeriph_Driver/src/stm32f30x_spi.c ****                        (uint16_t)((uint16_t)((uint16_t)(I2S_InitStruct->I2S_Standard |I2S_InitStruc
 607              		.loc 1 480 0
 608 017e 0B43     		orrs	r3, r3, r1
 609 0180 9BB2     		uxth	r3, r3
 479:libs/STM32F30x_StdPeriph_Driver/src/stm32f30x_spi.c ****   tmpreg |= (uint16_t)((uint16_t)(SPI_I2SCFGR_I2SMOD | I2S_InitStruct->I2S_Mode) | \
 610              		.loc 1 479 0
 611 0182 1343     		orrs	r3, r3, r2
 612 0184 9AB2     		uxth	r2, r3
 613 0186 B7F84A30 		ldrh	r3, [r7, #74]	@ movhi
 614 018a 1343     		orrs	r3, r3, r2
 615 018c 9BB2     		uxth	r3, r3
 616 018e 43F40063 		orr	r3, r3, #2048
 617 0192 A7F84A30 		strh	r3, [r7, #74]	@ movhi
 482:libs/STM32F30x_StdPeriph_Driver/src/stm32f30x_spi.c **** 
 483:libs/STM32F30x_StdPeriph_Driver/src/stm32f30x_spi.c ****   /* Write to SPIx I2SCFGR */
 484:libs/STM32F30x_StdPeriph_Driver/src/stm32f30x_spi.c ****   SPIx->I2SCFGR = tmpreg;
 618              		.loc 1 484 0
 619 0196 7B68     		ldr	r3, [r7, #4]
 620 0198 B7F84A20 		ldrh	r2, [r7, #74]	@ movhi
 621 019c 9A83     		strh	r2, [r3, #28]	@ movhi
 485:libs/STM32F30x_StdPeriph_Driver/src/stm32f30x_spi.c **** }
 622              		.loc 1 485 0
 623 019e 07F15807 		add	r7, r7, #88
 624 01a2 BD46     		mov	sp, r7
 625 01a4 80BD     		pop	{r7, pc}
 626              	.L22:
 627 01a6 00BF     		.align	2
 628              	.L21:
 629 01a8 CDCCCCCC 		.word	-858993459
 630              		.cfi_endproc
 631              	.LFE114:
 633              		.section	.text.SPI_Cmd,"ax",%progbits
 634              		.align	2
 635              		.global	SPI_Cmd
 636              		.thumb
 637              		.thumb_func
 639              	SPI_Cmd:
 640              	.LFB115:
 486:libs/STM32F30x_StdPeriph_Driver/src/stm32f30x_spi.c **** 
 487:libs/STM32F30x_StdPeriph_Driver/src/stm32f30x_spi.c **** /**
 488:libs/STM32F30x_StdPeriph_Driver/src/stm32f30x_spi.c ****   * @brief  Enables or disables the specified SPI peripheral.
 489:libs/STM32F30x_StdPeriph_Driver/src/stm32f30x_spi.c ****   * @param  SPIx: where x can be 1, 2 or 3 to select the SPI peripheral.
 490:libs/STM32F30x_StdPeriph_Driver/src/stm32f30x_spi.c ****   * @param  NewState: new state of the SPIx peripheral. 
 491:libs/STM32F30x_StdPeriph_Driver/src/stm32f30x_spi.c ****   *         This parameter can be: ENABLE or DISABLE.
 492:libs/STM32F30x_StdPeriph_Driver/src/stm32f30x_spi.c ****   * @retval None
 493:libs/STM32F30x_StdPeriph_Driver/src/stm32f30x_spi.c ****   */
 494:libs/STM32F30x_StdPeriph_Driver/src/stm32f30x_spi.c **** void SPI_Cmd(SPI_TypeDef* SPIx, FunctionalState NewState)
 495:libs/STM32F30x_StdPeriph_Driver/src/stm32f30x_spi.c **** {
 641              		.loc 1 495 0
 642              		.cfi_startproc
 643              		@ args = 0, pretend = 0, frame = 8
 644              		@ frame_needed = 1, uses_anonymous_args = 0
 645              		@ link register save eliminated.
 646 0000 80B4     		push	{r7}
 647              	.LCFI15:
 648              		.cfi_def_cfa_offset 4
 649              		.cfi_offset 7, -4
 650 0002 83B0     		sub	sp, sp, #12
 651              	.LCFI16:
 652              		.cfi_def_cfa_offset 16
 653 0004 00AF     		add	r7, sp, #0
 654              	.LCFI17:
 655              		.cfi_def_cfa_register 7
 656 0006 7860     		str	r0, [r7, #4]
 657 0008 0B46     		mov	r3, r1
 658 000a FB70     		strb	r3, [r7, #3]
 496:libs/STM32F30x_StdPeriph_Driver/src/stm32f30x_spi.c ****   /* Check the parameters */
 497:libs/STM32F30x_StdPeriph_Driver/src/stm32f30x_spi.c ****   ////assert_param(IS_SPI_ALL_PERIPH(SPIx));
 498:libs/STM32F30x_StdPeriph_Driver/src/stm32f30x_spi.c ****   ////assert_param(IS_FUNCTIONAL_STATE(NewState));
 499:libs/STM32F30x_StdPeriph_Driver/src/stm32f30x_spi.c **** 
 500:libs/STM32F30x_StdPeriph_Driver/src/stm32f30x_spi.c ****   if (NewState != DISABLE)
 659              		.loc 1 500 0
 660 000c FB78     		ldrb	r3, [r7, #3]	@ zero_extendqisi2
 661 000e 002B     		cmp	r3, #0
 662 0010 08D0     		beq	.L24
 501:libs/STM32F30x_StdPeriph_Driver/src/stm32f30x_spi.c ****   {
 502:libs/STM32F30x_StdPeriph_Driver/src/stm32f30x_spi.c ****     /* Enable the selected SPI peripheral */
 503:libs/STM32F30x_StdPeriph_Driver/src/stm32f30x_spi.c ****     SPIx->CR1 |= SPI_CR1_SPE;
 663              		.loc 1 503 0
 664 0012 7B68     		ldr	r3, [r7, #4]
 665 0014 1B88     		ldrh	r3, [r3, #0]	@ movhi
 666 0016 9BB2     		uxth	r3, r3
 667 0018 43F04003 		orr	r3, r3, #64
 668 001c 9AB2     		uxth	r2, r3
 669 001e 7B68     		ldr	r3, [r7, #4]
 670 0020 1A80     		strh	r2, [r3, #0]	@ movhi
 671 0022 07E0     		b	.L23
 672              	.L24:
 504:libs/STM32F30x_StdPeriph_Driver/src/stm32f30x_spi.c ****   }
 505:libs/STM32F30x_StdPeriph_Driver/src/stm32f30x_spi.c ****   else
 506:libs/STM32F30x_StdPeriph_Driver/src/stm32f30x_spi.c ****   {
 507:libs/STM32F30x_StdPeriph_Driver/src/stm32f30x_spi.c ****     /* Disable the selected SPI peripheral */
 508:libs/STM32F30x_StdPeriph_Driver/src/stm32f30x_spi.c ****     SPIx->CR1 &= (uint16_t)~((uint16_t)SPI_CR1_SPE);
 673              		.loc 1 508 0
 674 0024 7B68     		ldr	r3, [r7, #4]
 675 0026 1B88     		ldrh	r3, [r3, #0]	@ movhi
 676 0028 9BB2     		uxth	r3, r3
 677 002a 23F04003 		bic	r3, r3, #64
 678 002e 9AB2     		uxth	r2, r3
 679 0030 7B68     		ldr	r3, [r7, #4]
 680 0032 1A80     		strh	r2, [r3, #0]	@ movhi
 681              	.L23:
 509:libs/STM32F30x_StdPeriph_Driver/src/stm32f30x_spi.c ****   }
 510:libs/STM32F30x_StdPeriph_Driver/src/stm32f30x_spi.c **** }
 682              		.loc 1 510 0
 683 0034 07F10C07 		add	r7, r7, #12
 684 0038 BD46     		mov	sp, r7
 685 003a 80BC     		pop	{r7}
 686 003c 7047     		bx	lr
 687              		.cfi_endproc
 688              	.LFE115:
 690 003e 00BF     		.section	.text.SPI_TIModeCmd,"ax",%progbits
 691              		.align	2
 692              		.global	SPI_TIModeCmd
 693              		.thumb
 694              		.thumb_func
 696              	SPI_TIModeCmd:
 697              	.LFB116:
 511:libs/STM32F30x_StdPeriph_Driver/src/stm32f30x_spi.c **** 
 512:libs/STM32F30x_StdPeriph_Driver/src/stm32f30x_spi.c **** /**
 513:libs/STM32F30x_StdPeriph_Driver/src/stm32f30x_spi.c ****   * @brief  Enables or disables the TI Mode.
 514:libs/STM32F30x_StdPeriph_Driver/src/stm32f30x_spi.c ****   * @note    This function can be called only after the SPI_Init() function has 
 515:libs/STM32F30x_StdPeriph_Driver/src/stm32f30x_spi.c ****   *          been called. 
 516:libs/STM32F30x_StdPeriph_Driver/src/stm32f30x_spi.c ****   * @note    When TI mode is selected, the control bits SSM, SSI, CPOL and CPHA 
 517:libs/STM32F30x_StdPeriph_Driver/src/stm32f30x_spi.c ****   *          are not taken into consideration and are configured by hardware 
 518:libs/STM32F30x_StdPeriph_Driver/src/stm32f30x_spi.c ****   *          respectively to the TI mode requirements.  
 519:libs/STM32F30x_StdPeriph_Driver/src/stm32f30x_spi.c ****   * @param  SPIx: where x can be 1, 2 or 3 to select the SPI peripheral.  
 520:libs/STM32F30x_StdPeriph_Driver/src/stm32f30x_spi.c ****   * @param  NewState: new state of the selected SPI TI communication mode.
 521:libs/STM32F30x_StdPeriph_Driver/src/stm32f30x_spi.c ****   *         This parameter can be: ENABLE or DISABLE.
 522:libs/STM32F30x_StdPeriph_Driver/src/stm32f30x_spi.c ****   * @retval None
 523:libs/STM32F30x_StdPeriph_Driver/src/stm32f30x_spi.c ****   */
 524:libs/STM32F30x_StdPeriph_Driver/src/stm32f30x_spi.c **** void SPI_TIModeCmd(SPI_TypeDef* SPIx, FunctionalState NewState)
 525:libs/STM32F30x_StdPeriph_Driver/src/stm32f30x_spi.c **** {
 698              		.loc 1 525 0
 699              		.cfi_startproc
 700              		@ args = 0, pretend = 0, frame = 8
 701              		@ frame_needed = 1, uses_anonymous_args = 0
 702              		@ link register save eliminated.
 703 0000 80B4     		push	{r7}
 704              	.LCFI18:
 705              		.cfi_def_cfa_offset 4
 706              		.cfi_offset 7, -4
 707 0002 83B0     		sub	sp, sp, #12
 708              	.LCFI19:
 709              		.cfi_def_cfa_offset 16
 710 0004 00AF     		add	r7, sp, #0
 711              	.LCFI20:
 712              		.cfi_def_cfa_register 7
 713 0006 7860     		str	r0, [r7, #4]
 714 0008 0B46     		mov	r3, r1
 715 000a FB70     		strb	r3, [r7, #3]
 526:libs/STM32F30x_StdPeriph_Driver/src/stm32f30x_spi.c ****   /* Check the parameters */
 527:libs/STM32F30x_StdPeriph_Driver/src/stm32f30x_spi.c ****   ////assert_param(IS_SPI_ALL_PERIPH(SPIx));
 528:libs/STM32F30x_StdPeriph_Driver/src/stm32f30x_spi.c ****   ////assert_param(IS_FUNCTIONAL_STATE(NewState));
 529:libs/STM32F30x_StdPeriph_Driver/src/stm32f30x_spi.c **** 
 530:libs/STM32F30x_StdPeriph_Driver/src/stm32f30x_spi.c ****   if (NewState != DISABLE)
 716              		.loc 1 530 0
 717 000c FB78     		ldrb	r3, [r7, #3]	@ zero_extendqisi2
 718 000e 002B     		cmp	r3, #0
 719 0010 08D0     		beq	.L27
 531:libs/STM32F30x_StdPeriph_Driver/src/stm32f30x_spi.c ****   {
 532:libs/STM32F30x_StdPeriph_Driver/src/stm32f30x_spi.c ****     /* Enable the TI mode for the selected SPI peripheral */
 533:libs/STM32F30x_StdPeriph_Driver/src/stm32f30x_spi.c ****     SPIx->CR2 |= SPI_CR2_FRF;
 720              		.loc 1 533 0
 721 0012 7B68     		ldr	r3, [r7, #4]
 722 0014 9B88     		ldrh	r3, [r3, #4]	@ movhi
 723 0016 9BB2     		uxth	r3, r3
 724 0018 43F01003 		orr	r3, r3, #16
 725 001c 9AB2     		uxth	r2, r3
 726 001e 7B68     		ldr	r3, [r7, #4]
 727 0020 9A80     		strh	r2, [r3, #4]	@ movhi
 728 0022 07E0     		b	.L26
 729              	.L27:
 534:libs/STM32F30x_StdPeriph_Driver/src/stm32f30x_spi.c ****   }
 535:libs/STM32F30x_StdPeriph_Driver/src/stm32f30x_spi.c ****   else
 536:libs/STM32F30x_StdPeriph_Driver/src/stm32f30x_spi.c ****   {
 537:libs/STM32F30x_StdPeriph_Driver/src/stm32f30x_spi.c ****     /* Disable the TI mode for the selected SPI peripheral */
 538:libs/STM32F30x_StdPeriph_Driver/src/stm32f30x_spi.c ****     SPIx->CR2 &= (uint16_t)~((uint16_t)SPI_CR2_FRF);
 730              		.loc 1 538 0
 731 0024 7B68     		ldr	r3, [r7, #4]
 732 0026 9B88     		ldrh	r3, [r3, #4]	@ movhi
 733 0028 9BB2     		uxth	r3, r3
 734 002a 23F01003 		bic	r3, r3, #16
 735 002e 9AB2     		uxth	r2, r3
 736 0030 7B68     		ldr	r3, [r7, #4]
 737 0032 9A80     		strh	r2, [r3, #4]	@ movhi
 738              	.L26:
 539:libs/STM32F30x_StdPeriph_Driver/src/stm32f30x_spi.c ****   }
 540:libs/STM32F30x_StdPeriph_Driver/src/stm32f30x_spi.c **** }
 739              		.loc 1 540 0
 740 0034 07F10C07 		add	r7, r7, #12
 741 0038 BD46     		mov	sp, r7
 742 003a 80BC     		pop	{r7}
 743 003c 7047     		bx	lr
 744              		.cfi_endproc
 745              	.LFE116:
 747 003e 00BF     		.section	.text.I2S_Cmd,"ax",%progbits
 748              		.align	2
 749              		.global	I2S_Cmd
 750              		.thumb
 751              		.thumb_func
 753              	I2S_Cmd:
 754              	.LFB117:
 541:libs/STM32F30x_StdPeriph_Driver/src/stm32f30x_spi.c **** 
 542:libs/STM32F30x_StdPeriph_Driver/src/stm32f30x_spi.c **** /**
 543:libs/STM32F30x_StdPeriph_Driver/src/stm32f30x_spi.c ****   * @brief  Enables or disables the specified SPI peripheral (in I2S mode).
 544:libs/STM32F30x_StdPeriph_Driver/src/stm32f30x_spi.c ****   * @param  SPIx:To select the SPIx peripheral, where x can be: 2 or 3 in 
 545:libs/STM32F30x_StdPeriph_Driver/src/stm32f30x_spi.c ****   *         I2S mode or I2Sxext for I2S full duplex mode. 
 546:libs/STM32F30x_StdPeriph_Driver/src/stm32f30x_spi.c ****   * @param  NewState: new state of the SPIx peripheral. 
 547:libs/STM32F30x_StdPeriph_Driver/src/stm32f30x_spi.c ****   *   This parameter can be: ENABLE or DISABLE.
 548:libs/STM32F30x_StdPeriph_Driver/src/stm32f30x_spi.c ****   * @retval None
 549:libs/STM32F30x_StdPeriph_Driver/src/stm32f30x_spi.c ****   */
 550:libs/STM32F30x_StdPeriph_Driver/src/stm32f30x_spi.c **** void I2S_Cmd(SPI_TypeDef* SPIx, FunctionalState NewState)
 551:libs/STM32F30x_StdPeriph_Driver/src/stm32f30x_spi.c **** {
 755              		.loc 1 551 0
 756              		.cfi_startproc
 757              		@ args = 0, pretend = 0, frame = 8
 758              		@ frame_needed = 1, uses_anonymous_args = 0
 759              		@ link register save eliminated.
 760 0000 80B4     		push	{r7}
 761              	.LCFI21:
 762              		.cfi_def_cfa_offset 4
 763              		.cfi_offset 7, -4
 764 0002 83B0     		sub	sp, sp, #12
 765              	.LCFI22:
 766              		.cfi_def_cfa_offset 16
 767 0004 00AF     		add	r7, sp, #0
 768              	.LCFI23:
 769              		.cfi_def_cfa_register 7
 770 0006 7860     		str	r0, [r7, #4]
 771 0008 0B46     		mov	r3, r1
 772 000a FB70     		strb	r3, [r7, #3]
 552:libs/STM32F30x_StdPeriph_Driver/src/stm32f30x_spi.c ****   /* Check the parameters */
 553:libs/STM32F30x_StdPeriph_Driver/src/stm32f30x_spi.c ****   ////assert_param(IS_SPI_23_PERIPH_EXT(SPIx));
 554:libs/STM32F30x_StdPeriph_Driver/src/stm32f30x_spi.c ****   ////assert_param(IS_FUNCTIONAL_STATE(NewState));
 555:libs/STM32F30x_StdPeriph_Driver/src/stm32f30x_spi.c ****   if (NewState != DISABLE)
 773              		.loc 1 555 0
 774 000c FB78     		ldrb	r3, [r7, #3]	@ zero_extendqisi2
 775 000e 002B     		cmp	r3, #0
 776 0010 08D0     		beq	.L30
 556:libs/STM32F30x_StdPeriph_Driver/src/stm32f30x_spi.c ****   {
 557:libs/STM32F30x_StdPeriph_Driver/src/stm32f30x_spi.c ****     /* Enable the selected SPI peripheral in I2S mode */
 558:libs/STM32F30x_StdPeriph_Driver/src/stm32f30x_spi.c ****     SPIx->I2SCFGR |= SPI_I2SCFGR_I2SE;
 777              		.loc 1 558 0
 778 0012 7B68     		ldr	r3, [r7, #4]
 779 0014 9B8B     		ldrh	r3, [r3, #28]	@ movhi
 780 0016 9BB2     		uxth	r3, r3
 781 0018 43F48063 		orr	r3, r3, #1024
 782 001c 9AB2     		uxth	r2, r3
 783 001e 7B68     		ldr	r3, [r7, #4]
 784 0020 9A83     		strh	r2, [r3, #28]	@ movhi
 785 0022 07E0     		b	.L29
 786              	.L30:
 559:libs/STM32F30x_StdPeriph_Driver/src/stm32f30x_spi.c ****   }
 560:libs/STM32F30x_StdPeriph_Driver/src/stm32f30x_spi.c ****   else
 561:libs/STM32F30x_StdPeriph_Driver/src/stm32f30x_spi.c ****   {
 562:libs/STM32F30x_StdPeriph_Driver/src/stm32f30x_spi.c ****     /* Disable the selected SPI peripheral in I2S mode */
 563:libs/STM32F30x_StdPeriph_Driver/src/stm32f30x_spi.c ****     SPIx->I2SCFGR &= (uint16_t)~((uint16_t)SPI_I2SCFGR_I2SE);
 787              		.loc 1 563 0
 788 0024 7B68     		ldr	r3, [r7, #4]
 789 0026 9B8B     		ldrh	r3, [r3, #28]	@ movhi
 790 0028 9BB2     		uxth	r3, r3
 791 002a 23F48063 		bic	r3, r3, #1024
 792 002e 9AB2     		uxth	r2, r3
 793 0030 7B68     		ldr	r3, [r7, #4]
 794 0032 9A83     		strh	r2, [r3, #28]	@ movhi
 795              	.L29:
 564:libs/STM32F30x_StdPeriph_Driver/src/stm32f30x_spi.c ****   }
 565:libs/STM32F30x_StdPeriph_Driver/src/stm32f30x_spi.c **** }
 796              		.loc 1 565 0
 797 0034 07F10C07 		add	r7, r7, #12
 798 0038 BD46     		mov	sp, r7
 799 003a 80BC     		pop	{r7}
 800 003c 7047     		bx	lr
 801              		.cfi_endproc
 802              	.LFE117:
 804 003e 00BF     		.section	.text.SPI_DataSizeConfig,"ax",%progbits
 805              		.align	2
 806              		.global	SPI_DataSizeConfig
 807              		.thumb
 808              		.thumb_func
 810              	SPI_DataSizeConfig:
 811              	.LFB118:
 566:libs/STM32F30x_StdPeriph_Driver/src/stm32f30x_spi.c **** 
 567:libs/STM32F30x_StdPeriph_Driver/src/stm32f30x_spi.c **** /**
 568:libs/STM32F30x_StdPeriph_Driver/src/stm32f30x_spi.c ****   * @brief  Configures the data size for the selected SPI.
 569:libs/STM32F30x_StdPeriph_Driver/src/stm32f30x_spi.c ****   * @param  SPIx: where x can be 1, 2 or 3 to select the SPI peripheral. 
 570:libs/STM32F30x_StdPeriph_Driver/src/stm32f30x_spi.c ****   * @param  SPI_DataSize: specifies the SPI data size.
 571:libs/STM32F30x_StdPeriph_Driver/src/stm32f30x_spi.c ****   *   For the SPIx peripheral this parameter can be one of the following values:
 572:libs/STM32F30x_StdPeriph_Driver/src/stm32f30x_spi.c ****   *     @arg SPI_DataSize_4b: Set data size to 4 bits
 573:libs/STM32F30x_StdPeriph_Driver/src/stm32f30x_spi.c ****   *     @arg SPI_DataSize_5b: Set data size to 5 bits
 574:libs/STM32F30x_StdPeriph_Driver/src/stm32f30x_spi.c ****   *     @arg SPI_DataSize_6b: Set data size to 6 bits
 575:libs/STM32F30x_StdPeriph_Driver/src/stm32f30x_spi.c ****   *     @arg SPI_DataSize_7b: Set data size to 7 bits
 576:libs/STM32F30x_StdPeriph_Driver/src/stm32f30x_spi.c ****   *     @arg SPI_DataSize_8b: Set data size to 8 bits
 577:libs/STM32F30x_StdPeriph_Driver/src/stm32f30x_spi.c ****   *     @arg SPI_DataSize_9b: Set data size to 9 bits
 578:libs/STM32F30x_StdPeriph_Driver/src/stm32f30x_spi.c ****   *     @arg SPI_DataSize_10b: Set data size to 10 bits
 579:libs/STM32F30x_StdPeriph_Driver/src/stm32f30x_spi.c ****   *     @arg SPI_DataSize_11b: Set data size to 11 bits
 580:libs/STM32F30x_StdPeriph_Driver/src/stm32f30x_spi.c ****   *     @arg SPI_DataSize_12b: Set data size to 12 bits
 581:libs/STM32F30x_StdPeriph_Driver/src/stm32f30x_spi.c ****   *     @arg SPI_DataSize_13b: Set data size to 13 bits
 582:libs/STM32F30x_StdPeriph_Driver/src/stm32f30x_spi.c ****   *     @arg SPI_DataSize_14b: Set data size to 14 bits
 583:libs/STM32F30x_StdPeriph_Driver/src/stm32f30x_spi.c ****   *     @arg SPI_DataSize_15b: Set data size to 15 bits
 584:libs/STM32F30x_StdPeriph_Driver/src/stm32f30x_spi.c ****   *     @arg SPI_DataSize_16b: Set data size to 16 bits
 585:libs/STM32F30x_StdPeriph_Driver/src/stm32f30x_spi.c ****   * @retval None
 586:libs/STM32F30x_StdPeriph_Driver/src/stm32f30x_spi.c ****   */
 587:libs/STM32F30x_StdPeriph_Driver/src/stm32f30x_spi.c **** void SPI_DataSizeConfig(SPI_TypeDef* SPIx, uint16_t SPI_DataSize)
 588:libs/STM32F30x_StdPeriph_Driver/src/stm32f30x_spi.c **** {
 812              		.loc 1 588 0
 813              		.cfi_startproc
 814              		@ args = 0, pretend = 0, frame = 16
 815              		@ frame_needed = 1, uses_anonymous_args = 0
 816              		@ link register save eliminated.
 817 0000 80B4     		push	{r7}
 818              	.LCFI24:
 819              		.cfi_def_cfa_offset 4
 820              		.cfi_offset 7, -4
 821 0002 85B0     		sub	sp, sp, #20
 822              	.LCFI25:
 823              		.cfi_def_cfa_offset 24
 824 0004 00AF     		add	r7, sp, #0
 825              	.LCFI26:
 826              		.cfi_def_cfa_register 7
 827 0006 7860     		str	r0, [r7, #4]
 828 0008 0B46     		mov	r3, r1
 829 000a 7B80     		strh	r3, [r7, #2]	@ movhi
 589:libs/STM32F30x_StdPeriph_Driver/src/stm32f30x_spi.c ****   uint16_t tmpreg = 0;
 830              		.loc 1 589 0
 831 000c 4FF00003 		mov	r3, #0
 832 0010 FB81     		strh	r3, [r7, #14]	@ movhi
 590:libs/STM32F30x_StdPeriph_Driver/src/stm32f30x_spi.c ****   
 591:libs/STM32F30x_StdPeriph_Driver/src/stm32f30x_spi.c ****   /* Check the parameters */
 592:libs/STM32F30x_StdPeriph_Driver/src/stm32f30x_spi.c ****   ////assert_param(IS_SPI_ALL_PERIPH(SPIx));
 593:libs/STM32F30x_StdPeriph_Driver/src/stm32f30x_spi.c ****   ////assert_param(IS_SPI_DATA_SIZE(SPI_DataSize));
 594:libs/STM32F30x_StdPeriph_Driver/src/stm32f30x_spi.c ****   /* Read the CR2 register */
 595:libs/STM32F30x_StdPeriph_Driver/src/stm32f30x_spi.c ****   tmpreg = SPIx->CR2;
 833              		.loc 1 595 0
 834 0012 7B68     		ldr	r3, [r7, #4]
 835 0014 9B88     		ldrh	r3, [r3, #4]	@ movhi
 836 0016 FB81     		strh	r3, [r7, #14]	@ movhi
 596:libs/STM32F30x_StdPeriph_Driver/src/stm32f30x_spi.c ****   /* Clear DS[3:0] bits */
 597:libs/STM32F30x_StdPeriph_Driver/src/stm32f30x_spi.c ****   tmpreg &= (uint16_t)~SPI_CR2_DS;
 837              		.loc 1 597 0
 838 0018 FB89     		ldrh	r3, [r7, #14]	@ movhi
 839 001a 23F47063 		bic	r3, r3, #3840
 840 001e FB81     		strh	r3, [r7, #14]	@ movhi
 598:libs/STM32F30x_StdPeriph_Driver/src/stm32f30x_spi.c ****   /* Set new DS[3:0] bits value */
 599:libs/STM32F30x_StdPeriph_Driver/src/stm32f30x_spi.c ****   tmpreg |= SPI_DataSize;
 841              		.loc 1 599 0
 842 0020 FA89     		ldrh	r2, [r7, #14]	@ movhi
 843 0022 7B88     		ldrh	r3, [r7, #2]	@ movhi
 844 0024 1343     		orrs	r3, r3, r2
 845 0026 FB81     		strh	r3, [r7, #14]	@ movhi
 600:libs/STM32F30x_StdPeriph_Driver/src/stm32f30x_spi.c ****   SPIx->CR2 = tmpreg;
 846              		.loc 1 600 0
 847 0028 7B68     		ldr	r3, [r7, #4]
 848 002a FA89     		ldrh	r2, [r7, #14]	@ movhi
 849 002c 9A80     		strh	r2, [r3, #4]	@ movhi
 601:libs/STM32F30x_StdPeriph_Driver/src/stm32f30x_spi.c **** }
 850              		.loc 1 601 0
 851 002e 07F11407 		add	r7, r7, #20
 852 0032 BD46     		mov	sp, r7
 853 0034 80BC     		pop	{r7}
 854 0036 7047     		bx	lr
 855              		.cfi_endproc
 856              	.LFE118:
 858              		.section	.text.SPI_RxFIFOThresholdConfig,"ax",%progbits
 859              		.align	2
 860              		.global	SPI_RxFIFOThresholdConfig
 861              		.thumb
 862              		.thumb_func
 864              	SPI_RxFIFOThresholdConfig:
 865              	.LFB119:
 602:libs/STM32F30x_StdPeriph_Driver/src/stm32f30x_spi.c **** 
 603:libs/STM32F30x_StdPeriph_Driver/src/stm32f30x_spi.c **** /**
 604:libs/STM32F30x_StdPeriph_Driver/src/stm32f30x_spi.c ****   * @brief  Configures the FIFO reception threshold for the selected SPI.
 605:libs/STM32F30x_StdPeriph_Driver/src/stm32f30x_spi.c ****   * @param  SPIx: where x can be 1, 2 or 3 to select the SPI peripheral. 
 606:libs/STM32F30x_StdPeriph_Driver/src/stm32f30x_spi.c ****   * @param  SPI_RxFIFOThreshold: specifies the FIFO reception threshold.
 607:libs/STM32F30x_StdPeriph_Driver/src/stm32f30x_spi.c ****   *   This parameter can be one of the following values:
 608:libs/STM32F30x_StdPeriph_Driver/src/stm32f30x_spi.c ****   *     @arg SPI_RxFIFOThreshold_HF: RXNE event is generated if the FIFO 
 609:libs/STM32F30x_StdPeriph_Driver/src/stm32f30x_spi.c ****   *          level is greater or equal to 1/2. 
 610:libs/STM32F30x_StdPeriph_Driver/src/stm32f30x_spi.c ****   *     @arg SPI_RxFIFOThreshold_QF: RXNE event is generated if the FIFO 
 611:libs/STM32F30x_StdPeriph_Driver/src/stm32f30x_spi.c ****   *          level is greater or equal to 1/4. 
 612:libs/STM32F30x_StdPeriph_Driver/src/stm32f30x_spi.c ****   * @retval None
 613:libs/STM32F30x_StdPeriph_Driver/src/stm32f30x_spi.c ****   */
 614:libs/STM32F30x_StdPeriph_Driver/src/stm32f30x_spi.c **** void SPI_RxFIFOThresholdConfig(SPI_TypeDef* SPIx, uint16_t SPI_RxFIFOThreshold)
 615:libs/STM32F30x_StdPeriph_Driver/src/stm32f30x_spi.c **** {
 866              		.loc 1 615 0
 867              		.cfi_startproc
 868              		@ args = 0, pretend = 0, frame = 8
 869              		@ frame_needed = 1, uses_anonymous_args = 0
 870              		@ link register save eliminated.
 871 0000 80B4     		push	{r7}
 872              	.LCFI27:
 873              		.cfi_def_cfa_offset 4
 874              		.cfi_offset 7, -4
 875 0002 83B0     		sub	sp, sp, #12
 876              	.LCFI28:
 877              		.cfi_def_cfa_offset 16
 878 0004 00AF     		add	r7, sp, #0
 879              	.LCFI29:
 880              		.cfi_def_cfa_register 7
 881 0006 7860     		str	r0, [r7, #4]
 882 0008 0B46     		mov	r3, r1
 883 000a 7B80     		strh	r3, [r7, #2]	@ movhi
 616:libs/STM32F30x_StdPeriph_Driver/src/stm32f30x_spi.c ****   /* Check the parameters */
 617:libs/STM32F30x_StdPeriph_Driver/src/stm32f30x_spi.c ****   ////assert_param(IS_SPI_ALL_PERIPH(SPIx));
 618:libs/STM32F30x_StdPeriph_Driver/src/stm32f30x_spi.c ****   ////assert_param(IS_SPI_RX_FIFO_THRESHOLD(SPI_RxFIFOThreshold));
 619:libs/STM32F30x_StdPeriph_Driver/src/stm32f30x_spi.c **** 
 620:libs/STM32F30x_StdPeriph_Driver/src/stm32f30x_spi.c ****   /* Clear FRXTH bit */
 621:libs/STM32F30x_StdPeriph_Driver/src/stm32f30x_spi.c ****   SPIx->CR2 &= (uint16_t)~((uint16_t)SPI_CR2_FRXTH);
 884              		.loc 1 621 0
 885 000c 7B68     		ldr	r3, [r7, #4]
 886 000e 9B88     		ldrh	r3, [r3, #4]	@ movhi
 887 0010 9BB2     		uxth	r3, r3
 888 0012 23F48053 		bic	r3, r3, #4096
 889 0016 9AB2     		uxth	r2, r3
 890 0018 7B68     		ldr	r3, [r7, #4]
 891 001a 9A80     		strh	r2, [r3, #4]	@ movhi
 622:libs/STM32F30x_StdPeriph_Driver/src/stm32f30x_spi.c **** 
 623:libs/STM32F30x_StdPeriph_Driver/src/stm32f30x_spi.c ****   /* Set new FRXTH bit value */
 624:libs/STM32F30x_StdPeriph_Driver/src/stm32f30x_spi.c ****   SPIx->CR2 |= SPI_RxFIFOThreshold;
 892              		.loc 1 624 0
 893 001c 7B68     		ldr	r3, [r7, #4]
 894 001e 9B88     		ldrh	r3, [r3, #4]	@ movhi
 895 0020 9AB2     		uxth	r2, r3
 896 0022 7B88     		ldrh	r3, [r7, #2]	@ movhi
 897 0024 1343     		orrs	r3, r3, r2
 898 0026 9AB2     		uxth	r2, r3
 899 0028 7B68     		ldr	r3, [r7, #4]
 900 002a 9A80     		strh	r2, [r3, #4]	@ movhi
 625:libs/STM32F30x_StdPeriph_Driver/src/stm32f30x_spi.c **** }
 901              		.loc 1 625 0
 902 002c 07F10C07 		add	r7, r7, #12
 903 0030 BD46     		mov	sp, r7
 904 0032 80BC     		pop	{r7}
 905 0034 7047     		bx	lr
 906              		.cfi_endproc
 907              	.LFE119:
 909 0036 00BF     		.section	.text.SPI_BiDirectionalLineConfig,"ax",%progbits
 910              		.align	2
 911              		.global	SPI_BiDirectionalLineConfig
 912              		.thumb
 913              		.thumb_func
 915              	SPI_BiDirectionalLineConfig:
 916              	.LFB120:
 626:libs/STM32F30x_StdPeriph_Driver/src/stm32f30x_spi.c **** 
 627:libs/STM32F30x_StdPeriph_Driver/src/stm32f30x_spi.c **** /**
 628:libs/STM32F30x_StdPeriph_Driver/src/stm32f30x_spi.c ****   * @brief  Selects the data transfer direction in bidirectional mode for the specified SPI.
 629:libs/STM32F30x_StdPeriph_Driver/src/stm32f30x_spi.c ****   * @param  SPIx: where x can be 1, 2 or 3 to select the SPI peripheral. 
 630:libs/STM32F30x_StdPeriph_Driver/src/stm32f30x_spi.c ****   * @param  SPI_Direction: specifies the data transfer direction in bidirectional mode. 
 631:libs/STM32F30x_StdPeriph_Driver/src/stm32f30x_spi.c ****   *   This parameter can be one of the following values:
 632:libs/STM32F30x_StdPeriph_Driver/src/stm32f30x_spi.c ****   *     @arg SPI_Direction_Tx: Selects Tx transmission direction
 633:libs/STM32F30x_StdPeriph_Driver/src/stm32f30x_spi.c ****   *     @arg SPI_Direction_Rx: Selects Rx receive direction
 634:libs/STM32F30x_StdPeriph_Driver/src/stm32f30x_spi.c ****   * @retval None
 635:libs/STM32F30x_StdPeriph_Driver/src/stm32f30x_spi.c ****   */
 636:libs/STM32F30x_StdPeriph_Driver/src/stm32f30x_spi.c **** void SPI_BiDirectionalLineConfig(SPI_TypeDef* SPIx, uint16_t SPI_Direction)
 637:libs/STM32F30x_StdPeriph_Driver/src/stm32f30x_spi.c **** {
 917              		.loc 1 637 0
 918              		.cfi_startproc
 919              		@ args = 0, pretend = 0, frame = 8
 920              		@ frame_needed = 1, uses_anonymous_args = 0
 921              		@ link register save eliminated.
 922 0000 80B4     		push	{r7}
 923              	.LCFI30:
 924              		.cfi_def_cfa_offset 4
 925              		.cfi_offset 7, -4
 926 0002 83B0     		sub	sp, sp, #12
 927              	.LCFI31:
 928              		.cfi_def_cfa_offset 16
 929 0004 00AF     		add	r7, sp, #0
 930              	.LCFI32:
 931              		.cfi_def_cfa_register 7
 932 0006 7860     		str	r0, [r7, #4]
 933 0008 0B46     		mov	r3, r1
 934 000a 7B80     		strh	r3, [r7, #2]	@ movhi
 638:libs/STM32F30x_StdPeriph_Driver/src/stm32f30x_spi.c ****   /* Check the parameters */
 639:libs/STM32F30x_StdPeriph_Driver/src/stm32f30x_spi.c ****   ////assert_param(IS_SPI_ALL_PERIPH(SPIx));
 640:libs/STM32F30x_StdPeriph_Driver/src/stm32f30x_spi.c ****   ////assert_param(IS_SPI_DIRECTION(SPI_Direction));
 641:libs/STM32F30x_StdPeriph_Driver/src/stm32f30x_spi.c ****   if (SPI_Direction == SPI_Direction_Tx)
 935              		.loc 1 641 0
 936 000c 7B88     		ldrh	r3, [r7, #2]
 937 000e B3F5804F 		cmp	r3, #16384
 938 0012 08D1     		bne	.L35
 642:libs/STM32F30x_StdPeriph_Driver/src/stm32f30x_spi.c ****   {
 643:libs/STM32F30x_StdPeriph_Driver/src/stm32f30x_spi.c ****     /* Set the Tx only mode */
 644:libs/STM32F30x_StdPeriph_Driver/src/stm32f30x_spi.c ****     SPIx->CR1 |= SPI_Direction_Tx;
 939              		.loc 1 644 0
 940 0014 7B68     		ldr	r3, [r7, #4]
 941 0016 1B88     		ldrh	r3, [r3, #0]	@ movhi
 942 0018 9BB2     		uxth	r3, r3
 943 001a 43F48043 		orr	r3, r3, #16384
 944 001e 9AB2     		uxth	r2, r3
 945 0020 7B68     		ldr	r3, [r7, #4]
 946 0022 1A80     		strh	r2, [r3, #0]	@ movhi
 947 0024 07E0     		b	.L34
 948              	.L35:
 645:libs/STM32F30x_StdPeriph_Driver/src/stm32f30x_spi.c ****   }
 646:libs/STM32F30x_StdPeriph_Driver/src/stm32f30x_spi.c ****   else
 647:libs/STM32F30x_StdPeriph_Driver/src/stm32f30x_spi.c ****   {
 648:libs/STM32F30x_StdPeriph_Driver/src/stm32f30x_spi.c ****     /* Set the Rx only mode */
 649:libs/STM32F30x_StdPeriph_Driver/src/stm32f30x_spi.c ****     SPIx->CR1 &= SPI_Direction_Rx;
 949              		.loc 1 649 0
 950 0026 7B68     		ldr	r3, [r7, #4]
 951 0028 1B88     		ldrh	r3, [r3, #0]	@ movhi
 952 002a 9BB2     		uxth	r3, r3
 953 002c 23F48043 		bic	r3, r3, #16384
 954 0030 9AB2     		uxth	r2, r3
 955 0032 7B68     		ldr	r3, [r7, #4]
 956 0034 1A80     		strh	r2, [r3, #0]	@ movhi
 957              	.L34:
 650:libs/STM32F30x_StdPeriph_Driver/src/stm32f30x_spi.c ****   }
 651:libs/STM32F30x_StdPeriph_Driver/src/stm32f30x_spi.c **** }
 958              		.loc 1 651 0
 959 0036 07F10C07 		add	r7, r7, #12
 960 003a BD46     		mov	sp, r7
 961 003c 80BC     		pop	{r7}
 962 003e 7047     		bx	lr
 963              		.cfi_endproc
 964              	.LFE120:
 966              		.section	.text.SPI_NSSInternalSoftwareConfig,"ax",%progbits
 967              		.align	2
 968              		.global	SPI_NSSInternalSoftwareConfig
 969              		.thumb
 970              		.thumb_func
 972              	SPI_NSSInternalSoftwareConfig:
 973              	.LFB121:
 652:libs/STM32F30x_StdPeriph_Driver/src/stm32f30x_spi.c **** 
 653:libs/STM32F30x_StdPeriph_Driver/src/stm32f30x_spi.c **** /**
 654:libs/STM32F30x_StdPeriph_Driver/src/stm32f30x_spi.c ****   * @brief  Configures internally by software the NSS pin for the selected SPI.
 655:libs/STM32F30x_StdPeriph_Driver/src/stm32f30x_spi.c ****   * @note    This function can be called only after the SPI_Init() function has 
 656:libs/STM32F30x_StdPeriph_Driver/src/stm32f30x_spi.c ****   *          been called.  
 657:libs/STM32F30x_StdPeriph_Driver/src/stm32f30x_spi.c ****   * @param  SPIx: where x can be 1, 2 or 3 to select the SPI peripheral.
 658:libs/STM32F30x_StdPeriph_Driver/src/stm32f30x_spi.c ****   * @param  SPI_NSSInternalSoft: specifies the SPI NSS internal state.
 659:libs/STM32F30x_StdPeriph_Driver/src/stm32f30x_spi.c ****   *   This parameter can be one of the following values:
 660:libs/STM32F30x_StdPeriph_Driver/src/stm32f30x_spi.c ****   *     @arg SPI_NSSInternalSoft_Set: Set NSS pin internally
 661:libs/STM32F30x_StdPeriph_Driver/src/stm32f30x_spi.c ****   *     @arg SPI_NSSInternalSoft_Reset: Reset NSS pin internally
 662:libs/STM32F30x_StdPeriph_Driver/src/stm32f30x_spi.c ****   * @retval None
 663:libs/STM32F30x_StdPeriph_Driver/src/stm32f30x_spi.c ****   */
 664:libs/STM32F30x_StdPeriph_Driver/src/stm32f30x_spi.c **** void SPI_NSSInternalSoftwareConfig(SPI_TypeDef* SPIx, uint16_t SPI_NSSInternalSoft)
 665:libs/STM32F30x_StdPeriph_Driver/src/stm32f30x_spi.c **** {
 974              		.loc 1 665 0
 975              		.cfi_startproc
 976              		@ args = 0, pretend = 0, frame = 8
 977              		@ frame_needed = 1, uses_anonymous_args = 0
 978              		@ link register save eliminated.
 979 0000 80B4     		push	{r7}
 980              	.LCFI33:
 981              		.cfi_def_cfa_offset 4
 982              		.cfi_offset 7, -4
 983 0002 83B0     		sub	sp, sp, #12
 984              	.LCFI34:
 985              		.cfi_def_cfa_offset 16
 986 0004 00AF     		add	r7, sp, #0
 987              	.LCFI35:
 988              		.cfi_def_cfa_register 7
 989 0006 7860     		str	r0, [r7, #4]
 990 0008 0B46     		mov	r3, r1
 991 000a 7B80     		strh	r3, [r7, #2]	@ movhi
 666:libs/STM32F30x_StdPeriph_Driver/src/stm32f30x_spi.c ****   /* Check the parameters */
 667:libs/STM32F30x_StdPeriph_Driver/src/stm32f30x_spi.c ****   ////assert_param(IS_SPI_ALL_PERIPH(SPIx));
 668:libs/STM32F30x_StdPeriph_Driver/src/stm32f30x_spi.c ****   ////assert_param(IS_SPI_NSS_INTERNAL(SPI_NSSInternalSoft));
 669:libs/STM32F30x_StdPeriph_Driver/src/stm32f30x_spi.c **** 
 670:libs/STM32F30x_StdPeriph_Driver/src/stm32f30x_spi.c ****   if (SPI_NSSInternalSoft != SPI_NSSInternalSoft_Reset)
 992              		.loc 1 670 0
 993 000c 7A88     		ldrh	r2, [r7, #2]
 994 000e 4FF6FF63 		movw	r3, #65279
 995 0012 9A42     		cmp	r2, r3
 996 0014 08D0     		beq	.L38
 671:libs/STM32F30x_StdPeriph_Driver/src/stm32f30x_spi.c ****   {
 672:libs/STM32F30x_StdPeriph_Driver/src/stm32f30x_spi.c ****     /* Set NSS pin internally by software */
 673:libs/STM32F30x_StdPeriph_Driver/src/stm32f30x_spi.c ****     SPIx->CR1 |= SPI_NSSInternalSoft_Set;
 997              		.loc 1 673 0
 998 0016 7B68     		ldr	r3, [r7, #4]
 999 0018 1B88     		ldrh	r3, [r3, #0]	@ movhi
 1000 001a 9BB2     		uxth	r3, r3
 1001 001c 43F48073 		orr	r3, r3, #256
 1002 0020 9AB2     		uxth	r2, r3
 1003 0022 7B68     		ldr	r3, [r7, #4]
 1004 0024 1A80     		strh	r2, [r3, #0]	@ movhi
 1005 0026 07E0     		b	.L37
 1006              	.L38:
 674:libs/STM32F30x_StdPeriph_Driver/src/stm32f30x_spi.c ****   }
 675:libs/STM32F30x_StdPeriph_Driver/src/stm32f30x_spi.c ****   else
 676:libs/STM32F30x_StdPeriph_Driver/src/stm32f30x_spi.c ****   {
 677:libs/STM32F30x_StdPeriph_Driver/src/stm32f30x_spi.c ****     /* Reset NSS pin internally by software */
 678:libs/STM32F30x_StdPeriph_Driver/src/stm32f30x_spi.c ****     SPIx->CR1 &= SPI_NSSInternalSoft_Reset;
 1007              		.loc 1 678 0
 1008 0028 7B68     		ldr	r3, [r7, #4]
 1009 002a 1B88     		ldrh	r3, [r3, #0]	@ movhi
 1010 002c 9BB2     		uxth	r3, r3
 1011 002e 23F48073 		bic	r3, r3, #256
 1012 0032 9AB2     		uxth	r2, r3
 1013 0034 7B68     		ldr	r3, [r7, #4]
 1014 0036 1A80     		strh	r2, [r3, #0]	@ movhi
 1015              	.L37:
 679:libs/STM32F30x_StdPeriph_Driver/src/stm32f30x_spi.c ****   }
 680:libs/STM32F30x_StdPeriph_Driver/src/stm32f30x_spi.c **** }
 1016              		.loc 1 680 0
 1017 0038 07F10C07 		add	r7, r7, #12
 1018 003c BD46     		mov	sp, r7
 1019 003e 80BC     		pop	{r7}
 1020 0040 7047     		bx	lr
 1021              		.cfi_endproc
 1022              	.LFE121:
 1024 0042 00BF     		.section	.text.I2S_FullDuplexConfig,"ax",%progbits
 1025              		.align	2
 1026              		.global	I2S_FullDuplexConfig
 1027              		.thumb
 1028              		.thumb_func
 1030              	I2S_FullDuplexConfig:
 1031              	.LFB122:
 681:libs/STM32F30x_StdPeriph_Driver/src/stm32f30x_spi.c **** 
 682:libs/STM32F30x_StdPeriph_Driver/src/stm32f30x_spi.c **** /**
 683:libs/STM32F30x_StdPeriph_Driver/src/stm32f30x_spi.c ****   * @brief  Configures the full duplex mode for the I2Sx peripheral using its
 684:libs/STM32F30x_StdPeriph_Driver/src/stm32f30x_spi.c ****   *         extension I2Sxext according to the specified parameters in the 
 685:libs/STM32F30x_StdPeriph_Driver/src/stm32f30x_spi.c ****   *         I2S_InitStruct.
 686:libs/STM32F30x_StdPeriph_Driver/src/stm32f30x_spi.c ****   * @param  I2Sxext: where x can be  2 or 3 to select the I2S peripheral extension block.
 687:libs/STM32F30x_StdPeriph_Driver/src/stm32f30x_spi.c ****   * @param  I2S_InitStruct: pointer to an I2S_InitTypeDef structure that
 688:libs/STM32F30x_StdPeriph_Driver/src/stm32f30x_spi.c ****   *         contains the configuration information for the specified I2S peripheral
 689:libs/STM32F30x_StdPeriph_Driver/src/stm32f30x_spi.c ****   *         extension.
 690:libs/STM32F30x_StdPeriph_Driver/src/stm32f30x_spi.c ****   * 
 691:libs/STM32F30x_StdPeriph_Driver/src/stm32f30x_spi.c ****   * @note   The structure pointed by I2S_InitStruct parameter should be the same
 692:libs/STM32F30x_StdPeriph_Driver/src/stm32f30x_spi.c ****   *         used for the master I2S peripheral. In this case, if the master is 
 693:libs/STM32F30x_StdPeriph_Driver/src/stm32f30x_spi.c ****   *         configured as transmitter, the slave will be receiver and vice versa.
 694:libs/STM32F30x_StdPeriph_Driver/src/stm32f30x_spi.c ****   *         Or you can force a different mode by modifying the field I2S_Mode to the
 695:libs/STM32F30x_StdPeriph_Driver/src/stm32f30x_spi.c ****   *         value I2S_SlaveRx or I2S_SlaveTx indepedently of the master configuration.    
 696:libs/STM32F30x_StdPeriph_Driver/src/stm32f30x_spi.c ****   *         
 697:libs/STM32F30x_StdPeriph_Driver/src/stm32f30x_spi.c ****   * @note   The I2S full duplex extension can be configured in slave mode only.    
 698:libs/STM32F30x_StdPeriph_Driver/src/stm32f30x_spi.c ****   *  
 699:libs/STM32F30x_StdPeriph_Driver/src/stm32f30x_spi.c ****   * @retval None
 700:libs/STM32F30x_StdPeriph_Driver/src/stm32f30x_spi.c ****   */
 701:libs/STM32F30x_StdPeriph_Driver/src/stm32f30x_spi.c **** void I2S_FullDuplexConfig(SPI_TypeDef* I2Sxext, I2S_InitTypeDef* I2S_InitStruct)
 702:libs/STM32F30x_StdPeriph_Driver/src/stm32f30x_spi.c **** {
 1032              		.loc 1 702 0
 1033              		.cfi_startproc
 1034              		@ args = 0, pretend = 0, frame = 16
 1035              		@ frame_needed = 1, uses_anonymous_args = 0
 1036              		@ link register save eliminated.
 1037 0000 80B4     		push	{r7}
 1038              	.LCFI36:
 1039              		.cfi_def_cfa_offset 4
 1040              		.cfi_offset 7, -4
 1041 0002 85B0     		sub	sp, sp, #20
 1042              	.LCFI37:
 1043              		.cfi_def_cfa_offset 24
 1044 0004 00AF     		add	r7, sp, #0
 1045              	.LCFI38:
 1046              		.cfi_def_cfa_register 7
 1047 0006 7860     		str	r0, [r7, #4]
 1048 0008 3960     		str	r1, [r7, #0]
 703:libs/STM32F30x_StdPeriph_Driver/src/stm32f30x_spi.c ****   uint16_t tmpreg = 0, tmp = 0;
 1049              		.loc 1 703 0
 1050 000a 4FF00003 		mov	r3, #0
 1051 000e BB81     		strh	r3, [r7, #12]	@ movhi
 1052 0010 4FF00003 		mov	r3, #0
 1053 0014 FB81     		strh	r3, [r7, #14]	@ movhi
 704:libs/STM32F30x_StdPeriph_Driver/src/stm32f30x_spi.c ****   
 705:libs/STM32F30x_StdPeriph_Driver/src/stm32f30x_spi.c ****   /* Check the I2S parameters */
 706:libs/STM32F30x_StdPeriph_Driver/src/stm32f30x_spi.c ****   ////assert_param(IS_I2S_EXT_PERIPH(I2Sxext));
 707:libs/STM32F30x_StdPeriph_Driver/src/stm32f30x_spi.c ****   ////assert_param(IS_I2S_MODE(I2S_InitStruct->I2S_Mode));
 708:libs/STM32F30x_StdPeriph_Driver/src/stm32f30x_spi.c ****   ////assert_param(IS_I2S_STANDARD(I2S_InitStruct->I2S_Standard));
 709:libs/STM32F30x_StdPeriph_Driver/src/stm32f30x_spi.c ****   ////assert_param(IS_I2S_DATA_FORMAT(I2S_InitStruct->I2S_DataFormat));
 710:libs/STM32F30x_StdPeriph_Driver/src/stm32f30x_spi.c ****   ////assert_param(IS_I2S_CPOL(I2S_InitStruct->I2S_CPOL));  
 711:libs/STM32F30x_StdPeriph_Driver/src/stm32f30x_spi.c **** 
 712:libs/STM32F30x_StdPeriph_Driver/src/stm32f30x_spi.c **** /*----------------------- SPIx I2SCFGR & I2SPR Configuration -----------------*/
 713:libs/STM32F30x_StdPeriph_Driver/src/stm32f30x_spi.c ****   /* Clear I2SMOD, I2SE, I2SCFG, PCMSYNC, I2SSTD, CKPOL, DATLEN and CHLEN bits */
 714:libs/STM32F30x_StdPeriph_Driver/src/stm32f30x_spi.c ****   I2Sxext->I2SCFGR &= I2SCFGR_CLEAR_MASK; 
 1054              		.loc 1 714 0
 1055 0016 7B68     		ldr	r3, [r7, #4]
 1056 0018 9B8B     		ldrh	r3, [r3, #28]	@ movhi
 1057 001a 9BB2     		uxth	r3, r3
 1058 001c 23F47B63 		bic	r3, r3, #4016
 1059 0020 23F00F03 		bic	r3, r3, #15
 1060 0024 9AB2     		uxth	r2, r3
 1061 0026 7B68     		ldr	r3, [r7, #4]
 1062 0028 9A83     		strh	r2, [r3, #28]	@ movhi
 715:libs/STM32F30x_StdPeriph_Driver/src/stm32f30x_spi.c ****   I2Sxext->I2SPR = 0x0002;
 1063              		.loc 1 715 0
 1064 002a 7B68     		ldr	r3, [r7, #4]
 1065 002c 4FF00202 		mov	r2, #2
 1066 0030 1A84     		strh	r2, [r3, #32]	@ movhi
 716:libs/STM32F30x_StdPeriph_Driver/src/stm32f30x_spi.c ****   
 717:libs/STM32F30x_StdPeriph_Driver/src/stm32f30x_spi.c ****   /* Get the I2SCFGR register value */
 718:libs/STM32F30x_StdPeriph_Driver/src/stm32f30x_spi.c ****   tmpreg = I2Sxext->I2SCFGR;
 1067              		.loc 1 718 0
 1068 0032 7B68     		ldr	r3, [r7, #4]
 1069 0034 9B8B     		ldrh	r3, [r3, #28]	@ movhi
 1070 0036 BB81     		strh	r3, [r7, #12]	@ movhi
 719:libs/STM32F30x_StdPeriph_Driver/src/stm32f30x_spi.c ****   
 720:libs/STM32F30x_StdPeriph_Driver/src/stm32f30x_spi.c ****   /* Get the mode to be configured for the extended I2S */
 721:libs/STM32F30x_StdPeriph_Driver/src/stm32f30x_spi.c ****   if ((I2S_InitStruct->I2S_Mode == I2S_Mode_MasterTx) || (I2S_InitStruct->I2S_Mode == I2S_Mode_Slav
 1071              		.loc 1 721 0
 1072 0038 3B68     		ldr	r3, [r7, #0]
 1073 003a 1B88     		ldrh	r3, [r3, #0]
 1074 003c B3F5007F 		cmp	r3, #512
 1075 0040 03D0     		beq	.L41
 1076              		.loc 1 721 0 is_stmt 0 discriminator 1
 1077 0042 3B68     		ldr	r3, [r7, #0]
 1078 0044 1B88     		ldrh	r3, [r3, #0]
 1079 0046 002B     		cmp	r3, #0
 1080 0048 03D1     		bne	.L42
 1081              	.L41:
 722:libs/STM32F30x_StdPeriph_Driver/src/stm32f30x_spi.c ****   {
 723:libs/STM32F30x_StdPeriph_Driver/src/stm32f30x_spi.c ****     tmp = I2S_Mode_SlaveRx;
 1082              		.loc 1 723 0 is_stmt 1
 1083 004a 4FF48073 		mov	r3, #256
 1084 004e FB81     		strh	r3, [r7, #14]	@ movhi
 1085 0050 0CE0     		b	.L43
 1086              	.L42:
 724:libs/STM32F30x_StdPeriph_Driver/src/stm32f30x_spi.c ****   }
 725:libs/STM32F30x_StdPeriph_Driver/src/stm32f30x_spi.c ****   else
 726:libs/STM32F30x_StdPeriph_Driver/src/stm32f30x_spi.c ****   {
 727:libs/STM32F30x_StdPeriph_Driver/src/stm32f30x_spi.c ****     if ((I2S_InitStruct->I2S_Mode == I2S_Mode_MasterRx) || (I2S_InitStruct->I2S_Mode == I2S_Mode_Sl
 1087              		.loc 1 727 0
 1088 0052 3B68     		ldr	r3, [r7, #0]
 1089 0054 1B88     		ldrh	r3, [r3, #0]
 1090 0056 B3F5407F 		cmp	r3, #768
 1091 005a 04D0     		beq	.L44
 1092              		.loc 1 727 0 is_stmt 0 discriminator 1
 1093 005c 3B68     		ldr	r3, [r7, #0]
 1094 005e 1B88     		ldrh	r3, [r3, #0]
 1095 0060 B3F5807F 		cmp	r3, #256
 1096 0064 02D1     		bne	.L43
 1097              	.L44:
 728:libs/STM32F30x_StdPeriph_Driver/src/stm32f30x_spi.c ****     {
 729:libs/STM32F30x_StdPeriph_Driver/src/stm32f30x_spi.c ****       tmp = I2S_Mode_SlaveTx;
 1098              		.loc 1 729 0 is_stmt 1
 1099 0066 4FF00003 		mov	r3, #0
 1100 006a FB81     		strh	r3, [r7, #14]	@ movhi
 1101              	.L43:
 730:libs/STM32F30x_StdPeriph_Driver/src/stm32f30x_spi.c ****     }
 731:libs/STM32F30x_StdPeriph_Driver/src/stm32f30x_spi.c ****   }
 732:libs/STM32F30x_StdPeriph_Driver/src/stm32f30x_spi.c **** 
 733:libs/STM32F30x_StdPeriph_Driver/src/stm32f30x_spi.c ****  
 734:libs/STM32F30x_StdPeriph_Driver/src/stm32f30x_spi.c ****   /* Configure the I2S with the SPI_InitStruct values */
 735:libs/STM32F30x_StdPeriph_Driver/src/stm32f30x_spi.c ****   tmpreg |= (uint16_t)((uint16_t)SPI_I2SCFGR_I2SMOD | (uint16_t)(tmp | \
 736:libs/STM32F30x_StdPeriph_Driver/src/stm32f30x_spi.c ****                   (uint16_t)(I2S_InitStruct->I2S_Standard | (uint16_t)(I2S_InitStruct->I2S_DataForm
 1102              		.loc 1 736 0
 1103 006c 3B68     		ldr	r3, [r7, #0]
 1104 006e 5A88     		ldrh	r2, [r3, #2]
 1105 0070 3B68     		ldr	r3, [r7, #0]
 1106 0072 9988     		ldrh	r1, [r3, #4]
 737:libs/STM32F30x_StdPeriph_Driver/src/stm32f30x_spi.c ****                   (uint16_t)I2S_InitStruct->I2S_CPOL))));
 1107              		.loc 1 737 0
 1108 0074 3B68     		ldr	r3, [r7, #0]
 1109 0076 9B89     		ldrh	r3, [r3, #12]
 736:libs/STM32F30x_StdPeriph_Driver/src/stm32f30x_spi.c ****                   (uint16_t)(I2S_InitStruct->I2S_Standard | (uint16_t)(I2S_InitStruct->I2S_DataForm
 1110              		.loc 1 736 0
 1111 0078 0B43     		orrs	r3, r3, r1
 1112 007a 9BB2     		uxth	r3, r3
 1113 007c 1343     		orrs	r3, r3, r2
 1114 007e 9AB2     		uxth	r2, r3
 735:libs/STM32F30x_StdPeriph_Driver/src/stm32f30x_spi.c ****   tmpreg |= (uint16_t)((uint16_t)SPI_I2SCFGR_I2SMOD | (uint16_t)(tmp | \
 1115              		.loc 1 735 0
 1116 0080 FB89     		ldrh	r3, [r7, #14]	@ movhi
 1117 0082 1343     		orrs	r3, r3, r2
 1118 0084 9AB2     		uxth	r2, r3
 1119 0086 BB89     		ldrh	r3, [r7, #12]	@ movhi
 1120 0088 1343     		orrs	r3, r3, r2
 1121 008a 9BB2     		uxth	r3, r3
 1122 008c 43F40063 		orr	r3, r3, #2048
 1123 0090 BB81     		strh	r3, [r7, #12]	@ movhi
 738:libs/STM32F30x_StdPeriph_Driver/src/stm32f30x_spi.c ****  
 739:libs/STM32F30x_StdPeriph_Driver/src/stm32f30x_spi.c ****   /* Write to SPIx I2SCFGR */  
 740:libs/STM32F30x_StdPeriph_Driver/src/stm32f30x_spi.c ****   I2Sxext->I2SCFGR = tmpreg;
 1124              		.loc 1 740 0
 1125 0092 7B68     		ldr	r3, [r7, #4]
 1126 0094 BA89     		ldrh	r2, [r7, #12]	@ movhi
 1127 0096 9A83     		strh	r2, [r3, #28]	@ movhi
 741:libs/STM32F30x_StdPeriph_Driver/src/stm32f30x_spi.c **** }
 1128              		.loc 1 741 0
 1129 0098 07F11407 		add	r7, r7, #20
 1130 009c BD46     		mov	sp, r7
 1131 009e 80BC     		pop	{r7}
 1132 00a0 7047     		bx	lr
 1133              		.cfi_endproc
 1134              	.LFE122:
 1136 00a2 00BF     		.section	.text.SPI_SSOutputCmd,"ax",%progbits
 1137              		.align	2
 1138              		.global	SPI_SSOutputCmd
 1139              		.thumb
 1140              		.thumb_func
 1142              	SPI_SSOutputCmd:
 1143              	.LFB123:
 742:libs/STM32F30x_StdPeriph_Driver/src/stm32f30x_spi.c **** 
 743:libs/STM32F30x_StdPeriph_Driver/src/stm32f30x_spi.c **** /**
 744:libs/STM32F30x_StdPeriph_Driver/src/stm32f30x_spi.c ****   * @brief  Enables or disables the SS output for the selected SPI.
 745:libs/STM32F30x_StdPeriph_Driver/src/stm32f30x_spi.c ****   * @note    This function can be called only after the SPI_Init() function has 
 746:libs/STM32F30x_StdPeriph_Driver/src/stm32f30x_spi.c ****   *          been called and the NSS hardware management mode is selected. 
 747:libs/STM32F30x_StdPeriph_Driver/src/stm32f30x_spi.c ****   * @param  SPIx: where x can be 1, 2 or 3 to select the SPI peripheral.
 748:libs/STM32F30x_StdPeriph_Driver/src/stm32f30x_spi.c ****   * @param  NewState: new state of the SPIx SS output. 
 749:libs/STM32F30x_StdPeriph_Driver/src/stm32f30x_spi.c ****   *         This parameter can be: ENABLE or DISABLE.
 750:libs/STM32F30x_StdPeriph_Driver/src/stm32f30x_spi.c ****   * @retval None
 751:libs/STM32F30x_StdPeriph_Driver/src/stm32f30x_spi.c ****   */
 752:libs/STM32F30x_StdPeriph_Driver/src/stm32f30x_spi.c **** void SPI_SSOutputCmd(SPI_TypeDef* SPIx, FunctionalState NewState)
 753:libs/STM32F30x_StdPeriph_Driver/src/stm32f30x_spi.c **** {
 1144              		.loc 1 753 0
 1145              		.cfi_startproc
 1146              		@ args = 0, pretend = 0, frame = 8
 1147              		@ frame_needed = 1, uses_anonymous_args = 0
 1148              		@ link register save eliminated.
 1149 0000 80B4     		push	{r7}
 1150              	.LCFI39:
 1151              		.cfi_def_cfa_offset 4
 1152              		.cfi_offset 7, -4
 1153 0002 83B0     		sub	sp, sp, #12
 1154              	.LCFI40:
 1155              		.cfi_def_cfa_offset 16
 1156 0004 00AF     		add	r7, sp, #0
 1157              	.LCFI41:
 1158              		.cfi_def_cfa_register 7
 1159 0006 7860     		str	r0, [r7, #4]
 1160 0008 0B46     		mov	r3, r1
 1161 000a FB70     		strb	r3, [r7, #3]
 754:libs/STM32F30x_StdPeriph_Driver/src/stm32f30x_spi.c ****   /* Check the parameters */
 755:libs/STM32F30x_StdPeriph_Driver/src/stm32f30x_spi.c ****   ////assert_param(IS_SPI_ALL_PERIPH(SPIx));
 756:libs/STM32F30x_StdPeriph_Driver/src/stm32f30x_spi.c ****   ////assert_param(IS_FUNCTIONAL_STATE(NewState));
 757:libs/STM32F30x_StdPeriph_Driver/src/stm32f30x_spi.c ****   if (NewState != DISABLE)
 1162              		.loc 1 757 0
 1163 000c FB78     		ldrb	r3, [r7, #3]	@ zero_extendqisi2
 1164 000e 002B     		cmp	r3, #0
 1165 0010 08D0     		beq	.L46
 758:libs/STM32F30x_StdPeriph_Driver/src/stm32f30x_spi.c ****   {
 759:libs/STM32F30x_StdPeriph_Driver/src/stm32f30x_spi.c ****     /* Enable the selected SPI SS output */
 760:libs/STM32F30x_StdPeriph_Driver/src/stm32f30x_spi.c ****     SPIx->CR2 |= (uint16_t)SPI_CR2_SSOE;
 1166              		.loc 1 760 0
 1167 0012 7B68     		ldr	r3, [r7, #4]
 1168 0014 9B88     		ldrh	r3, [r3, #4]	@ movhi
 1169 0016 9BB2     		uxth	r3, r3
 1170 0018 43F00403 		orr	r3, r3, #4
 1171 001c 9AB2     		uxth	r2, r3
 1172 001e 7B68     		ldr	r3, [r7, #4]
 1173 0020 9A80     		strh	r2, [r3, #4]	@ movhi
 1174 0022 07E0     		b	.L45
 1175              	.L46:
 761:libs/STM32F30x_StdPeriph_Driver/src/stm32f30x_spi.c ****   }
 762:libs/STM32F30x_StdPeriph_Driver/src/stm32f30x_spi.c ****   else
 763:libs/STM32F30x_StdPeriph_Driver/src/stm32f30x_spi.c ****   {
 764:libs/STM32F30x_StdPeriph_Driver/src/stm32f30x_spi.c ****     /* Disable the selected SPI SS output */
 765:libs/STM32F30x_StdPeriph_Driver/src/stm32f30x_spi.c ****     SPIx->CR2 &= (uint16_t)~((uint16_t)SPI_CR2_SSOE);
 1176              		.loc 1 765 0
 1177 0024 7B68     		ldr	r3, [r7, #4]
 1178 0026 9B88     		ldrh	r3, [r3, #4]	@ movhi
 1179 0028 9BB2     		uxth	r3, r3
 1180 002a 23F00403 		bic	r3, r3, #4
 1181 002e 9AB2     		uxth	r2, r3
 1182 0030 7B68     		ldr	r3, [r7, #4]
 1183 0032 9A80     		strh	r2, [r3, #4]	@ movhi
 1184              	.L45:
 766:libs/STM32F30x_StdPeriph_Driver/src/stm32f30x_spi.c ****   }
 767:libs/STM32F30x_StdPeriph_Driver/src/stm32f30x_spi.c **** }
 1185              		.loc 1 767 0
 1186 0034 07F10C07 		add	r7, r7, #12
 1187 0038 BD46     		mov	sp, r7
 1188 003a 80BC     		pop	{r7}
 1189 003c 7047     		bx	lr
 1190              		.cfi_endproc
 1191              	.LFE123:
 1193 003e 00BF     		.section	.text.SPI_NSSPulseModeCmd,"ax",%progbits
 1194              		.align	2
 1195              		.global	SPI_NSSPulseModeCmd
 1196              		.thumb
 1197              		.thumb_func
 1199              	SPI_NSSPulseModeCmd:
 1200              	.LFB124:
 768:libs/STM32F30x_StdPeriph_Driver/src/stm32f30x_spi.c **** 
 769:libs/STM32F30x_StdPeriph_Driver/src/stm32f30x_spi.c **** /**
 770:libs/STM32F30x_StdPeriph_Driver/src/stm32f30x_spi.c ****   * @brief  Enables or disables the NSS pulse management mode.
 771:libs/STM32F30x_StdPeriph_Driver/src/stm32f30x_spi.c ****   * @note    This function can be called only after the SPI_Init() function has 
 772:libs/STM32F30x_StdPeriph_Driver/src/stm32f30x_spi.c ****   *          been called. 
 773:libs/STM32F30x_StdPeriph_Driver/src/stm32f30x_spi.c ****   * @note    When TI mode is selected, the control bits NSSP is not taken into 
 774:libs/STM32F30x_StdPeriph_Driver/src/stm32f30x_spi.c ****   *          consideration and are configured by hardware respectively to the 
 775:libs/STM32F30x_StdPeriph_Driver/src/stm32f30x_spi.c ****   *          TI mode requirements. 
 776:libs/STM32F30x_StdPeriph_Driver/src/stm32f30x_spi.c ****   * @param  SPIx: where x can be 1, 2 or 3 to select the SPI peripheral. 
 777:libs/STM32F30x_StdPeriph_Driver/src/stm32f30x_spi.c ****   * @param  NewState: new state of the NSS pulse management mode.
 778:libs/STM32F30x_StdPeriph_Driver/src/stm32f30x_spi.c ****   *         This parameter can be: ENABLE or DISABLE.
 779:libs/STM32F30x_StdPeriph_Driver/src/stm32f30x_spi.c ****   * @retval None
 780:libs/STM32F30x_StdPeriph_Driver/src/stm32f30x_spi.c ****   */
 781:libs/STM32F30x_StdPeriph_Driver/src/stm32f30x_spi.c **** void SPI_NSSPulseModeCmd(SPI_TypeDef* SPIx, FunctionalState NewState)
 782:libs/STM32F30x_StdPeriph_Driver/src/stm32f30x_spi.c **** {
 1201              		.loc 1 782 0
 1202              		.cfi_startproc
 1203              		@ args = 0, pretend = 0, frame = 8
 1204              		@ frame_needed = 1, uses_anonymous_args = 0
 1205              		@ link register save eliminated.
 1206 0000 80B4     		push	{r7}
 1207              	.LCFI42:
 1208              		.cfi_def_cfa_offset 4
 1209              		.cfi_offset 7, -4
 1210 0002 83B0     		sub	sp, sp, #12
 1211              	.LCFI43:
 1212              		.cfi_def_cfa_offset 16
 1213 0004 00AF     		add	r7, sp, #0
 1214              	.LCFI44:
 1215              		.cfi_def_cfa_register 7
 1216 0006 7860     		str	r0, [r7, #4]
 1217 0008 0B46     		mov	r3, r1
 1218 000a FB70     		strb	r3, [r7, #3]
 783:libs/STM32F30x_StdPeriph_Driver/src/stm32f30x_spi.c ****   /* Check the parameters */
 784:libs/STM32F30x_StdPeriph_Driver/src/stm32f30x_spi.c ****   ////assert_param(IS_SPI_ALL_PERIPH(SPIx));
 785:libs/STM32F30x_StdPeriph_Driver/src/stm32f30x_spi.c ****   ////assert_param(IS_FUNCTIONAL_STATE(NewState));
 786:libs/STM32F30x_StdPeriph_Driver/src/stm32f30x_spi.c **** 
 787:libs/STM32F30x_StdPeriph_Driver/src/stm32f30x_spi.c ****   if (NewState != DISABLE)
 1219              		.loc 1 787 0
 1220 000c FB78     		ldrb	r3, [r7, #3]	@ zero_extendqisi2
 1221 000e 002B     		cmp	r3, #0
 1222 0010 08D0     		beq	.L49
 788:libs/STM32F30x_StdPeriph_Driver/src/stm32f30x_spi.c ****   {
 789:libs/STM32F30x_StdPeriph_Driver/src/stm32f30x_spi.c ****     /* Enable the NSS pulse management mode */
 790:libs/STM32F30x_StdPeriph_Driver/src/stm32f30x_spi.c ****     SPIx->CR2 |= SPI_CR2_NSSP;
 1223              		.loc 1 790 0
 1224 0012 7B68     		ldr	r3, [r7, #4]
 1225 0014 9B88     		ldrh	r3, [r3, #4]	@ movhi
 1226 0016 9BB2     		uxth	r3, r3
 1227 0018 43F00803 		orr	r3, r3, #8
 1228 001c 9AB2     		uxth	r2, r3
 1229 001e 7B68     		ldr	r3, [r7, #4]
 1230 0020 9A80     		strh	r2, [r3, #4]	@ movhi
 1231 0022 07E0     		b	.L48
 1232              	.L49:
 791:libs/STM32F30x_StdPeriph_Driver/src/stm32f30x_spi.c ****   }
 792:libs/STM32F30x_StdPeriph_Driver/src/stm32f30x_spi.c ****   else
 793:libs/STM32F30x_StdPeriph_Driver/src/stm32f30x_spi.c ****   {
 794:libs/STM32F30x_StdPeriph_Driver/src/stm32f30x_spi.c ****     /* Disable the NSS pulse management mode */
 795:libs/STM32F30x_StdPeriph_Driver/src/stm32f30x_spi.c ****     SPIx->CR2 &= (uint16_t)~((uint16_t)SPI_CR2_NSSP);    
 1233              		.loc 1 795 0
 1234 0024 7B68     		ldr	r3, [r7, #4]
 1235 0026 9B88     		ldrh	r3, [r3, #4]	@ movhi
 1236 0028 9BB2     		uxth	r3, r3
 1237 002a 23F00803 		bic	r3, r3, #8
 1238 002e 9AB2     		uxth	r2, r3
 1239 0030 7B68     		ldr	r3, [r7, #4]
 1240 0032 9A80     		strh	r2, [r3, #4]	@ movhi
 1241              	.L48:
 796:libs/STM32F30x_StdPeriph_Driver/src/stm32f30x_spi.c ****   }
 797:libs/STM32F30x_StdPeriph_Driver/src/stm32f30x_spi.c **** }
 1242              		.loc 1 797 0
 1243 0034 07F10C07 		add	r7, r7, #12
 1244 0038 BD46     		mov	sp, r7
 1245 003a 80BC     		pop	{r7}
 1246 003c 7047     		bx	lr
 1247              		.cfi_endproc
 1248              	.LFE124:
 1250 003e 00BF     		.section	.text.SPI_SendData8,"ax",%progbits
 1251              		.align	2
 1252              		.global	SPI_SendData8
 1253              		.thumb
 1254              		.thumb_func
 1256              	SPI_SendData8:
 1257              	.LFB125:
 798:libs/STM32F30x_StdPeriph_Driver/src/stm32f30x_spi.c **** 
 799:libs/STM32F30x_StdPeriph_Driver/src/stm32f30x_spi.c **** /**
 800:libs/STM32F30x_StdPeriph_Driver/src/stm32f30x_spi.c ****   * @}
 801:libs/STM32F30x_StdPeriph_Driver/src/stm32f30x_spi.c ****   */
 802:libs/STM32F30x_StdPeriph_Driver/src/stm32f30x_spi.c **** 
 803:libs/STM32F30x_StdPeriph_Driver/src/stm32f30x_spi.c **** /** @defgroup SPI_Group2 Data transfers functions
 804:libs/STM32F30x_StdPeriph_Driver/src/stm32f30x_spi.c ****  *  @brief   Data transfers functions
 805:libs/STM32F30x_StdPeriph_Driver/src/stm32f30x_spi.c ****  *
 806:libs/STM32F30x_StdPeriph_Driver/src/stm32f30x_spi.c **** @verbatim
 807:libs/STM32F30x_StdPeriph_Driver/src/stm32f30x_spi.c ****  ===============================================================================
 808:libs/STM32F30x_StdPeriph_Driver/src/stm32f30x_spi.c ****                     ##### Data transfers functions #####
 809:libs/STM32F30x_StdPeriph_Driver/src/stm32f30x_spi.c ****  ===============================================================================  
 810:libs/STM32F30x_StdPeriph_Driver/src/stm32f30x_spi.c ****     [..] This section provides a set of functions allowing to manage the SPI or I2S 
 811:libs/STM32F30x_StdPeriph_Driver/src/stm32f30x_spi.c ****          data transfers.
 812:libs/STM32F30x_StdPeriph_Driver/src/stm32f30x_spi.c ****     [..] In reception, data are received and then stored into an internal Rx buffer while 
 813:libs/STM32F30x_StdPeriph_Driver/src/stm32f30x_spi.c ****          In transmission, data are first stored into an internal Tx buffer before being 
 814:libs/STM32F30x_StdPeriph_Driver/src/stm32f30x_spi.c ****          transmitted.
 815:libs/STM32F30x_StdPeriph_Driver/src/stm32f30x_spi.c ****     [..] The read access of the SPI_DR register can be done using the SPI_I2S_ReceiveData()
 816:libs/STM32F30x_StdPeriph_Driver/src/stm32f30x_spi.c ****          function and returns the Rx buffered value. Whereas a write access to the SPI_DR 
 817:libs/STM32F30x_StdPeriph_Driver/src/stm32f30x_spi.c ****          can be done using SPI_I2S_SendData() function and stores the written data into 
 818:libs/STM32F30x_StdPeriph_Driver/src/stm32f30x_spi.c ****          Tx buffer.
 819:libs/STM32F30x_StdPeriph_Driver/src/stm32f30x_spi.c **** 
 820:libs/STM32F30x_StdPeriph_Driver/src/stm32f30x_spi.c **** @endverbatim
 821:libs/STM32F30x_StdPeriph_Driver/src/stm32f30x_spi.c ****   * @{
 822:libs/STM32F30x_StdPeriph_Driver/src/stm32f30x_spi.c ****   */
 823:libs/STM32F30x_StdPeriph_Driver/src/stm32f30x_spi.c **** 
 824:libs/STM32F30x_StdPeriph_Driver/src/stm32f30x_spi.c **** /**
 825:libs/STM32F30x_StdPeriph_Driver/src/stm32f30x_spi.c ****   * @brief  Transmits a Data through the SPIx peripheral.
 826:libs/STM32F30x_StdPeriph_Driver/src/stm32f30x_spi.c ****   * @param  SPIx: where x can be 1, 2 or 3 to select the SPI peripheral.
 827:libs/STM32F30x_StdPeriph_Driver/src/stm32f30x_spi.c ****   * @param  Data: Data to be transmitted.
 828:libs/STM32F30x_StdPeriph_Driver/src/stm32f30x_spi.c ****   * @retval None
 829:libs/STM32F30x_StdPeriph_Driver/src/stm32f30x_spi.c ****   */
 830:libs/STM32F30x_StdPeriph_Driver/src/stm32f30x_spi.c **** void SPI_SendData8(SPI_TypeDef* SPIx, uint8_t Data)
 831:libs/STM32F30x_StdPeriph_Driver/src/stm32f30x_spi.c **** {
 1258              		.loc 1 831 0
 1259              		.cfi_startproc
 1260              		@ args = 0, pretend = 0, frame = 16
 1261              		@ frame_needed = 1, uses_anonymous_args = 0
 1262              		@ link register save eliminated.
 1263 0000 80B4     		push	{r7}
 1264              	.LCFI45:
 1265              		.cfi_def_cfa_offset 4
 1266              		.cfi_offset 7, -4
 1267 0002 85B0     		sub	sp, sp, #20
 1268              	.LCFI46:
 1269              		.cfi_def_cfa_offset 24
 1270 0004 00AF     		add	r7, sp, #0
 1271              	.LCFI47:
 1272              		.cfi_def_cfa_register 7
 1273 0006 7860     		str	r0, [r7, #4]
 1274 0008 0B46     		mov	r3, r1
 1275 000a FB70     		strb	r3, [r7, #3]
 832:libs/STM32F30x_StdPeriph_Driver/src/stm32f30x_spi.c ****   uint32_t spixbase = 0x00;
 1276              		.loc 1 832 0
 1277 000c 4FF00003 		mov	r3, #0
 1278 0010 FB60     		str	r3, [r7, #12]
 833:libs/STM32F30x_StdPeriph_Driver/src/stm32f30x_spi.c **** 
 834:libs/STM32F30x_StdPeriph_Driver/src/stm32f30x_spi.c ****   /* Check the parameters */
 835:libs/STM32F30x_StdPeriph_Driver/src/stm32f30x_spi.c ****   ////assert_param(IS_SPI_ALL_PERIPH(SPIx));
 836:libs/STM32F30x_StdPeriph_Driver/src/stm32f30x_spi.c **** 
 837:libs/STM32F30x_StdPeriph_Driver/src/stm32f30x_spi.c ****   spixbase = (uint32_t)SPIx; 
 1279              		.loc 1 837 0
 1280 0012 7B68     		ldr	r3, [r7, #4]
 1281 0014 FB60     		str	r3, [r7, #12]
 838:libs/STM32F30x_StdPeriph_Driver/src/stm32f30x_spi.c ****   spixbase += 0x0C;
 1282              		.loc 1 838 0
 1283 0016 FB68     		ldr	r3, [r7, #12]
 1284 0018 03F10C03 		add	r3, r3, #12
 1285 001c FB60     		str	r3, [r7, #12]
 839:libs/STM32F30x_StdPeriph_Driver/src/stm32f30x_spi.c ****   
 840:libs/STM32F30x_StdPeriph_Driver/src/stm32f30x_spi.c ****   *(__IO uint8_t *) spixbase = Data;
 1286              		.loc 1 840 0
 1287 001e FB68     		ldr	r3, [r7, #12]
 1288 0020 FA78     		ldrb	r2, [r7, #3]
 1289 0022 1A70     		strb	r2, [r3, #0]
 841:libs/STM32F30x_StdPeriph_Driver/src/stm32f30x_spi.c **** }
 1290              		.loc 1 841 0
 1291 0024 07F11407 		add	r7, r7, #20
 1292 0028 BD46     		mov	sp, r7
 1293 002a 80BC     		pop	{r7}
 1294 002c 7047     		bx	lr
 1295              		.cfi_endproc
 1296              	.LFE125:
 1298 002e 00BF     		.section	.text.SPI_I2S_SendData16,"ax",%progbits
 1299              		.align	2
 1300              		.global	SPI_I2S_SendData16
 1301              		.thumb
 1302              		.thumb_func
 1304              	SPI_I2S_SendData16:
 1305              	.LFB126:
 842:libs/STM32F30x_StdPeriph_Driver/src/stm32f30x_spi.c **** 
 843:libs/STM32F30x_StdPeriph_Driver/src/stm32f30x_spi.c **** /**
 844:libs/STM32F30x_StdPeriph_Driver/src/stm32f30x_spi.c ****   * @brief  Transmits a Data through the SPIx/I2Sx peripheral.
 845:libs/STM32F30x_StdPeriph_Driver/src/stm32f30x_spi.c ****   * @param  SPIx: To select the SPIx/I2Sx peripheral, where x can be: 1, 2 or 3 
 846:libs/STM32F30x_StdPeriph_Driver/src/stm32f30x_spi.c ****   *         in SPI mode or 2 or 3 in I2S mode or I2Sxext for I2S full duplex mode.  
 847:libs/STM32F30x_StdPeriph_Driver/src/stm32f30x_spi.c ****   * @param  Data: Data to be transmitted.
 848:libs/STM32F30x_StdPeriph_Driver/src/stm32f30x_spi.c ****   * @retval None
 849:libs/STM32F30x_StdPeriph_Driver/src/stm32f30x_spi.c ****   */
 850:libs/STM32F30x_StdPeriph_Driver/src/stm32f30x_spi.c **** void SPI_I2S_SendData16(SPI_TypeDef* SPIx, uint16_t Data)
 851:libs/STM32F30x_StdPeriph_Driver/src/stm32f30x_spi.c **** {
 1306              		.loc 1 851 0
 1307              		.cfi_startproc
 1308              		@ args = 0, pretend = 0, frame = 8
 1309              		@ frame_needed = 1, uses_anonymous_args = 0
 1310              		@ link register save eliminated.
 1311 0000 80B4     		push	{r7}
 1312              	.LCFI48:
 1313              		.cfi_def_cfa_offset 4
 1314              		.cfi_offset 7, -4
 1315 0002 83B0     		sub	sp, sp, #12
 1316              	.LCFI49:
 1317              		.cfi_def_cfa_offset 16
 1318 0004 00AF     		add	r7, sp, #0
 1319              	.LCFI50:
 1320              		.cfi_def_cfa_register 7
 1321 0006 7860     		str	r0, [r7, #4]
 1322 0008 0B46     		mov	r3, r1
 1323 000a 7B80     		strh	r3, [r7, #2]	@ movhi
 852:libs/STM32F30x_StdPeriph_Driver/src/stm32f30x_spi.c ****   /* Check the parameters */
 853:libs/STM32F30x_StdPeriph_Driver/src/stm32f30x_spi.c ****   ////assert_param(IS_SPI_ALL_PERIPH_EXT(SPIx));
 854:libs/STM32F30x_StdPeriph_Driver/src/stm32f30x_spi.c ****   
 855:libs/STM32F30x_StdPeriph_Driver/src/stm32f30x_spi.c ****   SPIx->DR = (uint16_t)Data;
 1324              		.loc 1 855 0
 1325 000c 7B68     		ldr	r3, [r7, #4]
 1326 000e 7A88     		ldrh	r2, [r7, #2]	@ movhi
 1327 0010 9A81     		strh	r2, [r3, #12]	@ movhi
 856:libs/STM32F30x_StdPeriph_Driver/src/stm32f30x_spi.c **** }
 1328              		.loc 1 856 0
 1329 0012 07F10C07 		add	r7, r7, #12
 1330 0016 BD46     		mov	sp, r7
 1331 0018 80BC     		pop	{r7}
 1332 001a 7047     		bx	lr
 1333              		.cfi_endproc
 1334              	.LFE126:
 1336              		.section	.text.SPI_ReceiveData8,"ax",%progbits
 1337              		.align	2
 1338              		.global	SPI_ReceiveData8
 1339              		.thumb
 1340              		.thumb_func
 1342              	SPI_ReceiveData8:
 1343              	.LFB127:
 857:libs/STM32F30x_StdPeriph_Driver/src/stm32f30x_spi.c **** 
 858:libs/STM32F30x_StdPeriph_Driver/src/stm32f30x_spi.c **** /**
 859:libs/STM32F30x_StdPeriph_Driver/src/stm32f30x_spi.c ****   * @brief  Returns the most recent received data by the SPIx peripheral. 
 860:libs/STM32F30x_StdPeriph_Driver/src/stm32f30x_spi.c ****   * @param  SPIx: where x can be 1, 2 or 3 to select the SPI peripheral.
 861:libs/STM32F30x_StdPeriph_Driver/src/stm32f30x_spi.c ****   * @retval The value of the received data.
 862:libs/STM32F30x_StdPeriph_Driver/src/stm32f30x_spi.c ****   */
 863:libs/STM32F30x_StdPeriph_Driver/src/stm32f30x_spi.c **** uint8_t SPI_ReceiveData8(SPI_TypeDef* SPIx)
 864:libs/STM32F30x_StdPeriph_Driver/src/stm32f30x_spi.c **** {
 1344              		.loc 1 864 0
 1345              		.cfi_startproc
 1346              		@ args = 0, pretend = 0, frame = 16
 1347              		@ frame_needed = 1, uses_anonymous_args = 0
 1348              		@ link register save eliminated.
 1349 0000 80B4     		push	{r7}
 1350              	.LCFI51:
 1351              		.cfi_def_cfa_offset 4
 1352              		.cfi_offset 7, -4
 1353 0002 85B0     		sub	sp, sp, #20
 1354              	.LCFI52:
 1355              		.cfi_def_cfa_offset 24
 1356 0004 00AF     		add	r7, sp, #0
 1357              	.LCFI53:
 1358              		.cfi_def_cfa_register 7
 1359 0006 7860     		str	r0, [r7, #4]
 865:libs/STM32F30x_StdPeriph_Driver/src/stm32f30x_spi.c ****   uint32_t spixbase = 0x00;
 1360              		.loc 1 865 0
 1361 0008 4FF00003 		mov	r3, #0
 1362 000c FB60     		str	r3, [r7, #12]
 866:libs/STM32F30x_StdPeriph_Driver/src/stm32f30x_spi.c ****   
 867:libs/STM32F30x_StdPeriph_Driver/src/stm32f30x_spi.c ****   /* Check the parameters */
 868:libs/STM32F30x_StdPeriph_Driver/src/stm32f30x_spi.c ****   ////assert_param(IS_SPI_ALL_PERIPH_EXT(SPIx));
 869:libs/STM32F30x_StdPeriph_Driver/src/stm32f30x_spi.c ****   
 870:libs/STM32F30x_StdPeriph_Driver/src/stm32f30x_spi.c ****   spixbase = (uint32_t)SPIx; 
 1363              		.loc 1 870 0
 1364 000e 7B68     		ldr	r3, [r7, #4]
 1365 0010 FB60     		str	r3, [r7, #12]
 871:libs/STM32F30x_StdPeriph_Driver/src/stm32f30x_spi.c ****   spixbase += 0x0C;
 1366              		.loc 1 871 0
 1367 0012 FB68     		ldr	r3, [r7, #12]
 1368 0014 03F10C03 		add	r3, r3, #12
 1369 0018 FB60     		str	r3, [r7, #12]
 872:libs/STM32F30x_StdPeriph_Driver/src/stm32f30x_spi.c ****   
 873:libs/STM32F30x_StdPeriph_Driver/src/stm32f30x_spi.c ****   return *(__IO uint8_t *) spixbase;
 1370              		.loc 1 873 0
 1371 001a FB68     		ldr	r3, [r7, #12]
 1372 001c 1B78     		ldrb	r3, [r3, #0]
 1373 001e DBB2     		uxtb	r3, r3
 874:libs/STM32F30x_StdPeriph_Driver/src/stm32f30x_spi.c **** }
 1374              		.loc 1 874 0
 1375 0020 1846     		mov	r0, r3
 1376 0022 07F11407 		add	r7, r7, #20
 1377 0026 BD46     		mov	sp, r7
 1378 0028 80BC     		pop	{r7}
 1379 002a 7047     		bx	lr
 1380              		.cfi_endproc
 1381              	.LFE127:
 1383              		.section	.text.SPI_I2S_ReceiveData16,"ax",%progbits
 1384              		.align	2
 1385              		.global	SPI_I2S_ReceiveData16
 1386              		.thumb
 1387              		.thumb_func
 1389              	SPI_I2S_ReceiveData16:
 1390              	.LFB128:
 875:libs/STM32F30x_StdPeriph_Driver/src/stm32f30x_spi.c **** 
 876:libs/STM32F30x_StdPeriph_Driver/src/stm32f30x_spi.c **** /**
 877:libs/STM32F30x_StdPeriph_Driver/src/stm32f30x_spi.c ****   * @brief  Returns the most recent received data by the SPIx peripheral. 
 878:libs/STM32F30x_StdPeriph_Driver/src/stm32f30x_spi.c ****   * @param  SPIx: To select the SPIx/I2Sx peripheral, where x can be: 1, 2 or 3 
 879:libs/STM32F30x_StdPeriph_Driver/src/stm32f30x_spi.c ****   *         in SPI mode or 2 or 3 in I2S mode or I2Sxext for I2S full duplex mode.
 880:libs/STM32F30x_StdPeriph_Driver/src/stm32f30x_spi.c ****   * @retval The value of the received data.
 881:libs/STM32F30x_StdPeriph_Driver/src/stm32f30x_spi.c ****   */
 882:libs/STM32F30x_StdPeriph_Driver/src/stm32f30x_spi.c **** uint16_t SPI_I2S_ReceiveData16(SPI_TypeDef* SPIx)
 883:libs/STM32F30x_StdPeriph_Driver/src/stm32f30x_spi.c **** {  
 1391              		.loc 1 883 0
 1392              		.cfi_startproc
 1393              		@ args = 0, pretend = 0, frame = 8
 1394              		@ frame_needed = 1, uses_anonymous_args = 0
 1395              		@ link register save eliminated.
 1396 0000 80B4     		push	{r7}
 1397              	.LCFI54:
 1398              		.cfi_def_cfa_offset 4
 1399              		.cfi_offset 7, -4
 1400 0002 83B0     		sub	sp, sp, #12
 1401              	.LCFI55:
 1402              		.cfi_def_cfa_offset 16
 1403 0004 00AF     		add	r7, sp, #0
 1404              	.LCFI56:
 1405              		.cfi_def_cfa_register 7
 1406 0006 7860     		str	r0, [r7, #4]
 884:libs/STM32F30x_StdPeriph_Driver/src/stm32f30x_spi.c ****   /* Check the parameters */
 885:libs/STM32F30x_StdPeriph_Driver/src/stm32f30x_spi.c ****   //assert_param(IS_SPI_ALL_PERIPH_EXT(SPIx));
 886:libs/STM32F30x_StdPeriph_Driver/src/stm32f30x_spi.c ****   
 887:libs/STM32F30x_StdPeriph_Driver/src/stm32f30x_spi.c ****   return SPIx->DR;
 1407              		.loc 1 887 0
 1408 0008 7B68     		ldr	r3, [r7, #4]
 1409 000a 9B89     		ldrh	r3, [r3, #12]	@ movhi
 1410 000c 9BB2     		uxth	r3, r3
 888:libs/STM32F30x_StdPeriph_Driver/src/stm32f30x_spi.c **** }
 1411              		.loc 1 888 0
 1412 000e 1846     		mov	r0, r3
 1413 0010 07F10C07 		add	r7, r7, #12
 1414 0014 BD46     		mov	sp, r7
 1415 0016 80BC     		pop	{r7}
 1416 0018 7047     		bx	lr
 1417              		.cfi_endproc
 1418              	.LFE128:
 1420 001a 00BF     		.section	.text.SPI_CRCLengthConfig,"ax",%progbits
 1421              		.align	2
 1422              		.global	SPI_CRCLengthConfig
 1423              		.thumb
 1424              		.thumb_func
 1426              	SPI_CRCLengthConfig:
 1427              	.LFB129:
 889:libs/STM32F30x_StdPeriph_Driver/src/stm32f30x_spi.c **** /**
 890:libs/STM32F30x_StdPeriph_Driver/src/stm32f30x_spi.c ****   * @}
 891:libs/STM32F30x_StdPeriph_Driver/src/stm32f30x_spi.c ****   */
 892:libs/STM32F30x_StdPeriph_Driver/src/stm32f30x_spi.c **** 
 893:libs/STM32F30x_StdPeriph_Driver/src/stm32f30x_spi.c **** /** @defgroup SPI_Group3 Hardware CRC Calculation functions
 894:libs/STM32F30x_StdPeriph_Driver/src/stm32f30x_spi.c ****  *  @brief   Hardware CRC Calculation functions
 895:libs/STM32F30x_StdPeriph_Driver/src/stm32f30x_spi.c ****  *
 896:libs/STM32F30x_StdPeriph_Driver/src/stm32f30x_spi.c **** @verbatim   
 897:libs/STM32F30x_StdPeriph_Driver/src/stm32f30x_spi.c ****  ===============================================================================
 898:libs/STM32F30x_StdPeriph_Driver/src/stm32f30x_spi.c ****                   ##### Hardware CRC Calculation functions #####
 899:libs/STM32F30x_StdPeriph_Driver/src/stm32f30x_spi.c ****  ===============================================================================  
 900:libs/STM32F30x_StdPeriph_Driver/src/stm32f30x_spi.c ****     [..] This section provides a set of functions allowing to manage the SPI CRC hardware 
 901:libs/STM32F30x_StdPeriph_Driver/src/stm32f30x_spi.c ****          calculation.
 902:libs/STM32F30x_StdPeriph_Driver/src/stm32f30x_spi.c ****     [..] SPI communication using CRC is possible through the following procedure:
 903:libs/STM32F30x_StdPeriph_Driver/src/stm32f30x_spi.c ****          (#) Program the Data direction, Polarity, Phase, First Data, Baud Rate Prescaler, 
 904:libs/STM32F30x_StdPeriph_Driver/src/stm32f30x_spi.c ****              Slave Management, Peripheral Mode and CRC Polynomial values using the SPI_Init()
 905:libs/STM32F30x_StdPeriph_Driver/src/stm32f30x_spi.c ****              function.
 906:libs/STM32F30x_StdPeriph_Driver/src/stm32f30x_spi.c ****          (#) Enable the CRC calculation using the SPI_CalculateCRC() function.
 907:libs/STM32F30x_StdPeriph_Driver/src/stm32f30x_spi.c ****          (#) Enable the SPI using the SPI_Cmd() function
 908:libs/STM32F30x_StdPeriph_Driver/src/stm32f30x_spi.c ****          (#) Before writing the last data to the TX buffer, set the CRCNext bit using the 
 909:libs/STM32F30x_StdPeriph_Driver/src/stm32f30x_spi.c ****              SPI_TransmitCRC() function to indicate that after transmission of the last 
 910:libs/STM32F30x_StdPeriph_Driver/src/stm32f30x_spi.c ****              data, the CRC should be transmitted.
 911:libs/STM32F30x_StdPeriph_Driver/src/stm32f30x_spi.c ****          (#) After transmitting the last data, the SPI transmits the CRC. The SPI_CR1_CRCNEXT
 912:libs/STM32F30x_StdPeriph_Driver/src/stm32f30x_spi.c ****              bit is reset. The CRC is also received and compared against the SPI_RXCRCR 
 913:libs/STM32F30x_StdPeriph_Driver/src/stm32f30x_spi.c ****              value. 
 914:libs/STM32F30x_StdPeriph_Driver/src/stm32f30x_spi.c ****              If the value does not match, the SPI_FLAG_CRCERR flag is set and an interrupt
 915:libs/STM32F30x_StdPeriph_Driver/src/stm32f30x_spi.c ****              can be generated when the SPI_I2S_IT_ERR interrupt is enabled.
 916:libs/STM32F30x_StdPeriph_Driver/src/stm32f30x_spi.c ****     [..]
 917:libs/STM32F30x_StdPeriph_Driver/src/stm32f30x_spi.c ****     (@)
 918:libs/STM32F30x_StdPeriph_Driver/src/stm32f30x_spi.c ****          (+@) It is advised to don't read the calculate CRC values during the communication.
 919:libs/STM32F30x_StdPeriph_Driver/src/stm32f30x_spi.c ****          (+@) When the SPI is in slave mode, be careful to enable CRC calculation only 
 920:libs/STM32F30x_StdPeriph_Driver/src/stm32f30x_spi.c ****               when the clock is stable, that is, when the clock is in the steady state. 
 921:libs/STM32F30x_StdPeriph_Driver/src/stm32f30x_spi.c ****               If not, a wrong CRC calculation may be done. In fact, the CRC is sensitive 
 922:libs/STM32F30x_StdPeriph_Driver/src/stm32f30x_spi.c ****               to the SCK slave input clock as soon as CRCEN is set, and this, whatever 
 923:libs/STM32F30x_StdPeriph_Driver/src/stm32f30x_spi.c ****               the value of the SPE bit.
 924:libs/STM32F30x_StdPeriph_Driver/src/stm32f30x_spi.c ****          (+@) With high bitrate frequencies, be careful when transmitting the CRC.
 925:libs/STM32F30x_StdPeriph_Driver/src/stm32f30x_spi.c ****               As the number of used CPU cycles has to be as low as possible in the CRC 
 926:libs/STM32F30x_StdPeriph_Driver/src/stm32f30x_spi.c ****               transfer phase, it is forbidden to call software functions in the CRC 
 927:libs/STM32F30x_StdPeriph_Driver/src/stm32f30x_spi.c ****               transmission sequence to avoid errors in the last data and CRC reception. 
 928:libs/STM32F30x_StdPeriph_Driver/src/stm32f30x_spi.c ****               In fact, CRCNEXT bit has to be written before the end of the transmission/reception 
 929:libs/STM32F30x_StdPeriph_Driver/src/stm32f30x_spi.c ****               of the last data.
 930:libs/STM32F30x_StdPeriph_Driver/src/stm32f30x_spi.c ****          (+@) For high bit rate frequencies, it is advised to use the DMA mode to avoid the
 931:libs/STM32F30x_StdPeriph_Driver/src/stm32f30x_spi.c ****               degradation of the SPI speed performance due to CPU accesses impacting the 
 932:libs/STM32F30x_StdPeriph_Driver/src/stm32f30x_spi.c ****               SPI bandwidth.
 933:libs/STM32F30x_StdPeriph_Driver/src/stm32f30x_spi.c ****          (+@) When the STM32F30x are configured as slaves and the NSS hardware mode is 
 934:libs/STM32F30x_StdPeriph_Driver/src/stm32f30x_spi.c ****               used, the NSS pin needs to be kept low between the data phase and the CRC 
 935:libs/STM32F30x_StdPeriph_Driver/src/stm32f30x_spi.c ****               phase.
 936:libs/STM32F30x_StdPeriph_Driver/src/stm32f30x_spi.c ****          (+@) When the SPI is configured in slave mode with the CRC feature enabled, CRC
 937:libs/STM32F30x_StdPeriph_Driver/src/stm32f30x_spi.c ****               calculation takes place even if a high level is applied on the NSS pin. 
 938:libs/STM32F30x_StdPeriph_Driver/src/stm32f30x_spi.c ****               This may happen for example in case of a multislave environment where the 
 939:libs/STM32F30x_StdPeriph_Driver/src/stm32f30x_spi.c ****               communication master addresses slaves alternately.
 940:libs/STM32F30x_StdPeriph_Driver/src/stm32f30x_spi.c ****          (+@) Between a slave deselection (high level on NSS) and a new slave selection 
 941:libs/STM32F30x_StdPeriph_Driver/src/stm32f30x_spi.c ****               (low level on NSS), the CRC value should be cleared on both master and slave
 942:libs/STM32F30x_StdPeriph_Driver/src/stm32f30x_spi.c ****               sides in order to resynchronize the master and slave for their respective 
 943:libs/STM32F30x_StdPeriph_Driver/src/stm32f30x_spi.c ****               CRC calculation.
 944:libs/STM32F30x_StdPeriph_Driver/src/stm32f30x_spi.c ****     [..]          
 945:libs/STM32F30x_StdPeriph_Driver/src/stm32f30x_spi.c ****     (@) To clear the CRC, follow the procedure below:
 946:libs/STM32F30x_StdPeriph_Driver/src/stm32f30x_spi.c ****          (#@) Disable SPI using the SPI_Cmd() function.
 947:libs/STM32F30x_StdPeriph_Driver/src/stm32f30x_spi.c ****          (#@) Disable the CRC calculation using the SPI_CalculateCRC() function.
 948:libs/STM32F30x_StdPeriph_Driver/src/stm32f30x_spi.c ****          (#@) Enable the CRC calculation using the SPI_CalculateCRC() function.
 949:libs/STM32F30x_StdPeriph_Driver/src/stm32f30x_spi.c ****          (#@) Enable SPI using the SPI_Cmd() function.
 950:libs/STM32F30x_StdPeriph_Driver/src/stm32f30x_spi.c **** 
 951:libs/STM32F30x_StdPeriph_Driver/src/stm32f30x_spi.c **** @endverbatim
 952:libs/STM32F30x_StdPeriph_Driver/src/stm32f30x_spi.c ****   * @{
 953:libs/STM32F30x_StdPeriph_Driver/src/stm32f30x_spi.c ****   */
 954:libs/STM32F30x_StdPeriph_Driver/src/stm32f30x_spi.c **** 
 955:libs/STM32F30x_StdPeriph_Driver/src/stm32f30x_spi.c **** /**
 956:libs/STM32F30x_StdPeriph_Driver/src/stm32f30x_spi.c ****   * @brief  Configures the CRC calculation length for the selected SPI.
 957:libs/STM32F30x_StdPeriph_Driver/src/stm32f30x_spi.c ****   * @param  SPIx: where x can be 1, 2 or 3 to select the SPI peripheral.
 958:libs/STM32F30x_StdPeriph_Driver/src/stm32f30x_spi.c ****   * @param  SPI_CRCLength: specifies the SPI CRC calculation length.
 959:libs/STM32F30x_StdPeriph_Driver/src/stm32f30x_spi.c ****   *   This parameter can be one of the following values:
 960:libs/STM32F30x_StdPeriph_Driver/src/stm32f30x_spi.c ****   *     @arg SPI_CRCLength_8b: Set CRC Calculation to 8 bits
 961:libs/STM32F30x_StdPeriph_Driver/src/stm32f30x_spi.c ****   *     @arg SPI_CRCLength_16b: Set CRC Calculation to 16 bits
 962:libs/STM32F30x_StdPeriph_Driver/src/stm32f30x_spi.c ****   * @retval None
 963:libs/STM32F30x_StdPeriph_Driver/src/stm32f30x_spi.c ****   */
 964:libs/STM32F30x_StdPeriph_Driver/src/stm32f30x_spi.c **** void SPI_CRCLengthConfig(SPI_TypeDef* SPIx, uint16_t SPI_CRCLength)
 965:libs/STM32F30x_StdPeriph_Driver/src/stm32f30x_spi.c **** {
 1428              		.loc 1 965 0
 1429              		.cfi_startproc
 1430              		@ args = 0, pretend = 0, frame = 8
 1431              		@ frame_needed = 1, uses_anonymous_args = 0
 1432              		@ link register save eliminated.
 1433 0000 80B4     		push	{r7}
 1434              	.LCFI57:
 1435              		.cfi_def_cfa_offset 4
 1436              		.cfi_offset 7, -4
 1437 0002 83B0     		sub	sp, sp, #12
 1438              	.LCFI58:
 1439              		.cfi_def_cfa_offset 16
 1440 0004 00AF     		add	r7, sp, #0
 1441              	.LCFI59:
 1442              		.cfi_def_cfa_register 7
 1443 0006 7860     		str	r0, [r7, #4]
 1444 0008 0B46     		mov	r3, r1
 1445 000a 7B80     		strh	r3, [r7, #2]	@ movhi
 966:libs/STM32F30x_StdPeriph_Driver/src/stm32f30x_spi.c ****   /* Check the parameters */
 967:libs/STM32F30x_StdPeriph_Driver/src/stm32f30x_spi.c ****   //assert_param(IS_SPI_ALL_PERIPH(SPIx));
 968:libs/STM32F30x_StdPeriph_Driver/src/stm32f30x_spi.c ****   //assert_param(IS_SPI_CRC_LENGTH(SPI_CRCLength));
 969:libs/STM32F30x_StdPeriph_Driver/src/stm32f30x_spi.c **** 
 970:libs/STM32F30x_StdPeriph_Driver/src/stm32f30x_spi.c ****   /* Clear CRCL bit */
 971:libs/STM32F30x_StdPeriph_Driver/src/stm32f30x_spi.c ****   SPIx->CR1 &= (uint16_t)~((uint16_t)SPI_CR1_CRCL);
 1446              		.loc 1 971 0
 1447 000c 7B68     		ldr	r3, [r7, #4]
 1448 000e 1B88     		ldrh	r3, [r3, #0]	@ movhi
 1449 0010 9BB2     		uxth	r3, r3
 1450 0012 23F40063 		bic	r3, r3, #2048
 1451 0016 9AB2     		uxth	r2, r3
 1452 0018 7B68     		ldr	r3, [r7, #4]
 1453 001a 1A80     		strh	r2, [r3, #0]	@ movhi
 972:libs/STM32F30x_StdPeriph_Driver/src/stm32f30x_spi.c **** 
 973:libs/STM32F30x_StdPeriph_Driver/src/stm32f30x_spi.c ****   /* Set new CRCL bit value */
 974:libs/STM32F30x_StdPeriph_Driver/src/stm32f30x_spi.c ****   SPIx->CR1 |= SPI_CRCLength;
 1454              		.loc 1 974 0
 1455 001c 7B68     		ldr	r3, [r7, #4]
 1456 001e 1B88     		ldrh	r3, [r3, #0]	@ movhi
 1457 0020 9AB2     		uxth	r2, r3
 1458 0022 7B88     		ldrh	r3, [r7, #2]	@ movhi
 1459 0024 1343     		orrs	r3, r3, r2
 1460 0026 9AB2     		uxth	r2, r3
 1461 0028 7B68     		ldr	r3, [r7, #4]
 1462 002a 1A80     		strh	r2, [r3, #0]	@ movhi
 975:libs/STM32F30x_StdPeriph_Driver/src/stm32f30x_spi.c **** }
 1463              		.loc 1 975 0
 1464 002c 07F10C07 		add	r7, r7, #12
 1465 0030 BD46     		mov	sp, r7
 1466 0032 80BC     		pop	{r7}
 1467 0034 7047     		bx	lr
 1468              		.cfi_endproc
 1469              	.LFE129:
 1471 0036 00BF     		.section	.text.SPI_CalculateCRC,"ax",%progbits
 1472              		.align	2
 1473              		.global	SPI_CalculateCRC
 1474              		.thumb
 1475              		.thumb_func
 1477              	SPI_CalculateCRC:
 1478              	.LFB130:
 976:libs/STM32F30x_StdPeriph_Driver/src/stm32f30x_spi.c **** 
 977:libs/STM32F30x_StdPeriph_Driver/src/stm32f30x_spi.c **** /**
 978:libs/STM32F30x_StdPeriph_Driver/src/stm32f30x_spi.c ****   * @brief  Enables or disables the CRC value calculation of the transferred bytes.
 979:libs/STM32F30x_StdPeriph_Driver/src/stm32f30x_spi.c ****   * @param  SPIx: where x can be 1, 2 or 3 to select the SPI peripheral.
 980:libs/STM32F30x_StdPeriph_Driver/src/stm32f30x_spi.c ****   * @param  NewState: new state of the SPIx CRC value calculation.
 981:libs/STM32F30x_StdPeriph_Driver/src/stm32f30x_spi.c ****   *   This parameter can be: ENABLE or DISABLE.
 982:libs/STM32F30x_StdPeriph_Driver/src/stm32f30x_spi.c ****   * @retval None
 983:libs/STM32F30x_StdPeriph_Driver/src/stm32f30x_spi.c ****   */
 984:libs/STM32F30x_StdPeriph_Driver/src/stm32f30x_spi.c **** void SPI_CalculateCRC(SPI_TypeDef* SPIx, FunctionalState NewState)
 985:libs/STM32F30x_StdPeriph_Driver/src/stm32f30x_spi.c **** {
 1479              		.loc 1 985 0
 1480              		.cfi_startproc
 1481              		@ args = 0, pretend = 0, frame = 8
 1482              		@ frame_needed = 1, uses_anonymous_args = 0
 1483              		@ link register save eliminated.
 1484 0000 80B4     		push	{r7}
 1485              	.LCFI60:
 1486              		.cfi_def_cfa_offset 4
 1487              		.cfi_offset 7, -4
 1488 0002 83B0     		sub	sp, sp, #12
 1489              	.LCFI61:
 1490              		.cfi_def_cfa_offset 16
 1491 0004 00AF     		add	r7, sp, #0
 1492              	.LCFI62:
 1493              		.cfi_def_cfa_register 7
 1494 0006 7860     		str	r0, [r7, #4]
 1495 0008 0B46     		mov	r3, r1
 1496 000a FB70     		strb	r3, [r7, #3]
 986:libs/STM32F30x_StdPeriph_Driver/src/stm32f30x_spi.c ****   /* Check the parameters */
 987:libs/STM32F30x_StdPeriph_Driver/src/stm32f30x_spi.c ****   //assert_param(IS_SPI_ALL_PERIPH(SPIx));
 988:libs/STM32F30x_StdPeriph_Driver/src/stm32f30x_spi.c ****   //assert_param(IS_FUNCTIONAL_STATE(NewState));
 989:libs/STM32F30x_StdPeriph_Driver/src/stm32f30x_spi.c **** 
 990:libs/STM32F30x_StdPeriph_Driver/src/stm32f30x_spi.c ****   if (NewState != DISABLE)
 1497              		.loc 1 990 0
 1498 000c FB78     		ldrb	r3, [r7, #3]	@ zero_extendqisi2
 1499 000e 002B     		cmp	r3, #0
 1500 0010 08D0     		beq	.L59
 991:libs/STM32F30x_StdPeriph_Driver/src/stm32f30x_spi.c ****   {
 992:libs/STM32F30x_StdPeriph_Driver/src/stm32f30x_spi.c ****     /* Enable the selected SPI CRC calculation */
 993:libs/STM32F30x_StdPeriph_Driver/src/stm32f30x_spi.c ****     SPIx->CR1 |= SPI_CR1_CRCEN;
 1501              		.loc 1 993 0
 1502 0012 7B68     		ldr	r3, [r7, #4]
 1503 0014 1B88     		ldrh	r3, [r3, #0]	@ movhi
 1504 0016 9BB2     		uxth	r3, r3
 1505 0018 43F40053 		orr	r3, r3, #8192
 1506 001c 9AB2     		uxth	r2, r3
 1507 001e 7B68     		ldr	r3, [r7, #4]
 1508 0020 1A80     		strh	r2, [r3, #0]	@ movhi
 1509 0022 07E0     		b	.L58
 1510              	.L59:
 994:libs/STM32F30x_StdPeriph_Driver/src/stm32f30x_spi.c ****   }
 995:libs/STM32F30x_StdPeriph_Driver/src/stm32f30x_spi.c ****   else
 996:libs/STM32F30x_StdPeriph_Driver/src/stm32f30x_spi.c ****   {
 997:libs/STM32F30x_StdPeriph_Driver/src/stm32f30x_spi.c ****     /* Disable the selected SPI CRC calculation */
 998:libs/STM32F30x_StdPeriph_Driver/src/stm32f30x_spi.c ****     SPIx->CR1 &= (uint16_t)~((uint16_t)SPI_CR1_CRCEN);
 1511              		.loc 1 998 0
 1512 0024 7B68     		ldr	r3, [r7, #4]
 1513 0026 1B88     		ldrh	r3, [r3, #0]	@ movhi
 1514 0028 9BB2     		uxth	r3, r3
 1515 002a 23F40053 		bic	r3, r3, #8192
 1516 002e 9AB2     		uxth	r2, r3
 1517 0030 7B68     		ldr	r3, [r7, #4]
 1518 0032 1A80     		strh	r2, [r3, #0]	@ movhi
 1519              	.L58:
 999:libs/STM32F30x_StdPeriph_Driver/src/stm32f30x_spi.c ****   }
1000:libs/STM32F30x_StdPeriph_Driver/src/stm32f30x_spi.c **** }
 1520              		.loc 1 1000 0
 1521 0034 07F10C07 		add	r7, r7, #12
 1522 0038 BD46     		mov	sp, r7
 1523 003a 80BC     		pop	{r7}
 1524 003c 7047     		bx	lr
 1525              		.cfi_endproc
 1526              	.LFE130:
 1528 003e 00BF     		.section	.text.SPI_TransmitCRC,"ax",%progbits
 1529              		.align	2
 1530              		.global	SPI_TransmitCRC
 1531              		.thumb
 1532              		.thumb_func
 1534              	SPI_TransmitCRC:
 1535              	.LFB131:
1001:libs/STM32F30x_StdPeriph_Driver/src/stm32f30x_spi.c **** 
1002:libs/STM32F30x_StdPeriph_Driver/src/stm32f30x_spi.c **** /**
1003:libs/STM32F30x_StdPeriph_Driver/src/stm32f30x_spi.c ****   * @brief  Transmits the SPIx CRC value.
1004:libs/STM32F30x_StdPeriph_Driver/src/stm32f30x_spi.c ****   * @param  SPIx: where x can be 1, 2 or 3 to select the SPI peripheral.
1005:libs/STM32F30x_StdPeriph_Driver/src/stm32f30x_spi.c ****   * @retval None
1006:libs/STM32F30x_StdPeriph_Driver/src/stm32f30x_spi.c ****   */
1007:libs/STM32F30x_StdPeriph_Driver/src/stm32f30x_spi.c **** void SPI_TransmitCRC(SPI_TypeDef* SPIx)
1008:libs/STM32F30x_StdPeriph_Driver/src/stm32f30x_spi.c **** {
 1536              		.loc 1 1008 0
 1537              		.cfi_startproc
 1538              		@ args = 0, pretend = 0, frame = 8
 1539              		@ frame_needed = 1, uses_anonymous_args = 0
 1540              		@ link register save eliminated.
 1541 0000 80B4     		push	{r7}
 1542              	.LCFI63:
 1543              		.cfi_def_cfa_offset 4
 1544              		.cfi_offset 7, -4
 1545 0002 83B0     		sub	sp, sp, #12
 1546              	.LCFI64:
 1547              		.cfi_def_cfa_offset 16
 1548 0004 00AF     		add	r7, sp, #0
 1549              	.LCFI65:
 1550              		.cfi_def_cfa_register 7
 1551 0006 7860     		str	r0, [r7, #4]
1009:libs/STM32F30x_StdPeriph_Driver/src/stm32f30x_spi.c ****   /* Check the parameters */
1010:libs/STM32F30x_StdPeriph_Driver/src/stm32f30x_spi.c ****   //assert_param(IS_SPI_ALL_PERIPH(SPIx));
1011:libs/STM32F30x_StdPeriph_Driver/src/stm32f30x_spi.c **** 
1012:libs/STM32F30x_StdPeriph_Driver/src/stm32f30x_spi.c ****   /* Enable the selected SPI CRC transmission */
1013:libs/STM32F30x_StdPeriph_Driver/src/stm32f30x_spi.c ****   SPIx->CR1 |= SPI_CR1_CRCNEXT;
 1552              		.loc 1 1013 0
 1553 0008 7B68     		ldr	r3, [r7, #4]
 1554 000a 1B88     		ldrh	r3, [r3, #0]	@ movhi
 1555 000c 9BB2     		uxth	r3, r3
 1556 000e 43F48053 		orr	r3, r3, #4096
 1557 0012 9AB2     		uxth	r2, r3
 1558 0014 7B68     		ldr	r3, [r7, #4]
 1559 0016 1A80     		strh	r2, [r3, #0]	@ movhi
1014:libs/STM32F30x_StdPeriph_Driver/src/stm32f30x_spi.c **** }
 1560              		.loc 1 1014 0
 1561 0018 07F10C07 		add	r7, r7, #12
 1562 001c BD46     		mov	sp, r7
 1563 001e 80BC     		pop	{r7}
 1564 0020 7047     		bx	lr
 1565              		.cfi_endproc
 1566              	.LFE131:
 1568 0022 00BF     		.section	.text.SPI_GetCRC,"ax",%progbits
 1569              		.align	2
 1570              		.global	SPI_GetCRC
 1571              		.thumb
 1572              		.thumb_func
 1574              	SPI_GetCRC:
 1575              	.LFB132:
1015:libs/STM32F30x_StdPeriph_Driver/src/stm32f30x_spi.c **** 
1016:libs/STM32F30x_StdPeriph_Driver/src/stm32f30x_spi.c **** /**
1017:libs/STM32F30x_StdPeriph_Driver/src/stm32f30x_spi.c ****   * @brief  Returns the transmit or the receive CRC register value for the specified SPI.
1018:libs/STM32F30x_StdPeriph_Driver/src/stm32f30x_spi.c ****   * @param  SPIx: where x can be 1, 2 or 3 to select the SPI peripheral.
1019:libs/STM32F30x_StdPeriph_Driver/src/stm32f30x_spi.c ****   * @param  SPI_CRC: specifies the CRC register to be read.
1020:libs/STM32F30x_StdPeriph_Driver/src/stm32f30x_spi.c ****   *   This parameter can be one of the following values:
1021:libs/STM32F30x_StdPeriph_Driver/src/stm32f30x_spi.c ****   *     @arg SPI_CRC_Tx: Selects Tx CRC register
1022:libs/STM32F30x_StdPeriph_Driver/src/stm32f30x_spi.c ****   *     @arg SPI_CRC_Rx: Selects Rx CRC register
1023:libs/STM32F30x_StdPeriph_Driver/src/stm32f30x_spi.c ****   * @retval The selected CRC register value..
1024:libs/STM32F30x_StdPeriph_Driver/src/stm32f30x_spi.c ****   */
1025:libs/STM32F30x_StdPeriph_Driver/src/stm32f30x_spi.c **** uint16_t SPI_GetCRC(SPI_TypeDef* SPIx, uint8_t SPI_CRC)
1026:libs/STM32F30x_StdPeriph_Driver/src/stm32f30x_spi.c **** {
 1576              		.loc 1 1026 0
 1577              		.cfi_startproc
 1578              		@ args = 0, pretend = 0, frame = 16
 1579              		@ frame_needed = 1, uses_anonymous_args = 0
 1580              		@ link register save eliminated.
 1581 0000 80B4     		push	{r7}
 1582              	.LCFI66:
 1583              		.cfi_def_cfa_offset 4
 1584              		.cfi_offset 7, -4
 1585 0002 85B0     		sub	sp, sp, #20
 1586              	.LCFI67:
 1587              		.cfi_def_cfa_offset 24
 1588 0004 00AF     		add	r7, sp, #0
 1589              	.LCFI68:
 1590              		.cfi_def_cfa_register 7
 1591 0006 7860     		str	r0, [r7, #4]
 1592 0008 0B46     		mov	r3, r1
 1593 000a FB70     		strb	r3, [r7, #3]
1027:libs/STM32F30x_StdPeriph_Driver/src/stm32f30x_spi.c ****   uint16_t crcreg = 0;
 1594              		.loc 1 1027 0
 1595 000c 4FF00003 		mov	r3, #0
 1596 0010 FB81     		strh	r3, [r7, #14]	@ movhi
1028:libs/STM32F30x_StdPeriph_Driver/src/stm32f30x_spi.c ****   /* Check the parameters */
1029:libs/STM32F30x_StdPeriph_Driver/src/stm32f30x_spi.c ****   //assert_param(IS_SPI_ALL_PERIPH(SPIx));
1030:libs/STM32F30x_StdPeriph_Driver/src/stm32f30x_spi.c ****   //assert_param(IS_SPI_CRC(SPI_CRC));
1031:libs/STM32F30x_StdPeriph_Driver/src/stm32f30x_spi.c **** 
1032:libs/STM32F30x_StdPeriph_Driver/src/stm32f30x_spi.c ****   if (SPI_CRC != SPI_CRC_Rx)
 1597              		.loc 1 1032 0
 1598 0012 FB78     		ldrb	r3, [r7, #3]	@ zero_extendqisi2
 1599 0014 012B     		cmp	r3, #1
 1600 0016 03D0     		beq	.L63
1033:libs/STM32F30x_StdPeriph_Driver/src/stm32f30x_spi.c ****   {
1034:libs/STM32F30x_StdPeriph_Driver/src/stm32f30x_spi.c ****     /* Get the Tx CRC register */
1035:libs/STM32F30x_StdPeriph_Driver/src/stm32f30x_spi.c ****     crcreg = SPIx->TXCRCR;
 1601              		.loc 1 1035 0
 1602 0018 7B68     		ldr	r3, [r7, #4]
 1603 001a 1B8B     		ldrh	r3, [r3, #24]	@ movhi
 1604 001c FB81     		strh	r3, [r7, #14]	@ movhi
 1605 001e 02E0     		b	.L64
 1606              	.L63:
1036:libs/STM32F30x_StdPeriph_Driver/src/stm32f30x_spi.c ****   }
1037:libs/STM32F30x_StdPeriph_Driver/src/stm32f30x_spi.c ****   else
1038:libs/STM32F30x_StdPeriph_Driver/src/stm32f30x_spi.c ****   {
1039:libs/STM32F30x_StdPeriph_Driver/src/stm32f30x_spi.c ****     /* Get the Rx CRC register */
1040:libs/STM32F30x_StdPeriph_Driver/src/stm32f30x_spi.c ****     crcreg = SPIx->RXCRCR;
 1607              		.loc 1 1040 0
 1608 0020 7B68     		ldr	r3, [r7, #4]
 1609 0022 9B8A     		ldrh	r3, [r3, #20]	@ movhi
 1610 0024 FB81     		strh	r3, [r7, #14]	@ movhi
 1611              	.L64:
1041:libs/STM32F30x_StdPeriph_Driver/src/stm32f30x_spi.c ****   }
1042:libs/STM32F30x_StdPeriph_Driver/src/stm32f30x_spi.c ****   /* Return the selected CRC register */
1043:libs/STM32F30x_StdPeriph_Driver/src/stm32f30x_spi.c ****   return crcreg;
 1612              		.loc 1 1043 0
 1613 0026 FB89     		ldrh	r3, [r7, #14]
1044:libs/STM32F30x_StdPeriph_Driver/src/stm32f30x_spi.c **** }
 1614              		.loc 1 1044 0
 1615 0028 1846     		mov	r0, r3
 1616 002a 07F11407 		add	r7, r7, #20
 1617 002e BD46     		mov	sp, r7
 1618 0030 80BC     		pop	{r7}
 1619 0032 7047     		bx	lr
 1620              		.cfi_endproc
 1621              	.LFE132:
 1623              		.section	.text.SPI_GetCRCPolynomial,"ax",%progbits
 1624              		.align	2
 1625              		.global	SPI_GetCRCPolynomial
 1626              		.thumb
 1627              		.thumb_func
 1629              	SPI_GetCRCPolynomial:
 1630              	.LFB133:
1045:libs/STM32F30x_StdPeriph_Driver/src/stm32f30x_spi.c **** 
1046:libs/STM32F30x_StdPeriph_Driver/src/stm32f30x_spi.c **** /**
1047:libs/STM32F30x_StdPeriph_Driver/src/stm32f30x_spi.c ****   * @brief  Returns the CRC Polynomial register value for the specified SPI.
1048:libs/STM32F30x_StdPeriph_Driver/src/stm32f30x_spi.c ****   * @param  SPIx: where x can be 1, 2 or 3 to select the SPI peripheral.
1049:libs/STM32F30x_StdPeriph_Driver/src/stm32f30x_spi.c ****   * @retval The CRC Polynomial register value.
1050:libs/STM32F30x_StdPeriph_Driver/src/stm32f30x_spi.c ****   */
1051:libs/STM32F30x_StdPeriph_Driver/src/stm32f30x_spi.c **** uint16_t SPI_GetCRCPolynomial(SPI_TypeDef* SPIx)
1052:libs/STM32F30x_StdPeriph_Driver/src/stm32f30x_spi.c **** {
 1631              		.loc 1 1052 0
 1632              		.cfi_startproc
 1633              		@ args = 0, pretend = 0, frame = 8
 1634              		@ frame_needed = 1, uses_anonymous_args = 0
 1635              		@ link register save eliminated.
 1636 0000 80B4     		push	{r7}
 1637              	.LCFI69:
 1638              		.cfi_def_cfa_offset 4
 1639              		.cfi_offset 7, -4
 1640 0002 83B0     		sub	sp, sp, #12
 1641              	.LCFI70:
 1642              		.cfi_def_cfa_offset 16
 1643 0004 00AF     		add	r7, sp, #0
 1644              	.LCFI71:
 1645              		.cfi_def_cfa_register 7
 1646 0006 7860     		str	r0, [r7, #4]
1053:libs/STM32F30x_StdPeriph_Driver/src/stm32f30x_spi.c ****   /* Check the parameters */
1054:libs/STM32F30x_StdPeriph_Driver/src/stm32f30x_spi.c ****   //assert_param(IS_SPI_ALL_PERIPH(SPIx));
1055:libs/STM32F30x_StdPeriph_Driver/src/stm32f30x_spi.c **** 
1056:libs/STM32F30x_StdPeriph_Driver/src/stm32f30x_spi.c ****   /* Return the CRC polynomial register */
1057:libs/STM32F30x_StdPeriph_Driver/src/stm32f30x_spi.c ****   return SPIx->CRCPR;
 1647              		.loc 1 1057 0
 1648 0008 7B68     		ldr	r3, [r7, #4]
 1649 000a 1B8A     		ldrh	r3, [r3, #16]	@ movhi
 1650 000c 9BB2     		uxth	r3, r3
1058:libs/STM32F30x_StdPeriph_Driver/src/stm32f30x_spi.c **** }
 1651              		.loc 1 1058 0
 1652 000e 1846     		mov	r0, r3
 1653 0010 07F10C07 		add	r7, r7, #12
 1654 0014 BD46     		mov	sp, r7
 1655 0016 80BC     		pop	{r7}
 1656 0018 7047     		bx	lr
 1657              		.cfi_endproc
 1658              	.LFE133:
 1660 001a 00BF     		.section	.text.SPI_I2S_DMACmd,"ax",%progbits
 1661              		.align	2
 1662              		.global	SPI_I2S_DMACmd
 1663              		.thumb
 1664              		.thumb_func
 1666              	SPI_I2S_DMACmd:
 1667              	.LFB134:
1059:libs/STM32F30x_StdPeriph_Driver/src/stm32f30x_spi.c **** 
1060:libs/STM32F30x_StdPeriph_Driver/src/stm32f30x_spi.c **** /**
1061:libs/STM32F30x_StdPeriph_Driver/src/stm32f30x_spi.c ****   * @}
1062:libs/STM32F30x_StdPeriph_Driver/src/stm32f30x_spi.c ****   */
1063:libs/STM32F30x_StdPeriph_Driver/src/stm32f30x_spi.c **** 
1064:libs/STM32F30x_StdPeriph_Driver/src/stm32f30x_spi.c **** /** @defgroup SPI_Group4 DMA transfers management functions
1065:libs/STM32F30x_StdPeriph_Driver/src/stm32f30x_spi.c ****  *  @brief   DMA transfers management functions
1066:libs/STM32F30x_StdPeriph_Driver/src/stm32f30x_spi.c ****   *
1067:libs/STM32F30x_StdPeriph_Driver/src/stm32f30x_spi.c **** @verbatim   
1068:libs/STM32F30x_StdPeriph_Driver/src/stm32f30x_spi.c ****  ===============================================================================
1069:libs/STM32F30x_StdPeriph_Driver/src/stm32f30x_spi.c ****                   ##### DMA transfers management functions #####
1070:libs/STM32F30x_StdPeriph_Driver/src/stm32f30x_spi.c ****  ===============================================================================
1071:libs/STM32F30x_StdPeriph_Driver/src/stm32f30x_spi.c **** 
1072:libs/STM32F30x_StdPeriph_Driver/src/stm32f30x_spi.c **** @endverbatim
1073:libs/STM32F30x_StdPeriph_Driver/src/stm32f30x_spi.c ****   * @{
1074:libs/STM32F30x_StdPeriph_Driver/src/stm32f30x_spi.c ****   */
1075:libs/STM32F30x_StdPeriph_Driver/src/stm32f30x_spi.c **** 
1076:libs/STM32F30x_StdPeriph_Driver/src/stm32f30x_spi.c **** /**
1077:libs/STM32F30x_StdPeriph_Driver/src/stm32f30x_spi.c ****   * @brief  Enables or disables the SPIx/I2Sx DMA interface.
1078:libs/STM32F30x_StdPeriph_Driver/src/stm32f30x_spi.c ****   * @param  SPIx:To select the SPIx/I2Sx peripheral, where x can be: 1, 2 or 3 
1079:libs/STM32F30x_StdPeriph_Driver/src/stm32f30x_spi.c ****   *         in SPI mode or 2 or 3 in I2S mode or I2Sxext for I2S full duplex mode. 
1080:libs/STM32F30x_StdPeriph_Driver/src/stm32f30x_spi.c ****   * @param  SPI_I2S_DMAReq: specifies the SPI DMA transfer request to be enabled or disabled. 
1081:libs/STM32F30x_StdPeriph_Driver/src/stm32f30x_spi.c ****   *   This parameter can be any combination of the following values:
1082:libs/STM32F30x_StdPeriph_Driver/src/stm32f30x_spi.c ****   *     @arg SPI_I2S_DMAReq_Tx: Tx buffer DMA transfer request
1083:libs/STM32F30x_StdPeriph_Driver/src/stm32f30x_spi.c ****   *     @arg SPI_I2S_DMAReq_Rx: Rx buffer DMA transfer request
1084:libs/STM32F30x_StdPeriph_Driver/src/stm32f30x_spi.c ****   * @param  NewState: new state of the selected SPI DMA transfer request.
1085:libs/STM32F30x_StdPeriph_Driver/src/stm32f30x_spi.c ****   *         This parameter can be: ENABLE or DISABLE.
1086:libs/STM32F30x_StdPeriph_Driver/src/stm32f30x_spi.c ****   * @retval None
1087:libs/STM32F30x_StdPeriph_Driver/src/stm32f30x_spi.c ****   */
1088:libs/STM32F30x_StdPeriph_Driver/src/stm32f30x_spi.c **** void SPI_I2S_DMACmd(SPI_TypeDef* SPIx, uint16_t SPI_I2S_DMAReq, FunctionalState NewState)
1089:libs/STM32F30x_StdPeriph_Driver/src/stm32f30x_spi.c **** {
 1668              		.loc 1 1089 0
 1669              		.cfi_startproc
 1670              		@ args = 0, pretend = 0, frame = 8
 1671              		@ frame_needed = 1, uses_anonymous_args = 0
 1672              		@ link register save eliminated.
 1673 0000 80B4     		push	{r7}
 1674              	.LCFI72:
 1675              		.cfi_def_cfa_offset 4
 1676              		.cfi_offset 7, -4
 1677 0002 83B0     		sub	sp, sp, #12
 1678              	.LCFI73:
 1679              		.cfi_def_cfa_offset 16
 1680 0004 00AF     		add	r7, sp, #0
 1681              	.LCFI74:
 1682              		.cfi_def_cfa_register 7
 1683 0006 7860     		str	r0, [r7, #4]
 1684 0008 1346     		mov	r3, r2
 1685 000a 0A46     		mov	r2, r1	@ movhi
 1686 000c 7A80     		strh	r2, [r7, #2]	@ movhi
 1687 000e 7B70     		strb	r3, [r7, #1]
1090:libs/STM32F30x_StdPeriph_Driver/src/stm32f30x_spi.c ****   /* Check the parameters */
1091:libs/STM32F30x_StdPeriph_Driver/src/stm32f30x_spi.c ****   //assert_param(IS_SPI_ALL_PERIPH_EXT(SPIx));
1092:libs/STM32F30x_StdPeriph_Driver/src/stm32f30x_spi.c ****   //assert_param(IS_FUNCTIONAL_STATE(NewState));
1093:libs/STM32F30x_StdPeriph_Driver/src/stm32f30x_spi.c ****   //assert_param(IS_SPI_I2S_DMA_REQ(SPI_I2S_DMAReq));
1094:libs/STM32F30x_StdPeriph_Driver/src/stm32f30x_spi.c **** 
1095:libs/STM32F30x_StdPeriph_Driver/src/stm32f30x_spi.c ****   if (NewState != DISABLE)
 1688              		.loc 1 1095 0
 1689 0010 7B78     		ldrb	r3, [r7, #1]	@ zero_extendqisi2
 1690 0012 002B     		cmp	r3, #0
 1691 0014 08D0     		beq	.L69
1096:libs/STM32F30x_StdPeriph_Driver/src/stm32f30x_spi.c ****   {
1097:libs/STM32F30x_StdPeriph_Driver/src/stm32f30x_spi.c ****     /* Enable the selected SPI DMA requests */
1098:libs/STM32F30x_StdPeriph_Driver/src/stm32f30x_spi.c ****     SPIx->CR2 |= SPI_I2S_DMAReq;
 1692              		.loc 1 1098 0
 1693 0016 7B68     		ldr	r3, [r7, #4]
 1694 0018 9B88     		ldrh	r3, [r3, #4]	@ movhi
 1695 001a 9AB2     		uxth	r2, r3
 1696 001c 7B88     		ldrh	r3, [r7, #2]	@ movhi
 1697 001e 1343     		orrs	r3, r3, r2
 1698 0020 9AB2     		uxth	r2, r3
 1699 0022 7B68     		ldr	r3, [r7, #4]
 1700 0024 9A80     		strh	r2, [r3, #4]	@ movhi
 1701 0026 0AE0     		b	.L68
 1702              	.L69:
1099:libs/STM32F30x_StdPeriph_Driver/src/stm32f30x_spi.c ****   }
1100:libs/STM32F30x_StdPeriph_Driver/src/stm32f30x_spi.c ****   else
1101:libs/STM32F30x_StdPeriph_Driver/src/stm32f30x_spi.c ****   {
1102:libs/STM32F30x_StdPeriph_Driver/src/stm32f30x_spi.c ****     /* Disable the selected SPI DMA requests */
1103:libs/STM32F30x_StdPeriph_Driver/src/stm32f30x_spi.c ****     SPIx->CR2 &= (uint16_t)~SPI_I2S_DMAReq;
 1703              		.loc 1 1103 0
 1704 0028 7B68     		ldr	r3, [r7, #4]
 1705 002a 9B88     		ldrh	r3, [r3, #4]	@ movhi
 1706 002c 9AB2     		uxth	r2, r3
 1707 002e 7B88     		ldrh	r3, [r7, #2]	@ movhi
 1708 0030 6FEA0303 		mvn	r3, r3
 1709 0034 9BB2     		uxth	r3, r3
 1710 0036 1340     		ands	r3, r3, r2
 1711 0038 9AB2     		uxth	r2, r3
 1712 003a 7B68     		ldr	r3, [r7, #4]
 1713 003c 9A80     		strh	r2, [r3, #4]	@ movhi
 1714              	.L68:
1104:libs/STM32F30x_StdPeriph_Driver/src/stm32f30x_spi.c ****   }
1105:libs/STM32F30x_StdPeriph_Driver/src/stm32f30x_spi.c **** }
 1715              		.loc 1 1105 0
 1716 003e 07F10C07 		add	r7, r7, #12
 1717 0042 BD46     		mov	sp, r7
 1718 0044 80BC     		pop	{r7}
 1719 0046 7047     		bx	lr
 1720              		.cfi_endproc
 1721              	.LFE134:
 1723              		.section	.text.SPI_LastDMATransferCmd,"ax",%progbits
 1724              		.align	2
 1725              		.global	SPI_LastDMATransferCmd
 1726              		.thumb
 1727              		.thumb_func
 1729              	SPI_LastDMATransferCmd:
 1730              	.LFB135:
1106:libs/STM32F30x_StdPeriph_Driver/src/stm32f30x_spi.c **** 
1107:libs/STM32F30x_StdPeriph_Driver/src/stm32f30x_spi.c **** /**
1108:libs/STM32F30x_StdPeriph_Driver/src/stm32f30x_spi.c ****   * @brief  Configures the number of data to transfer type(Even/Odd) for the DMA
1109:libs/STM32F30x_StdPeriph_Driver/src/stm32f30x_spi.c ****   *         last transfers and for the selected SPI.
1110:libs/STM32F30x_StdPeriph_Driver/src/stm32f30x_spi.c ****   * @note   This function have a meaning only if DMA mode is selected and if 
1111:libs/STM32F30x_StdPeriph_Driver/src/stm32f30x_spi.c ****   *         the packing mode is used (data length <= 8 and DMA transfer size halfword)  
1112:libs/STM32F30x_StdPeriph_Driver/src/stm32f30x_spi.c ****   * @param  SPIx: where x can be 1, 2 or 3 to select the SPI peripheral.
1113:libs/STM32F30x_StdPeriph_Driver/src/stm32f30x_spi.c ****   * @param  SPI_LastDMATransfer: specifies the SPI last DMA transfers state.
1114:libs/STM32F30x_StdPeriph_Driver/src/stm32f30x_spi.c ****   *   This parameter can be one of the following values:
1115:libs/STM32F30x_StdPeriph_Driver/src/stm32f30x_spi.c ****   *     @arg SPI_LastDMATransfer_TxEvenRxEven: Number of data for transmission Even
1116:libs/STM32F30x_StdPeriph_Driver/src/stm32f30x_spi.c ****   *          and number of data for reception Even.
1117:libs/STM32F30x_StdPeriph_Driver/src/stm32f30x_spi.c ****   *     @arg SPI_LastDMATransfer_TxOddRxEven: Number of data for transmission Odd
1118:libs/STM32F30x_StdPeriph_Driver/src/stm32f30x_spi.c ****   *          and number of data for reception Even.
1119:libs/STM32F30x_StdPeriph_Driver/src/stm32f30x_spi.c ****   *     @arg SPI_LastDMATransfer_TxEvenRxOdd: Number of data for transmission Even
1120:libs/STM32F30x_StdPeriph_Driver/src/stm32f30x_spi.c ****   *          and number of data for reception Odd.
1121:libs/STM32F30x_StdPeriph_Driver/src/stm32f30x_spi.c ****   *     @arg SPI_LastDMATransfer_TxOddRxOdd: RNumber of data for transmission Odd
1122:libs/STM32F30x_StdPeriph_Driver/src/stm32f30x_spi.c ****   *          and number of data for reception Odd.
1123:libs/STM32F30x_StdPeriph_Driver/src/stm32f30x_spi.c ****   * @retval None
1124:libs/STM32F30x_StdPeriph_Driver/src/stm32f30x_spi.c ****   */
1125:libs/STM32F30x_StdPeriph_Driver/src/stm32f30x_spi.c **** void SPI_LastDMATransferCmd(SPI_TypeDef* SPIx, uint16_t SPI_LastDMATransfer)
1126:libs/STM32F30x_StdPeriph_Driver/src/stm32f30x_spi.c **** {
 1731              		.loc 1 1126 0
 1732              		.cfi_startproc
 1733              		@ args = 0, pretend = 0, frame = 8
 1734              		@ frame_needed = 1, uses_anonymous_args = 0
 1735              		@ link register save eliminated.
 1736 0000 80B4     		push	{r7}
 1737              	.LCFI75:
 1738              		.cfi_def_cfa_offset 4
 1739              		.cfi_offset 7, -4
 1740 0002 83B0     		sub	sp, sp, #12
 1741              	.LCFI76:
 1742              		.cfi_def_cfa_offset 16
 1743 0004 00AF     		add	r7, sp, #0
 1744              	.LCFI77:
 1745              		.cfi_def_cfa_register 7
 1746 0006 7860     		str	r0, [r7, #4]
 1747 0008 0B46     		mov	r3, r1
 1748 000a 7B80     		strh	r3, [r7, #2]	@ movhi
1127:libs/STM32F30x_StdPeriph_Driver/src/stm32f30x_spi.c ****   /* Check the parameters */
1128:libs/STM32F30x_StdPeriph_Driver/src/stm32f30x_spi.c ****   //assert_param(IS_SPI_ALL_PERIPH(SPIx));
1129:libs/STM32F30x_StdPeriph_Driver/src/stm32f30x_spi.c ****   //assert_param(IS_SPI_LAST_DMA_TRANSFER(SPI_LastDMATransfer));
1130:libs/STM32F30x_StdPeriph_Driver/src/stm32f30x_spi.c **** 
1131:libs/STM32F30x_StdPeriph_Driver/src/stm32f30x_spi.c ****   /* Clear LDMA_TX and LDMA_RX bits */
1132:libs/STM32F30x_StdPeriph_Driver/src/stm32f30x_spi.c ****   SPIx->CR2 &= CR2_LDMA_MASK;
 1749              		.loc 1 1132 0
 1750 000c 7B68     		ldr	r3, [r7, #4]
 1751 000e 9B88     		ldrh	r3, [r3, #4]	@ movhi
 1752 0010 9BB2     		uxth	r3, r3
 1753 0012 23F4C043 		bic	r3, r3, #24576
 1754 0016 9AB2     		uxth	r2, r3
 1755 0018 7B68     		ldr	r3, [r7, #4]
 1756 001a 9A80     		strh	r2, [r3, #4]	@ movhi
1133:libs/STM32F30x_StdPeriph_Driver/src/stm32f30x_spi.c **** 
1134:libs/STM32F30x_StdPeriph_Driver/src/stm32f30x_spi.c ****   /* Set new LDMA_TX and LDMA_RX bits value */
1135:libs/STM32F30x_StdPeriph_Driver/src/stm32f30x_spi.c ****   SPIx->CR2 |= SPI_LastDMATransfer; 
 1757              		.loc 1 1135 0
 1758 001c 7B68     		ldr	r3, [r7, #4]
 1759 001e 9B88     		ldrh	r3, [r3, #4]	@ movhi
 1760 0020 9AB2     		uxth	r2, r3
 1761 0022 7B88     		ldrh	r3, [r7, #2]	@ movhi
 1762 0024 1343     		orrs	r3, r3, r2
 1763 0026 9AB2     		uxth	r2, r3
 1764 0028 7B68     		ldr	r3, [r7, #4]
 1765 002a 9A80     		strh	r2, [r3, #4]	@ movhi
1136:libs/STM32F30x_StdPeriph_Driver/src/stm32f30x_spi.c **** }
 1766              		.loc 1 1136 0
 1767 002c 07F10C07 		add	r7, r7, #12
 1768 0030 BD46     		mov	sp, r7
 1769 0032 80BC     		pop	{r7}
 1770 0034 7047     		bx	lr
 1771              		.cfi_endproc
 1772              	.LFE135:
 1774 0036 00BF     		.section	.text.SPI_I2S_ITConfig,"ax",%progbits
 1775              		.align	2
 1776              		.global	SPI_I2S_ITConfig
 1777              		.thumb
 1778              		.thumb_func
 1780              	SPI_I2S_ITConfig:
 1781              	.LFB136:
1137:libs/STM32F30x_StdPeriph_Driver/src/stm32f30x_spi.c **** 
1138:libs/STM32F30x_StdPeriph_Driver/src/stm32f30x_spi.c **** /**
1139:libs/STM32F30x_StdPeriph_Driver/src/stm32f30x_spi.c ****   * @}
1140:libs/STM32F30x_StdPeriph_Driver/src/stm32f30x_spi.c ****   */
1141:libs/STM32F30x_StdPeriph_Driver/src/stm32f30x_spi.c **** 
1142:libs/STM32F30x_StdPeriph_Driver/src/stm32f30x_spi.c **** /** @defgroup SPI_Group5 Interrupts and flags management functions
1143:libs/STM32F30x_StdPeriph_Driver/src/stm32f30x_spi.c ****  *  @brief   Interrupts and flags management functions
1144:libs/STM32F30x_StdPeriph_Driver/src/stm32f30x_spi.c ****   *
1145:libs/STM32F30x_StdPeriph_Driver/src/stm32f30x_spi.c **** @verbatim   
1146:libs/STM32F30x_StdPeriph_Driver/src/stm32f30x_spi.c ****  ===============================================================================
1147:libs/STM32F30x_StdPeriph_Driver/src/stm32f30x_spi.c ****               ##### Interrupts and flags management functions #####
1148:libs/STM32F30x_StdPeriph_Driver/src/stm32f30x_spi.c ****  ===============================================================================  
1149:libs/STM32F30x_StdPeriph_Driver/src/stm32f30x_spi.c ****     [..] This section provides a set of functions allowing to configure the SPI/I2S 
1150:libs/STM32F30x_StdPeriph_Driver/src/stm32f30x_spi.c ****          Interrupts sources and check or clear the flags or pending bits status.
1151:libs/STM32F30x_StdPeriph_Driver/src/stm32f30x_spi.c ****          The user should identify which mode will be used in his application to manage 
1152:libs/STM32F30x_StdPeriph_Driver/src/stm32f30x_spi.c ****          the communication: Polling mode, Interrupt mode or DMA mode. 
1153:libs/STM32F30x_StdPeriph_Driver/src/stm32f30x_spi.c ****     
1154:libs/STM32F30x_StdPeriph_Driver/src/stm32f30x_spi.c ****   *** Polling Mode ***
1155:libs/STM32F30x_StdPeriph_Driver/src/stm32f30x_spi.c ****   ====================
1156:libs/STM32F30x_StdPeriph_Driver/src/stm32f30x_spi.c ****     [..] In Polling Mode, the SPI/I2S communication can be managed by 9 flags:
1157:libs/STM32F30x_StdPeriph_Driver/src/stm32f30x_spi.c ****          (#) SPI_I2S_FLAG_TXE : to indicate the status of the transmit buffer register.
1158:libs/STM32F30x_StdPeriph_Driver/src/stm32f30x_spi.c ****          (#) SPI_I2S_FLAG_RXNE : to indicate the status of the receive buffer register.
1159:libs/STM32F30x_StdPeriph_Driver/src/stm32f30x_spi.c ****          (#) SPI_I2S_FLAG_BSY : to indicate the state of the communication layer of the SPI.
1160:libs/STM32F30x_StdPeriph_Driver/src/stm32f30x_spi.c ****          (#) SPI_FLAG_CRCERR : to indicate if a CRC Calculation error occur.              
1161:libs/STM32F30x_StdPeriph_Driver/src/stm32f30x_spi.c ****          (#) SPI_FLAG_MODF : to indicate if a Mode Fault error occur.
1162:libs/STM32F30x_StdPeriph_Driver/src/stm32f30x_spi.c ****          (#) SPI_I2S_FLAG_OVR : to indicate if an Overrun error occur.
1163:libs/STM32F30x_StdPeriph_Driver/src/stm32f30x_spi.c ****          (#) SPI_I2S_FLAG_FRE: to indicate a Frame Format error occurs.
1164:libs/STM32F30x_StdPeriph_Driver/src/stm32f30x_spi.c ****          (#) I2S_FLAG_UDR: to indicate an Underrun error occurs.
1165:libs/STM32F30x_StdPeriph_Driver/src/stm32f30x_spi.c ****          (#) I2S_FLAG_CHSIDE: to indicate Channel Side.
1166:libs/STM32F30x_StdPeriph_Driver/src/stm32f30x_spi.c ****     [..]
1167:libs/STM32F30x_StdPeriph_Driver/src/stm32f30x_spi.c ****          (@) Do not use the BSY flag to handle each data transmission or reception.
1168:libs/STM32F30x_StdPeriph_Driver/src/stm32f30x_spi.c ****              It is better to use the TXE and RXNE flags instead.
1169:libs/STM32F30x_StdPeriph_Driver/src/stm32f30x_spi.c ****     [..] In this Mode it is advised to use the following functions:
1170:libs/STM32F30x_StdPeriph_Driver/src/stm32f30x_spi.c ****          (+) FlagStatus SPI_I2S_GetFlagStatus(SPI_TypeDef* SPIx, uint16_t SPI_I2S_FLAG);
1171:libs/STM32F30x_StdPeriph_Driver/src/stm32f30x_spi.c ****          (+) void SPI_I2S_ClearFlag(SPI_TypeDef* SPIx, uint16_t SPI_I2S_FLAG);
1172:libs/STM32F30x_StdPeriph_Driver/src/stm32f30x_spi.c **** 
1173:libs/STM32F30x_StdPeriph_Driver/src/stm32f30x_spi.c ****   *** Interrupt Mode ***
1174:libs/STM32F30x_StdPeriph_Driver/src/stm32f30x_spi.c ****   ======================
1175:libs/STM32F30x_StdPeriph_Driver/src/stm32f30x_spi.c ****     [..] In Interrupt Mode, the SPI/I2S communication can be managed by 3 interrupt sources
1176:libs/STM32F30x_StdPeriph_Driver/src/stm32f30x_spi.c ****          and 5 pending bits: 
1177:libs/STM32F30x_StdPeriph_Driver/src/stm32f30x_spi.c ****     [..] Pending Bits:
1178:libs/STM32F30x_StdPeriph_Driver/src/stm32f30x_spi.c ****          (#) SPI_I2S_IT_TXE : to indicate the status of the transmit buffer register.
1179:libs/STM32F30x_StdPeriph_Driver/src/stm32f30x_spi.c ****          (#) SPI_I2S_IT_RXNE : to indicate the status of the receive buffer register.
1180:libs/STM32F30x_StdPeriph_Driver/src/stm32f30x_spi.c ****          (#) SPI_I2S_IT_OVR : to indicate if an Overrun error occur.
1181:libs/STM32F30x_StdPeriph_Driver/src/stm32f30x_spi.c ****          (#) I2S_IT_UDR : to indicate an Underrun Error occurs.
1182:libs/STM32F30x_StdPeriph_Driver/src/stm32f30x_spi.c ****          (#) SPI_I2S_FLAG_FRE : to indicate a Frame Format error occurs.
1183:libs/STM32F30x_StdPeriph_Driver/src/stm32f30x_spi.c ****     [..] Interrupt Source:
1184:libs/STM32F30x_StdPeriph_Driver/src/stm32f30x_spi.c ****          (#) SPI_I2S_IT_TXE: specifies the interrupt source for the Tx buffer empty 
1185:libs/STM32F30x_StdPeriph_Driver/src/stm32f30x_spi.c ****              interrupt.  
1186:libs/STM32F30x_StdPeriph_Driver/src/stm32f30x_spi.c ****          (#) SPI_I2S_IT_RXNE : specifies the interrupt source for the Rx buffer not 
1187:libs/STM32F30x_StdPeriph_Driver/src/stm32f30x_spi.c ****              empty interrupt.
1188:libs/STM32F30x_StdPeriph_Driver/src/stm32f30x_spi.c ****          (#) SPI_I2S_IT_ERR : specifies the interrupt source for the errors interrupt.
1189:libs/STM32F30x_StdPeriph_Driver/src/stm32f30x_spi.c ****     [..] In this Mode it is advised to use the following functions:
1190:libs/STM32F30x_StdPeriph_Driver/src/stm32f30x_spi.c ****          (+) void SPI_I2S_ITConfig(SPI_TypeDef* SPIx, uint8_t SPI_I2S_IT, FunctionalState NewState)
1191:libs/STM32F30x_StdPeriph_Driver/src/stm32f30x_spi.c ****          (+) ITStatus SPI_I2S_GetITStatus(SPI_TypeDef* SPIx, uint8_t SPI_I2S_IT);
1192:libs/STM32F30x_StdPeriph_Driver/src/stm32f30x_spi.c **** 
1193:libs/STM32F30x_StdPeriph_Driver/src/stm32f30x_spi.c ****   *** FIFO Status ***
1194:libs/STM32F30x_StdPeriph_Driver/src/stm32f30x_spi.c ****   ===================
1195:libs/STM32F30x_StdPeriph_Driver/src/stm32f30x_spi.c ****     [..] It is possible to monitor the FIFO status when a transfer is ongoing using the
1196:libs/STM32F30x_StdPeriph_Driver/src/stm32f30x_spi.c ****          following function:
1197:libs/STM32F30x_StdPeriph_Driver/src/stm32f30x_spi.c ****          (+) uint32_t SPI_GetFIFOStatus(uint8_t SPI_FIFO_Direction); 
1198:libs/STM32F30x_StdPeriph_Driver/src/stm32f30x_spi.c **** 
1199:libs/STM32F30x_StdPeriph_Driver/src/stm32f30x_spi.c ****   *** DMA Mode ***
1200:libs/STM32F30x_StdPeriph_Driver/src/stm32f30x_spi.c ****   ================
1201:libs/STM32F30x_StdPeriph_Driver/src/stm32f30x_spi.c ****     [..] In DMA Mode, the SPI communication can be managed by 2 DMA Channel requests:
1202:libs/STM32F30x_StdPeriph_Driver/src/stm32f30x_spi.c ****          (#) SPI_I2S_DMAReq_Tx: specifies the Tx buffer DMA transfer request.
1203:libs/STM32F30x_StdPeriph_Driver/src/stm32f30x_spi.c ****          (#) SPI_I2S_DMAReq_Rx: specifies the Rx buffer DMA transfer request.
1204:libs/STM32F30x_StdPeriph_Driver/src/stm32f30x_spi.c ****     [..] In this Mode it is advised to use the following function:
1205:libs/STM32F30x_StdPeriph_Driver/src/stm32f30x_spi.c ****          (+) void SPI_I2S_DMACmd(SPI_TypeDef* SPIx, uint16_t SPI_I2S_DMAReq, FunctionalState NewSta
1206:libs/STM32F30x_StdPeriph_Driver/src/stm32f30x_spi.c **** 
1207:libs/STM32F30x_StdPeriph_Driver/src/stm32f30x_spi.c **** @endverbatim
1208:libs/STM32F30x_StdPeriph_Driver/src/stm32f30x_spi.c ****   * @{
1209:libs/STM32F30x_StdPeriph_Driver/src/stm32f30x_spi.c ****   */
1210:libs/STM32F30x_StdPeriph_Driver/src/stm32f30x_spi.c **** 
1211:libs/STM32F30x_StdPeriph_Driver/src/stm32f30x_spi.c **** /**
1212:libs/STM32F30x_StdPeriph_Driver/src/stm32f30x_spi.c ****   * @brief  Enables or disables the specified SPI/I2S interrupts.
1213:libs/STM32F30x_StdPeriph_Driver/src/stm32f30x_spi.c ****   * @param  SPIx: To select the SPIx/I2Sx peripheral, where x can be: 1, 2 or 3 
1214:libs/STM32F30x_StdPeriph_Driver/src/stm32f30x_spi.c ****   *         in SPI mode or 2 or 3 in I2S mode or I2Sxext for I2S full duplex mode.  
1215:libs/STM32F30x_StdPeriph_Driver/src/stm32f30x_spi.c ****   * @param  SPI_I2S_IT: specifies the SPI interrupt source to be enabled or disabled. 
1216:libs/STM32F30x_StdPeriph_Driver/src/stm32f30x_spi.c ****   *   This parameter can be one of the following values:
1217:libs/STM32F30x_StdPeriph_Driver/src/stm32f30x_spi.c ****   *     @arg SPI_I2S_IT_TXE: Tx buffer empty interrupt mask
1218:libs/STM32F30x_StdPeriph_Driver/src/stm32f30x_spi.c ****   *     @arg SPI_I2S_IT_RXNE: Rx buffer not empty interrupt mask
1219:libs/STM32F30x_StdPeriph_Driver/src/stm32f30x_spi.c ****   *     @arg SPI_I2S_IT_ERR: Error interrupt mask
1220:libs/STM32F30x_StdPeriph_Driver/src/stm32f30x_spi.c ****   * @param  NewState: new state of the specified SPI interrupt.
1221:libs/STM32F30x_StdPeriph_Driver/src/stm32f30x_spi.c ****   *         This parameter can be: ENABLE or DISABLE.
1222:libs/STM32F30x_StdPeriph_Driver/src/stm32f30x_spi.c ****   * @retval None
1223:libs/STM32F30x_StdPeriph_Driver/src/stm32f30x_spi.c ****   */
1224:libs/STM32F30x_StdPeriph_Driver/src/stm32f30x_spi.c **** void SPI_I2S_ITConfig(SPI_TypeDef* SPIx, uint8_t SPI_I2S_IT, FunctionalState NewState)
1225:libs/STM32F30x_StdPeriph_Driver/src/stm32f30x_spi.c **** {
 1782              		.loc 1 1225 0
 1783              		.cfi_startproc
 1784              		@ args = 0, pretend = 0, frame = 16
 1785              		@ frame_needed = 1, uses_anonymous_args = 0
 1786              		@ link register save eliminated.
 1787 0000 80B4     		push	{r7}
 1788              	.LCFI78:
 1789              		.cfi_def_cfa_offset 4
 1790              		.cfi_offset 7, -4
 1791 0002 85B0     		sub	sp, sp, #20
 1792              	.LCFI79:
 1793              		.cfi_def_cfa_offset 24
 1794 0004 00AF     		add	r7, sp, #0
 1795              	.LCFI80:
 1796              		.cfi_def_cfa_register 7
 1797 0006 7860     		str	r0, [r7, #4]
 1798 0008 1346     		mov	r3, r2
 1799 000a 0A46     		mov	r2, r1
 1800 000c FA70     		strb	r2, [r7, #3]
 1801 000e BB70     		strb	r3, [r7, #2]
1226:libs/STM32F30x_StdPeriph_Driver/src/stm32f30x_spi.c ****   uint16_t itpos = 0, itmask = 0 ;
 1802              		.loc 1 1226 0
 1803 0010 4FF00003 		mov	r3, #0
 1804 0014 FB81     		strh	r3, [r7, #14]	@ movhi
 1805 0016 4FF00003 		mov	r3, #0
 1806 001a BB81     		strh	r3, [r7, #12]	@ movhi
1227:libs/STM32F30x_StdPeriph_Driver/src/stm32f30x_spi.c **** 
1228:libs/STM32F30x_StdPeriph_Driver/src/stm32f30x_spi.c ****   /* Check the parameters */
1229:libs/STM32F30x_StdPeriph_Driver/src/stm32f30x_spi.c ****   //assert_param(IS_SPI_ALL_PERIPH_EXT(SPIx));
1230:libs/STM32F30x_StdPeriph_Driver/src/stm32f30x_spi.c ****   //assert_param(IS_FUNCTIONAL_STATE(NewState));
1231:libs/STM32F30x_StdPeriph_Driver/src/stm32f30x_spi.c ****   //assert_param(IS_SPI_I2S_CONFIG_IT(SPI_I2S_IT));
1232:libs/STM32F30x_StdPeriph_Driver/src/stm32f30x_spi.c **** 
1233:libs/STM32F30x_StdPeriph_Driver/src/stm32f30x_spi.c ****   /* Get the SPI IT index */
1234:libs/STM32F30x_StdPeriph_Driver/src/stm32f30x_spi.c ****   itpos = SPI_I2S_IT >> 4;
 1807              		.loc 1 1234 0
 1808 001c FB78     		ldrb	r3, [r7, #3]	@ zero_extendqisi2
 1809 001e 4FEA1313 		lsr	r3, r3, #4
 1810 0022 DBB2     		uxtb	r3, r3
 1811 0024 FB81     		strh	r3, [r7, #14]	@ movhi
1235:libs/STM32F30x_StdPeriph_Driver/src/stm32f30x_spi.c **** 
1236:libs/STM32F30x_StdPeriph_Driver/src/stm32f30x_spi.c ****   /* Set the IT mask */
1237:libs/STM32F30x_StdPeriph_Driver/src/stm32f30x_spi.c ****   itmask = (uint16_t)1 << (uint16_t)itpos;
 1812              		.loc 1 1237 0
 1813 0026 FB89     		ldrh	r3, [r7, #14]
 1814 0028 4FF00102 		mov	r2, #1
 1815 002c 02FA03F3 		lsl	r3, r2, r3
 1816 0030 BB81     		strh	r3, [r7, #12]	@ movhi
1238:libs/STM32F30x_StdPeriph_Driver/src/stm32f30x_spi.c **** 
1239:libs/STM32F30x_StdPeriph_Driver/src/stm32f30x_spi.c ****   if (NewState != DISABLE)
 1817              		.loc 1 1239 0
 1818 0032 BB78     		ldrb	r3, [r7, #2]	@ zero_extendqisi2
 1819 0034 002B     		cmp	r3, #0
 1820 0036 08D0     		beq	.L73
1240:libs/STM32F30x_StdPeriph_Driver/src/stm32f30x_spi.c ****   {
1241:libs/STM32F30x_StdPeriph_Driver/src/stm32f30x_spi.c ****     /* Enable the selected SPI interrupt */
1242:libs/STM32F30x_StdPeriph_Driver/src/stm32f30x_spi.c ****     SPIx->CR2 |= itmask;
 1821              		.loc 1 1242 0
 1822 0038 7B68     		ldr	r3, [r7, #4]
 1823 003a 9B88     		ldrh	r3, [r3, #4]	@ movhi
 1824 003c 9AB2     		uxth	r2, r3
 1825 003e BB89     		ldrh	r3, [r7, #12]	@ movhi
 1826 0040 1343     		orrs	r3, r3, r2
 1827 0042 9AB2     		uxth	r2, r3
 1828 0044 7B68     		ldr	r3, [r7, #4]
 1829 0046 9A80     		strh	r2, [r3, #4]	@ movhi
 1830 0048 0AE0     		b	.L72
 1831              	.L73:
1243:libs/STM32F30x_StdPeriph_Driver/src/stm32f30x_spi.c ****   }
1244:libs/STM32F30x_StdPeriph_Driver/src/stm32f30x_spi.c ****   else
1245:libs/STM32F30x_StdPeriph_Driver/src/stm32f30x_spi.c ****   {
1246:libs/STM32F30x_StdPeriph_Driver/src/stm32f30x_spi.c ****     /* Disable the selected SPI interrupt */
1247:libs/STM32F30x_StdPeriph_Driver/src/stm32f30x_spi.c ****     SPIx->CR2 &= (uint16_t)~itmask;
 1832              		.loc 1 1247 0
 1833 004a 7B68     		ldr	r3, [r7, #4]
 1834 004c 9B88     		ldrh	r3, [r3, #4]	@ movhi
 1835 004e 9AB2     		uxth	r2, r3
 1836 0050 BB89     		ldrh	r3, [r7, #12]	@ movhi
 1837 0052 6FEA0303 		mvn	r3, r3
 1838 0056 9BB2     		uxth	r3, r3
 1839 0058 1340     		ands	r3, r3, r2
 1840 005a 9AB2     		uxth	r2, r3
 1841 005c 7B68     		ldr	r3, [r7, #4]
 1842 005e 9A80     		strh	r2, [r3, #4]	@ movhi
 1843              	.L72:
1248:libs/STM32F30x_StdPeriph_Driver/src/stm32f30x_spi.c ****   }
1249:libs/STM32F30x_StdPeriph_Driver/src/stm32f30x_spi.c **** }
 1844              		.loc 1 1249 0
 1845 0060 07F11407 		add	r7, r7, #20
 1846 0064 BD46     		mov	sp, r7
 1847 0066 80BC     		pop	{r7}
 1848 0068 7047     		bx	lr
 1849              		.cfi_endproc
 1850              	.LFE136:
 1852 006a 00BF     		.section	.text.SPI_GetTransmissionFIFOStatus,"ax",%progbits
 1853              		.align	2
 1854              		.global	SPI_GetTransmissionFIFOStatus
 1855              		.thumb
 1856              		.thumb_func
 1858              	SPI_GetTransmissionFIFOStatus:
 1859              	.LFB137:
1250:libs/STM32F30x_StdPeriph_Driver/src/stm32f30x_spi.c **** 
1251:libs/STM32F30x_StdPeriph_Driver/src/stm32f30x_spi.c **** /**
1252:libs/STM32F30x_StdPeriph_Driver/src/stm32f30x_spi.c ****   * @brief  Returns the current SPIx Transmission FIFO filled level.
1253:libs/STM32F30x_StdPeriph_Driver/src/stm32f30x_spi.c ****   * @param  SPIx: where x can be 1, 2 or 3 to select the SPI peripheral.
1254:libs/STM32F30x_StdPeriph_Driver/src/stm32f30x_spi.c ****   * @retval The Transmission FIFO filling state.
1255:libs/STM32F30x_StdPeriph_Driver/src/stm32f30x_spi.c ****   *   - SPI_TransmissionFIFOStatus_Empty: when FIFO is empty
1256:libs/STM32F30x_StdPeriph_Driver/src/stm32f30x_spi.c ****   *   - SPI_TransmissionFIFOStatus_1QuarterFull: if more than 1 quarter-full.
1257:libs/STM32F30x_StdPeriph_Driver/src/stm32f30x_spi.c ****   *   - SPI_TransmissionFIFOStatus_HalfFull: if more than 1 half-full.
1258:libs/STM32F30x_StdPeriph_Driver/src/stm32f30x_spi.c ****   *   - SPI_TransmissionFIFOStatus_Full: when FIFO is full.
1259:libs/STM32F30x_StdPeriph_Driver/src/stm32f30x_spi.c ****   */
1260:libs/STM32F30x_StdPeriph_Driver/src/stm32f30x_spi.c **** uint16_t SPI_GetTransmissionFIFOStatus(SPI_TypeDef* SPIx)
1261:libs/STM32F30x_StdPeriph_Driver/src/stm32f30x_spi.c **** {
 1860              		.loc 1 1261 0
 1861              		.cfi_startproc
 1862              		@ args = 0, pretend = 0, frame = 8
 1863              		@ frame_needed = 1, uses_anonymous_args = 0
 1864              		@ link register save eliminated.
 1865 0000 80B4     		push	{r7}
 1866              	.LCFI81:
 1867              		.cfi_def_cfa_offset 4
 1868              		.cfi_offset 7, -4
 1869 0002 83B0     		sub	sp, sp, #12
 1870              	.LCFI82:
 1871              		.cfi_def_cfa_offset 16
 1872 0004 00AF     		add	r7, sp, #0
 1873              	.LCFI83:
 1874              		.cfi_def_cfa_register 7
 1875 0006 7860     		str	r0, [r7, #4]
1262:libs/STM32F30x_StdPeriph_Driver/src/stm32f30x_spi.c ****   /* Get the SPIx Transmission FIFO level bits */
1263:libs/STM32F30x_StdPeriph_Driver/src/stm32f30x_spi.c ****   return (uint16_t)((SPIx->SR & SPI_SR_FTLVL));
 1876              		.loc 1 1263 0
 1877 0008 7B68     		ldr	r3, [r7, #4]
 1878 000a 1B89     		ldrh	r3, [r3, #8]	@ movhi
 1879 000c 9BB2     		uxth	r3, r3
 1880 000e 03F4C053 		and	r3, r3, #6144
 1881 0012 9BB2     		uxth	r3, r3
1264:libs/STM32F30x_StdPeriph_Driver/src/stm32f30x_spi.c **** }
 1882              		.loc 1 1264 0
 1883 0014 1846     		mov	r0, r3
 1884 0016 07F10C07 		add	r7, r7, #12
 1885 001a BD46     		mov	sp, r7
 1886 001c 80BC     		pop	{r7}
 1887 001e 7047     		bx	lr
 1888              		.cfi_endproc
 1889              	.LFE137:
 1891              		.section	.text.SPI_GetReceptionFIFOStatus,"ax",%progbits
 1892              		.align	2
 1893              		.global	SPI_GetReceptionFIFOStatus
 1894              		.thumb
 1895              		.thumb_func
 1897              	SPI_GetReceptionFIFOStatus:
 1898              	.LFB138:
1265:libs/STM32F30x_StdPeriph_Driver/src/stm32f30x_spi.c **** 
1266:libs/STM32F30x_StdPeriph_Driver/src/stm32f30x_spi.c **** /**
1267:libs/STM32F30x_StdPeriph_Driver/src/stm32f30x_spi.c ****   * @brief  Returns the current SPIx Reception FIFO filled level.
1268:libs/STM32F30x_StdPeriph_Driver/src/stm32f30x_spi.c ****   * @param  SPIx: where x can be 1, 2 or 3 to select the SPI peripheral.
1269:libs/STM32F30x_StdPeriph_Driver/src/stm32f30x_spi.c ****   * @retval The Reception FIFO filling state.
1270:libs/STM32F30x_StdPeriph_Driver/src/stm32f30x_spi.c ****   *   - SPI_ReceptionFIFOStatus_Empty: when FIFO is empty
1271:libs/STM32F30x_StdPeriph_Driver/src/stm32f30x_spi.c ****   *   - SPI_ReceptionFIFOStatus_1QuarterFull: if more than 1 quarter-full.
1272:libs/STM32F30x_StdPeriph_Driver/src/stm32f30x_spi.c ****   *   - SPI_ReceptionFIFOStatus_HalfFull: if more than 1 half-full.
1273:libs/STM32F30x_StdPeriph_Driver/src/stm32f30x_spi.c ****   *   - SPI_ReceptionFIFOStatus_Full: when FIFO is full.
1274:libs/STM32F30x_StdPeriph_Driver/src/stm32f30x_spi.c ****   */
1275:libs/STM32F30x_StdPeriph_Driver/src/stm32f30x_spi.c **** uint16_t SPI_GetReceptionFIFOStatus(SPI_TypeDef* SPIx)
1276:libs/STM32F30x_StdPeriph_Driver/src/stm32f30x_spi.c **** {
 1899              		.loc 1 1276 0
 1900              		.cfi_startproc
 1901              		@ args = 0, pretend = 0, frame = 8
 1902              		@ frame_needed = 1, uses_anonymous_args = 0
 1903              		@ link register save eliminated.
 1904 0000 80B4     		push	{r7}
 1905              	.LCFI84:
 1906              		.cfi_def_cfa_offset 4
 1907              		.cfi_offset 7, -4
 1908 0002 83B0     		sub	sp, sp, #12
 1909              	.LCFI85:
 1910              		.cfi_def_cfa_offset 16
 1911 0004 00AF     		add	r7, sp, #0
 1912              	.LCFI86:
 1913              		.cfi_def_cfa_register 7
 1914 0006 7860     		str	r0, [r7, #4]
1277:libs/STM32F30x_StdPeriph_Driver/src/stm32f30x_spi.c ****   /* Get the SPIx Reception FIFO level bits */
1278:libs/STM32F30x_StdPeriph_Driver/src/stm32f30x_spi.c ****   return (uint16_t)((SPIx->SR & SPI_SR_FRLVL));
 1915              		.loc 1 1278 0
 1916 0008 7B68     		ldr	r3, [r7, #4]
 1917 000a 1B89     		ldrh	r3, [r3, #8]	@ movhi
 1918 000c 9BB2     		uxth	r3, r3
 1919 000e 03F4C063 		and	r3, r3, #1536
 1920 0012 9BB2     		uxth	r3, r3
1279:libs/STM32F30x_StdPeriph_Driver/src/stm32f30x_spi.c **** }
 1921              		.loc 1 1279 0
 1922 0014 1846     		mov	r0, r3
 1923 0016 07F10C07 		add	r7, r7, #12
 1924 001a BD46     		mov	sp, r7
 1925 001c 80BC     		pop	{r7}
 1926 001e 7047     		bx	lr
 1927              		.cfi_endproc
 1928              	.LFE138:
 1930              		.section	.text.SPI_I2S_GetFlagStatus,"ax",%progbits
 1931              		.align	2
 1932              		.global	SPI_I2S_GetFlagStatus
 1933              		.thumb
 1934              		.thumb_func
 1936              	SPI_I2S_GetFlagStatus:
 1937              	.LFB139:
1280:libs/STM32F30x_StdPeriph_Driver/src/stm32f30x_spi.c **** 
1281:libs/STM32F30x_StdPeriph_Driver/src/stm32f30x_spi.c **** /**
1282:libs/STM32F30x_StdPeriph_Driver/src/stm32f30x_spi.c ****   * @brief  Checks whether the specified SPI flag is set or not.
1283:libs/STM32F30x_StdPeriph_Driver/src/stm32f30x_spi.c ****   * @param  SPIx: To select the SPIx/I2Sx peripheral, where x can be: 1, 2 or 3 
1284:libs/STM32F30x_StdPeriph_Driver/src/stm32f30x_spi.c ****   *         in SPI mode or 2 or 3 in I2S mode or I2Sxext for I2S full duplex mode.  
1285:libs/STM32F30x_StdPeriph_Driver/src/stm32f30x_spi.c ****   * @param  SPI_I2S_FLAG: specifies the SPI flag to check. 
1286:libs/STM32F30x_StdPeriph_Driver/src/stm32f30x_spi.c ****   *   This parameter can be one of the following values:
1287:libs/STM32F30x_StdPeriph_Driver/src/stm32f30x_spi.c ****   *     @arg SPI_I2S_FLAG_TXE: Transmit buffer empty flag.
1288:libs/STM32F30x_StdPeriph_Driver/src/stm32f30x_spi.c ****   *     @arg SPI_I2S_FLAG_RXNE: Receive buffer not empty flag.
1289:libs/STM32F30x_StdPeriph_Driver/src/stm32f30x_spi.c ****   *     @arg SPI_I2S_FLAG_BSY: Busy flag.
1290:libs/STM32F30x_StdPeriph_Driver/src/stm32f30x_spi.c ****   *     @arg SPI_I2S_FLAG_OVR: Overrun flag.
1291:libs/STM32F30x_StdPeriph_Driver/src/stm32f30x_spi.c ****   *     @arg SPI_I2S_FLAG_MODF: Mode Fault flag.
1292:libs/STM32F30x_StdPeriph_Driver/src/stm32f30x_spi.c ****   *     @arg SPI_I2S_FLAG_CRCERR: CRC Error flag.
1293:libs/STM32F30x_StdPeriph_Driver/src/stm32f30x_spi.c ****   *     @arg SPI_I2S_FLAG_FRE: TI frame format error flag.
1294:libs/STM32F30x_StdPeriph_Driver/src/stm32f30x_spi.c ****   *     @arg I2S_FLAG_UDR: Underrun Error flag.
1295:libs/STM32F30x_StdPeriph_Driver/src/stm32f30x_spi.c ****   *     @arg I2S_FLAG_CHSIDE: Channel Side flag.   
1296:libs/STM32F30x_StdPeriph_Driver/src/stm32f30x_spi.c ****   * @retval The new state of SPI_I2S_FLAG (SET or RESET).
1297:libs/STM32F30x_StdPeriph_Driver/src/stm32f30x_spi.c ****   */
1298:libs/STM32F30x_StdPeriph_Driver/src/stm32f30x_spi.c **** FlagStatus SPI_I2S_GetFlagStatus(SPI_TypeDef* SPIx, uint16_t SPI_I2S_FLAG)
1299:libs/STM32F30x_StdPeriph_Driver/src/stm32f30x_spi.c **** {
 1938              		.loc 1 1299 0
 1939              		.cfi_startproc
 1940              		@ args = 0, pretend = 0, frame = 16
 1941              		@ frame_needed = 1, uses_anonymous_args = 0
 1942              		@ link register save eliminated.
 1943 0000 80B4     		push	{r7}
 1944              	.LCFI87:
 1945              		.cfi_def_cfa_offset 4
 1946              		.cfi_offset 7, -4
 1947 0002 85B0     		sub	sp, sp, #20
 1948              	.LCFI88:
 1949              		.cfi_def_cfa_offset 24
 1950 0004 00AF     		add	r7, sp, #0
 1951              	.LCFI89:
 1952              		.cfi_def_cfa_register 7
 1953 0006 7860     		str	r0, [r7, #4]
 1954 0008 0B46     		mov	r3, r1
 1955 000a 7B80     		strh	r3, [r7, #2]	@ movhi
1300:libs/STM32F30x_StdPeriph_Driver/src/stm32f30x_spi.c ****   FlagStatus bitstatus = RESET;
 1956              		.loc 1 1300 0
 1957 000c 4FF00003 		mov	r3, #0
 1958 0010 FB73     		strb	r3, [r7, #15]
1301:libs/STM32F30x_StdPeriph_Driver/src/stm32f30x_spi.c ****   /* Check the parameters */
1302:libs/STM32F30x_StdPeriph_Driver/src/stm32f30x_spi.c ****   //assert_param(IS_SPI_ALL_PERIPH_EXT(SPIx));
1303:libs/STM32F30x_StdPeriph_Driver/src/stm32f30x_spi.c ****   //assert_param(IS_SPI_I2S_GET_FLAG(SPI_I2S_FLAG));
1304:libs/STM32F30x_StdPeriph_Driver/src/stm32f30x_spi.c **** 
1305:libs/STM32F30x_StdPeriph_Driver/src/stm32f30x_spi.c ****   /* Check the status of the specified SPI flag */
1306:libs/STM32F30x_StdPeriph_Driver/src/stm32f30x_spi.c ****   if ((SPIx->SR & SPI_I2S_FLAG) != (uint16_t)RESET)
 1959              		.loc 1 1306 0
 1960 0012 7B68     		ldr	r3, [r7, #4]
 1961 0014 1B89     		ldrh	r3, [r3, #8]	@ movhi
 1962 0016 9AB2     		uxth	r2, r3
 1963 0018 7B88     		ldrh	r3, [r7, #2]	@ movhi
 1964 001a 1340     		ands	r3, r3, r2
 1965 001c 9BB2     		uxth	r3, r3
 1966 001e 002B     		cmp	r3, #0
 1967 0020 03D0     		beq	.L80
1307:libs/STM32F30x_StdPeriph_Driver/src/stm32f30x_spi.c ****   {
1308:libs/STM32F30x_StdPeriph_Driver/src/stm32f30x_spi.c ****     /* SPI_I2S_FLAG is set */
1309:libs/STM32F30x_StdPeriph_Driver/src/stm32f30x_spi.c ****     bitstatus = SET;
 1968              		.loc 1 1309 0
 1969 0022 4FF00103 		mov	r3, #1
 1970 0026 FB73     		strb	r3, [r7, #15]
 1971 0028 02E0     		b	.L81
 1972              	.L80:
1310:libs/STM32F30x_StdPeriph_Driver/src/stm32f30x_spi.c ****   }
1311:libs/STM32F30x_StdPeriph_Driver/src/stm32f30x_spi.c ****   else
1312:libs/STM32F30x_StdPeriph_Driver/src/stm32f30x_spi.c ****   {
1313:libs/STM32F30x_StdPeriph_Driver/src/stm32f30x_spi.c ****     /* SPI_I2S_FLAG is reset */
1314:libs/STM32F30x_StdPeriph_Driver/src/stm32f30x_spi.c ****     bitstatus = RESET;
 1973              		.loc 1 1314 0
 1974 002a 4FF00003 		mov	r3, #0
 1975 002e FB73     		strb	r3, [r7, #15]
 1976              	.L81:
1315:libs/STM32F30x_StdPeriph_Driver/src/stm32f30x_spi.c ****   }
1316:libs/STM32F30x_StdPeriph_Driver/src/stm32f30x_spi.c ****   /* Return the SPI_I2S_FLAG status */
1317:libs/STM32F30x_StdPeriph_Driver/src/stm32f30x_spi.c ****   return  bitstatus;
 1977              		.loc 1 1317 0
 1978 0030 FB7B     		ldrb	r3, [r7, #15]	@ zero_extendqisi2
1318:libs/STM32F30x_StdPeriph_Driver/src/stm32f30x_spi.c **** }
 1979              		.loc 1 1318 0
 1980 0032 1846     		mov	r0, r3
 1981 0034 07F11407 		add	r7, r7, #20
 1982 0038 BD46     		mov	sp, r7
 1983 003a 80BC     		pop	{r7}
 1984 003c 7047     		bx	lr
 1985              		.cfi_endproc
 1986              	.LFE139:
 1988 003e 00BF     		.section	.text.SPI_I2S_ClearFlag,"ax",%progbits
 1989              		.align	2
 1990              		.global	SPI_I2S_ClearFlag
 1991              		.thumb
 1992              		.thumb_func
 1994              	SPI_I2S_ClearFlag:
 1995              	.LFB140:
1319:libs/STM32F30x_StdPeriph_Driver/src/stm32f30x_spi.c **** 
1320:libs/STM32F30x_StdPeriph_Driver/src/stm32f30x_spi.c **** /**
1321:libs/STM32F30x_StdPeriph_Driver/src/stm32f30x_spi.c ****   * @brief  Clears the SPIx CRC Error (CRCERR) flag.
1322:libs/STM32F30x_StdPeriph_Driver/src/stm32f30x_spi.c ****   * @param  SPIx: To select the SPIx/I2Sx peripheral, where x can be: 1, 2 or 3 
1323:libs/STM32F30x_StdPeriph_Driver/src/stm32f30x_spi.c ****   *         in SPI mode or 2 or 3 in I2S mode or I2Sxext for I2S full duplex mode. 
1324:libs/STM32F30x_StdPeriph_Driver/src/stm32f30x_spi.c ****   * @param  SPI_I2S_FLAG: specifies the SPI flag to clear. 
1325:libs/STM32F30x_StdPeriph_Driver/src/stm32f30x_spi.c ****   *   This function clears only CRCERR flag.
1326:libs/STM32F30x_StdPeriph_Driver/src/stm32f30x_spi.c ****   * @note OVR (OverRun error) flag is cleared by software sequence: a read 
1327:libs/STM32F30x_StdPeriph_Driver/src/stm32f30x_spi.c ****   *       operation to SPI_DR register (SPI_I2S_ReceiveData()) followed by a read 
1328:libs/STM32F30x_StdPeriph_Driver/src/stm32f30x_spi.c ****   *       operation to SPI_SR register (SPI_I2S_GetFlagStatus()).
1329:libs/STM32F30x_StdPeriph_Driver/src/stm32f30x_spi.c ****   * @note MODF (Mode Fault) flag is cleared by software sequence: a read/write 
1330:libs/STM32F30x_StdPeriph_Driver/src/stm32f30x_spi.c ****   *       operation to SPI_SR register (SPI_I2S_GetFlagStatus()) followed by a 
1331:libs/STM32F30x_StdPeriph_Driver/src/stm32f30x_spi.c ****   *       write operation to SPI_CR1 register (SPI_Cmd() to enable the SPI).
1332:libs/STM32F30x_StdPeriph_Driver/src/stm32f30x_spi.c ****   * @retval None
1333:libs/STM32F30x_StdPeriph_Driver/src/stm32f30x_spi.c ****   */
1334:libs/STM32F30x_StdPeriph_Driver/src/stm32f30x_spi.c **** void SPI_I2S_ClearFlag(SPI_TypeDef* SPIx, uint16_t SPI_I2S_FLAG)
1335:libs/STM32F30x_StdPeriph_Driver/src/stm32f30x_spi.c **** {
 1996              		.loc 1 1335 0
 1997              		.cfi_startproc
 1998              		@ args = 0, pretend = 0, frame = 8
 1999              		@ frame_needed = 1, uses_anonymous_args = 0
 2000              		@ link register save eliminated.
 2001 0000 80B4     		push	{r7}
 2002              	.LCFI90:
 2003              		.cfi_def_cfa_offset 4
 2004              		.cfi_offset 7, -4
 2005 0002 83B0     		sub	sp, sp, #12
 2006              	.LCFI91:
 2007              		.cfi_def_cfa_offset 16
 2008 0004 00AF     		add	r7, sp, #0
 2009              	.LCFI92:
 2010              		.cfi_def_cfa_register 7
 2011 0006 7860     		str	r0, [r7, #4]
 2012 0008 0B46     		mov	r3, r1
 2013 000a 7B80     		strh	r3, [r7, #2]	@ movhi
1336:libs/STM32F30x_StdPeriph_Driver/src/stm32f30x_spi.c ****   /* Check the parameters */
1337:libs/STM32F30x_StdPeriph_Driver/src/stm32f30x_spi.c ****   //assert_param(IS_SPI_ALL_PERIPH_EXT(SPIx));
1338:libs/STM32F30x_StdPeriph_Driver/src/stm32f30x_spi.c ****   //assert_param(IS_SPI_CLEAR_FLAG(SPI_I2S_FLAG));
1339:libs/STM32F30x_StdPeriph_Driver/src/stm32f30x_spi.c **** 
1340:libs/STM32F30x_StdPeriph_Driver/src/stm32f30x_spi.c ****   /* Clear the selected SPI CRC Error (CRCERR) flag */
1341:libs/STM32F30x_StdPeriph_Driver/src/stm32f30x_spi.c ****   SPIx->SR = (uint16_t)~SPI_I2S_FLAG;
 2014              		.loc 1 1341 0
 2015 000c 7B88     		ldrh	r3, [r7, #2]	@ movhi
 2016 000e 6FEA0303 		mvn	r3, r3
 2017 0012 9AB2     		uxth	r2, r3
 2018 0014 7B68     		ldr	r3, [r7, #4]
 2019 0016 1A81     		strh	r2, [r3, #8]	@ movhi
1342:libs/STM32F30x_StdPeriph_Driver/src/stm32f30x_spi.c **** }
 2020              		.loc 1 1342 0
 2021 0018 07F10C07 		add	r7, r7, #12
 2022 001c BD46     		mov	sp, r7
 2023 001e 80BC     		pop	{r7}
 2024 0020 7047     		bx	lr
 2025              		.cfi_endproc
 2026              	.LFE140:
 2028 0022 00BF     		.section	.text.SPI_I2S_GetITStatus,"ax",%progbits
 2029              		.align	2
 2030              		.global	SPI_I2S_GetITStatus
 2031              		.thumb
 2032              		.thumb_func
 2034              	SPI_I2S_GetITStatus:
 2035              	.LFB141:
1343:libs/STM32F30x_StdPeriph_Driver/src/stm32f30x_spi.c **** 
1344:libs/STM32F30x_StdPeriph_Driver/src/stm32f30x_spi.c **** /**
1345:libs/STM32F30x_StdPeriph_Driver/src/stm32f30x_spi.c ****   * @brief  Checks whether the specified SPI/I2S interrupt has occurred or not.
1346:libs/STM32F30x_StdPeriph_Driver/src/stm32f30x_spi.c ****   * @param  SPIx: To select the SPIx/I2Sx peripheral, where x can be: 1, 2 or 3 
1347:libs/STM32F30x_StdPeriph_Driver/src/stm32f30x_spi.c ****   *         in SPI mode or 2 or 3 in I2S mode or I2Sxext for I2S full duplex mode.  
1348:libs/STM32F30x_StdPeriph_Driver/src/stm32f30x_spi.c ****   * @param  SPI_I2S_IT: specifies the SPI interrupt source to check. 
1349:libs/STM32F30x_StdPeriph_Driver/src/stm32f30x_spi.c ****   *   This parameter can be one of the following values:
1350:libs/STM32F30x_StdPeriph_Driver/src/stm32f30x_spi.c ****   *     @arg SPI_I2S_IT_TXE: Transmit buffer empty interrupt.
1351:libs/STM32F30x_StdPeriph_Driver/src/stm32f30x_spi.c ****   *     @arg SPI_I2S_IT_RXNE: Receive buffer not empty interrupt.
1352:libs/STM32F30x_StdPeriph_Driver/src/stm32f30x_spi.c ****   *     @arg SPI_IT_MODF: Mode Fault interrupt.
1353:libs/STM32F30x_StdPeriph_Driver/src/stm32f30x_spi.c ****   *     @arg SPI_I2S_IT_OVR: Overrun interrupt.
1354:libs/STM32F30x_StdPeriph_Driver/src/stm32f30x_spi.c ****   *     @arg I2S_IT_UDR: Underrun interrupt.  
1355:libs/STM32F30x_StdPeriph_Driver/src/stm32f30x_spi.c ****   *     @arg SPI_I2S_IT_FRE: Format Error interrupt.  
1356:libs/STM32F30x_StdPeriph_Driver/src/stm32f30x_spi.c ****   * @retval The new state of SPI_I2S_IT (SET or RESET).
1357:libs/STM32F30x_StdPeriph_Driver/src/stm32f30x_spi.c ****   */
1358:libs/STM32F30x_StdPeriph_Driver/src/stm32f30x_spi.c **** ITStatus SPI_I2S_GetITStatus(SPI_TypeDef* SPIx, uint8_t SPI_I2S_IT)
1359:libs/STM32F30x_StdPeriph_Driver/src/stm32f30x_spi.c **** {
 2036              		.loc 1 1359 0
 2037              		.cfi_startproc
 2038              		@ args = 0, pretend = 0, frame = 16
 2039              		@ frame_needed = 1, uses_anonymous_args = 0
 2040              		@ link register save eliminated.
 2041 0000 80B4     		push	{r7}
 2042              	.LCFI93:
 2043              		.cfi_def_cfa_offset 4
 2044              		.cfi_offset 7, -4
 2045 0002 85B0     		sub	sp, sp, #20
 2046              	.LCFI94:
 2047              		.cfi_def_cfa_offset 24
 2048 0004 00AF     		add	r7, sp, #0
 2049              	.LCFI95:
 2050              		.cfi_def_cfa_register 7
 2051 0006 7860     		str	r0, [r7, #4]
 2052 0008 0B46     		mov	r3, r1
 2053 000a FB70     		strb	r3, [r7, #3]
1360:libs/STM32F30x_StdPeriph_Driver/src/stm32f30x_spi.c ****   ITStatus bitstatus = RESET;
 2054              		.loc 1 1360 0
 2055 000c 4FF00003 		mov	r3, #0
 2056 0010 FB73     		strb	r3, [r7, #15]
1361:libs/STM32F30x_StdPeriph_Driver/src/stm32f30x_spi.c ****   uint16_t itpos = 0, itmask = 0, enablestatus = 0;
 2057              		.loc 1 1361 0
 2058 0012 4FF00003 		mov	r3, #0
 2059 0016 BB81     		strh	r3, [r7, #12]	@ movhi
 2060 0018 4FF00003 		mov	r3, #0
 2061 001c 7B81     		strh	r3, [r7, #10]	@ movhi
 2062 001e 4FF00003 		mov	r3, #0
 2063 0022 3B81     		strh	r3, [r7, #8]	@ movhi
1362:libs/STM32F30x_StdPeriph_Driver/src/stm32f30x_spi.c **** 
1363:libs/STM32F30x_StdPeriph_Driver/src/stm32f30x_spi.c ****   /* Check the parameters */
1364:libs/STM32F30x_StdPeriph_Driver/src/stm32f30x_spi.c ****   //assert_param(IS_SPI_ALL_PERIPH_EXT(SPIx));
1365:libs/STM32F30x_StdPeriph_Driver/src/stm32f30x_spi.c ****   //assert_param(IS_SPI_I2S_GET_IT(SPI_I2S_IT));
1366:libs/STM32F30x_StdPeriph_Driver/src/stm32f30x_spi.c **** 
1367:libs/STM32F30x_StdPeriph_Driver/src/stm32f30x_spi.c ****   /* Get the SPI_I2S_IT index */
1368:libs/STM32F30x_StdPeriph_Driver/src/stm32f30x_spi.c ****   itpos = 0x01 << (SPI_I2S_IT & 0x0F);
 2064              		.loc 1 1368 0
 2065 0024 FB78     		ldrb	r3, [r7, #3]	@ zero_extendqisi2
 2066 0026 03F00F03 		and	r3, r3, #15
 2067 002a 4FF00102 		mov	r2, #1
 2068 002e 02FA03F3 		lsl	r3, r2, r3
 2069 0032 BB81     		strh	r3, [r7, #12]	@ movhi
1369:libs/STM32F30x_StdPeriph_Driver/src/stm32f30x_spi.c **** 
1370:libs/STM32F30x_StdPeriph_Driver/src/stm32f30x_spi.c ****   /* Get the SPI_I2S_IT IT mask */
1371:libs/STM32F30x_StdPeriph_Driver/src/stm32f30x_spi.c ****   itmask = SPI_I2S_IT >> 4;
 2070              		.loc 1 1371 0
 2071 0034 FB78     		ldrb	r3, [r7, #3]	@ zero_extendqisi2
 2072 0036 4FEA1313 		lsr	r3, r3, #4
 2073 003a DBB2     		uxtb	r3, r3
 2074 003c 7B81     		strh	r3, [r7, #10]	@ movhi
1372:libs/STM32F30x_StdPeriph_Driver/src/stm32f30x_spi.c **** 
1373:libs/STM32F30x_StdPeriph_Driver/src/stm32f30x_spi.c ****   /* Set the IT mask */
1374:libs/STM32F30x_StdPeriph_Driver/src/stm32f30x_spi.c ****   itmask = 0x01 << itmask;
 2075              		.loc 1 1374 0
 2076 003e 7B89     		ldrh	r3, [r7, #10]
 2077 0040 4FF00102 		mov	r2, #1
 2078 0044 02FA03F3 		lsl	r3, r2, r3
 2079 0048 7B81     		strh	r3, [r7, #10]	@ movhi
1375:libs/STM32F30x_StdPeriph_Driver/src/stm32f30x_spi.c **** 
1376:libs/STM32F30x_StdPeriph_Driver/src/stm32f30x_spi.c ****   /* Get the SPI_I2S_IT enable bit status */
1377:libs/STM32F30x_StdPeriph_Driver/src/stm32f30x_spi.c ****   enablestatus = (SPIx->CR2 & itmask) ;
 2080              		.loc 1 1377 0
 2081 004a 7B68     		ldr	r3, [r7, #4]
 2082 004c 9B88     		ldrh	r3, [r3, #4]	@ movhi
 2083 004e 9AB2     		uxth	r2, r3
 2084 0050 7B89     		ldrh	r3, [r7, #10]	@ movhi
 2085 0052 1340     		ands	r3, r3, r2
 2086 0054 3B81     		strh	r3, [r7, #8]	@ movhi
1378:libs/STM32F30x_StdPeriph_Driver/src/stm32f30x_spi.c **** 
1379:libs/STM32F30x_StdPeriph_Driver/src/stm32f30x_spi.c ****   /* Check the status of the specified SPI interrupt */
1380:libs/STM32F30x_StdPeriph_Driver/src/stm32f30x_spi.c ****   if (((SPIx->SR & itpos) != (uint16_t)RESET) && enablestatus)
 2087              		.loc 1 1380 0
 2088 0056 7B68     		ldr	r3, [r7, #4]
 2089 0058 1B89     		ldrh	r3, [r3, #8]	@ movhi
 2090 005a 9AB2     		uxth	r2, r3
 2091 005c BB89     		ldrh	r3, [r7, #12]	@ movhi
 2092 005e 1340     		ands	r3, r3, r2
 2093 0060 9BB2     		uxth	r3, r3
 2094 0062 002B     		cmp	r3, #0
 2095 0064 06D0     		beq	.L85
 2096              		.loc 1 1380 0 is_stmt 0 discriminator 1
 2097 0066 3B89     		ldrh	r3, [r7, #8]
 2098 0068 002B     		cmp	r3, #0
 2099 006a 03D0     		beq	.L85
1381:libs/STM32F30x_StdPeriph_Driver/src/stm32f30x_spi.c ****   {
1382:libs/STM32F30x_StdPeriph_Driver/src/stm32f30x_spi.c ****     /* SPI_I2S_IT is set */
1383:libs/STM32F30x_StdPeriph_Driver/src/stm32f30x_spi.c ****     bitstatus = SET;
 2100              		.loc 1 1383 0 is_stmt 1
 2101 006c 4FF00103 		mov	r3, #1
 2102 0070 FB73     		strb	r3, [r7, #15]
 2103 0072 02E0     		b	.L86
 2104              	.L85:
1384:libs/STM32F30x_StdPeriph_Driver/src/stm32f30x_spi.c ****   }
1385:libs/STM32F30x_StdPeriph_Driver/src/stm32f30x_spi.c ****   else
1386:libs/STM32F30x_StdPeriph_Driver/src/stm32f30x_spi.c ****   {
1387:libs/STM32F30x_StdPeriph_Driver/src/stm32f30x_spi.c ****     /* SPI_I2S_IT is reset */
1388:libs/STM32F30x_StdPeriph_Driver/src/stm32f30x_spi.c ****     bitstatus = RESET;
 2105              		.loc 1 1388 0
 2106 0074 4FF00003 		mov	r3, #0
 2107 0078 FB73     		strb	r3, [r7, #15]
 2108              	.L86:
1389:libs/STM32F30x_StdPeriph_Driver/src/stm32f30x_spi.c ****   }
1390:libs/STM32F30x_StdPeriph_Driver/src/stm32f30x_spi.c ****   /* Return the SPI_I2S_IT status */
1391:libs/STM32F30x_StdPeriph_Driver/src/stm32f30x_spi.c ****   return bitstatus;
 2109              		.loc 1 1391 0
 2110 007a FB7B     		ldrb	r3, [r7, #15]	@ zero_extendqisi2
1392:libs/STM32F30x_StdPeriph_Driver/src/stm32f30x_spi.c **** }
 2111              		.loc 1 1392 0
 2112 007c 1846     		mov	r0, r3
 2113 007e 07F11407 		add	r7, r7, #20
 2114 0082 BD46     		mov	sp, r7
 2115 0084 80BC     		pop	{r7}
 2116 0086 7047     		bx	lr
 2117              		.cfi_endproc
 2118              	.LFE141:
 2120              		.text
 2121              	.Letext0:
 2122              		.file 2 "/home/chaitannya/CodeSourcery/bin/../lib/gcc/arm-none-eabi/4.7.3/../../../../arm-none-eab
 2123              		.file 3 "inc/stm32f30x.h"
 2124              		.file 4 "libs/STM32F30x_StdPeriph_Driver/inc/stm32f30x_spi.h"
 2125              		.file 5 "libs/STM32F30x_StdPeriph_Driver/inc/stm32f30x_rcc.h"
 2126              		.file 6 "inc/core_cm4.h"